ARM GAS  /var/folders/9y/n02fl3g16gnf7ppy14xghdy80000gn/T//ccqH5YoF.s 			page 1


   1              		.cpu cortex-m4
   2              		.eabi_attribute 27, 1
   3              		.eabi_attribute 28, 1
   4              		.eabi_attribute 20, 1
   5              		.eabi_attribute 21, 1
   6              		.eabi_attribute 23, 3
   7              		.eabi_attribute 24, 1
   8              		.eabi_attribute 25, 1
   9              		.eabi_attribute 26, 1
  10              		.eabi_attribute 30, 1
  11              		.eabi_attribute 34, 1
  12              		.eabi_attribute 18, 4
  13              		.file	"esp32.c"
  14              		.text
  15              	.Ltext0:
  16              		.cfi_sections	.debug_frame
  17              		.section	.text.Wifi_SendRaw,"ax",%progbits
  18              		.align	1
  19              		.global	Wifi_SendRaw
  20              		.arch armv7e-m
  21              		.syntax unified
  22              		.thumb
  23              		.thumb_func
  24              		.fpu fpv4-sp-d16
  26              	Wifi_SendRaw:
  27              	.LVL0:
  28              	.LFB1155:
  29              		.file 1 "Core/Src/esp32.c"
   1:Core/Src/esp32.c **** #include "esp32.h"
   2:Core/Src/esp32.c **** #include "esp32Config.h"
   3:Core/Src/esp32.c **** 
   4:Core/Src/esp32.c **** Wifi_t Wifi;
   5:Core/Src/esp32.c **** MQTT_t MQTT;
   6:Core/Src/esp32.c **** SNTP_t SNTP;
   7:Core/Src/esp32.c **** 
   8:Core/Src/esp32.c **** // ################################################################################################
   9:Core/Src/esp32.c **** bool Wifi_SendRaw(uint8_t *data, uint16_t len)
  10:Core/Src/esp32.c **** {
  30              		.loc 1 10 1 view -0
  31              		.cfi_startproc
  32              		@ args = 0, pretend = 0, frame = 0
  33              		@ frame_needed = 0, uses_anonymous_args = 0
  11:Core/Src/esp32.c ****     if (len <= _WIFI_TX_SIZE)
  34              		.loc 1 11 5 view .LVU1
  35              		.loc 1 11 8 is_stmt 0 view .LVU2
  36 0000 B1F5806F 		cmp	r1, #1024
  37 0004 01D9     		bls	.L8
  12:Core/Src/esp32.c ****     {
  13:Core/Src/esp32.c ****         // Send the information in data through the UART of the ESP8266
  14:Core/Src/esp32.c ****         usart_transmit_dma((char*)data);
  15:Core/Src/esp32.c ****         return true;
  16:Core/Src/esp32.c ****     }
  17:Core/Src/esp32.c ****     else
  18:Core/Src/esp32.c ****         return false;
  38              		.loc 1 18 16 view .LVU3
  39 0006 0020     		movs	r0, #0
  40              	.LVL1:
ARM GAS  /var/folders/9y/n02fl3g16gnf7ppy14xghdy80000gn/T//ccqH5YoF.s 			page 2


  19:Core/Src/esp32.c **** }
  41              		.loc 1 19 1 view .LVU4
  42 0008 7047     		bx	lr
  43              	.LVL2:
  44              	.L8:
  10:Core/Src/esp32.c ****     if (len <= _WIFI_TX_SIZE)
  45              		.loc 1 10 1 view .LVU5
  46 000a 08B5     		push	{r3, lr}
  47              		.cfi_def_cfa_offset 8
  48              		.cfi_offset 3, -8
  49              		.cfi_offset 14, -4
  14:Core/Src/esp32.c ****         return true;
  50              		.loc 1 14 9 is_stmt 1 view .LVU6
  51 000c FFF7FEFF 		bl	usart_transmit_dma
  52              	.LVL3:
  15:Core/Src/esp32.c ****     }
  53              		.loc 1 15 9 view .LVU7
  15:Core/Src/esp32.c ****     }
  54              		.loc 1 15 16 is_stmt 0 view .LVU8
  55 0010 0120     		movs	r0, #1
  56              		.loc 1 19 1 view .LVU9
  57 0012 08BD     		pop	{r3, pc}
  58              		.cfi_endproc
  59              	.LFE1155:
  61              		.section	.text.Wifi_SendString,"ax",%progbits
  62              		.align	1
  63              		.global	Wifi_SendString
  64              		.syntax unified
  65              		.thumb
  66              		.thumb_func
  67              		.fpu fpv4-sp-d16
  69              	Wifi_SendString:
  70              	.LVL4:
  71              	.LFB1156:
  20:Core/Src/esp32.c **** // ################################################################################################
  21:Core/Src/esp32.c **** bool Wifi_SendString(char *data)
  22:Core/Src/esp32.c **** {
  72              		.loc 1 22 1 is_stmt 1 view -0
  73              		.cfi_startproc
  74              		@ args = 0, pretend = 0, frame = 0
  75              		@ frame_needed = 0, uses_anonymous_args = 0
  76              		.loc 1 22 1 is_stmt 0 view .LVU11
  77 0000 10B5     		push	{r4, lr}
  78              		.cfi_def_cfa_offset 8
  79              		.cfi_offset 4, -8
  80              		.cfi_offset 14, -4
  81 0002 0446     		mov	r4, r0
  23:Core/Src/esp32.c ****     return Wifi_SendRaw((uint8_t *)data, strlen(data));
  82              		.loc 1 23 5 is_stmt 1 view .LVU12
  83              		.loc 1 23 42 is_stmt 0 view .LVU13
  84 0004 FFF7FEFF 		bl	strlen
  85              	.LVL5:
  86              		.loc 1 23 12 view .LVU14
  87 0008 81B2     		uxth	r1, r0
  88 000a 2046     		mov	r0, r4
  89 000c FFF7FEFF 		bl	Wifi_SendRaw
  90              	.LVL6:
ARM GAS  /var/folders/9y/n02fl3g16gnf7ppy14xghdy80000gn/T//ccqH5YoF.s 			page 3


  24:Core/Src/esp32.c **** }
  91              		.loc 1 24 1 view .LVU15
  92 0010 10BD     		pop	{r4, pc}
  93              		.loc 1 24 1 view .LVU16
  94              		.cfi_endproc
  95              	.LFE1156:
  97              		.section	.text.Wifi_SendStringAndWait,"ax",%progbits
  98              		.align	1
  99              		.global	Wifi_SendStringAndWait
 100              		.syntax unified
 101              		.thumb
 102              		.thumb_func
 103              		.fpu fpv4-sp-d16
 105              	Wifi_SendStringAndWait:
 106              	.LVL7:
 107              	.LFB1157:
  25:Core/Src/esp32.c **** // ################################################################################################
  26:Core/Src/esp32.c **** bool Wifi_SendStringAndWait(char *data, uint16_t DelayUs)
  27:Core/Src/esp32.c **** {
 108              		.loc 1 27 1 is_stmt 1 view -0
 109              		.cfi_startproc
 110              		@ args = 0, pretend = 0, frame = 0
 111              		@ frame_needed = 0, uses_anonymous_args = 0
 112              		.loc 1 27 1 is_stmt 0 view .LVU18
 113 0000 38B5     		push	{r3, r4, r5, lr}
 114              		.cfi_def_cfa_offset 16
 115              		.cfi_offset 3, -16
 116              		.cfi_offset 4, -12
 117              		.cfi_offset 5, -8
 118              		.cfi_offset 14, -4
 119 0002 0446     		mov	r4, r0
 120 0004 0D46     		mov	r5, r1
  28:Core/Src/esp32.c ****     if (Wifi_SendRaw((uint8_t *)data, strlen(data)) == false)
 121              		.loc 1 28 5 is_stmt 1 view .LVU19
 122              		.loc 1 28 39 is_stmt 0 view .LVU20
 123 0006 FFF7FEFF 		bl	strlen
 124              	.LVL8:
 125              		.loc 1 28 9 view .LVU21
 126 000a 81B2     		uxth	r1, r0
 127 000c 2046     		mov	r0, r4
 128 000e FFF7FEFF 		bl	Wifi_SendRaw
 129              	.LVL9:
 130              		.loc 1 28 8 view .LVU22
 131 0012 0446     		mov	r4, r0
 132              	.LVL10:
 133              		.loc 1 28 8 view .LVU23
 134 0014 08B9     		cbnz	r0, .L14
 135              	.L12:
  29:Core/Src/esp32.c ****         return false;
  30:Core/Src/esp32.c ****     delayMicroseconds(DelayUs);
  31:Core/Src/esp32.c ****     return true;
  32:Core/Src/esp32.c **** }
 136              		.loc 1 32 1 view .LVU24
 137 0016 2046     		mov	r0, r4
 138 0018 38BD     		pop	{r3, r4, r5, pc}
 139              	.L14:
  30:Core/Src/esp32.c ****     return true;
ARM GAS  /var/folders/9y/n02fl3g16gnf7ppy14xghdy80000gn/T//ccqH5YoF.s 			page 4


 140              		.loc 1 30 5 is_stmt 1 view .LVU25
 141 001a 2846     		mov	r0, r5
 142 001c FFF7FEFF 		bl	delayMicroseconds
 143              	.LVL11:
  31:Core/Src/esp32.c **** }
 144              		.loc 1 31 5 view .LVU26
  31:Core/Src/esp32.c **** }
 145              		.loc 1 31 12 is_stmt 0 view .LVU27
 146 0020 F9E7     		b	.L12
 147              		.cfi_endproc
 148              	.LFE1157:
 150              		.section	.text.Wifi_WaitForString,"ax",%progbits
 151              		.align	1
 152              		.global	Wifi_WaitForString
 153              		.syntax unified
 154              		.thumb
 155              		.thumb_func
 156              		.fpu fpv4-sp-d16
 158              	Wifi_WaitForString:
 159              	.LVL12:
 160              	.LFB1158:
  33:Core/Src/esp32.c **** // ################################################################################################
  34:Core/Src/esp32.c **** bool Wifi_WaitForString(uint32_t TimeOut_ms, uint8_t *result, uint8_t CountOfParameter, ...)
  35:Core/Src/esp32.c **** {
 161              		.loc 1 35 1 is_stmt 1 view -0
 162              		.cfi_startproc
 163              		@ args = 4, pretend = 8, frame = 8
 164              		@ frame_needed = 1, uses_anonymous_args = 1
 165              		.loc 1 35 1 is_stmt 0 view .LVU29
 166 0000 0CB4     		push	{r2, r3}
 167              		.cfi_def_cfa_offset 8
 168              		.cfi_offset 2, -8
 169              		.cfi_offset 3, -4
 170 0002 2DE9F047 		push	{r4, r5, r6, r7, r8, r9, r10, lr}
 171              		.cfi_def_cfa_offset 40
 172              		.cfi_offset 4, -40
 173              		.cfi_offset 5, -36
 174              		.cfi_offset 6, -32
 175              		.cfi_offset 7, -28
 176              		.cfi_offset 8, -24
 177              		.cfi_offset 9, -20
 178              		.cfi_offset 10, -16
 179              		.cfi_offset 14, -12
 180 0006 82B0     		sub	sp, sp, #8
 181              		.cfi_def_cfa_offset 48
 182 0008 00AF     		add	r7, sp, #0
 183              		.cfi_def_cfa_register 7
 184 000a 97F82850 		ldrb	r5, [r7, #40]	@ zero_extendqisi2
  36:Core/Src/esp32.c ****     /*
  37:Core/Src/esp32.c ****      * It uses the CountOfParameter and the Parameters after that to compare with the
  38:Core/Src/esp32.c ****      * information that it was received in the UART RX. If the parameter is in the
  39:Core/Src/esp32.c ****      * received string the functions return a true value and the position of the
  40:Core/Src/esp32.c ****      * parameter (according to the position in the function)
  41:Core/Src/esp32.c ****      *
  42:Core/Src/esp32.c ****      * Ex:
  43:Core/Src/esp32.c ****      * Wifi_WaitForString(_WIFI_WAIT_TIME_LOW,&result,2,"OK","ERROR")
  44:Core/Src/esp32.c ****      *
ARM GAS  /var/folders/9y/n02fl3g16gnf7ppy14xghdy80000gn/T//ccqH5YoF.s 			page 5


  45:Core/Src/esp32.c ****      * If the ESP8266 return a AT+OK after the last command, the function is going to
  46:Core/Src/esp32.c ****      * return a true value and the result number would be 1.
  47:Core/Src/esp32.c ****      */
  48:Core/Src/esp32.c **** 
  49:Core/Src/esp32.c ****     if (result == NULL)
 185              		.loc 1 49 5 is_stmt 1 view .LVU30
 186              		.loc 1 49 8 is_stmt 0 view .LVU31
 187 000e 0029     		cmp	r1, #0
 188 0010 40D0     		beq	.L24
 189 0012 8146     		mov	r9, r0
 190 0014 8846     		mov	r8, r1
  50:Core/Src/esp32.c ****         return false;
  51:Core/Src/esp32.c ****     if (CountOfParameter == 0)
 191              		.loc 1 51 5 is_stmt 1 view .LVU32
 192              		.loc 1 51 8 is_stmt 0 view .LVU33
 193 0016 35B9     		cbnz	r5, .L27
  52:Core/Src/esp32.c ****         return false;
 194              		.loc 1 52 16 view .LVU34
 195 0018 0020     		movs	r0, #0
 196              	.LVL13:
 197              	.L16:
  53:Core/Src/esp32.c **** 
  54:Core/Src/esp32.c ****     *result = 0;
  55:Core/Src/esp32.c **** 
  56:Core/Src/esp32.c ****     va_list tag;
  57:Core/Src/esp32.c ****     va_start(tag, CountOfParameter);
  58:Core/Src/esp32.c ****     char *arg[CountOfParameter];
  59:Core/Src/esp32.c ****     for (uint8_t i = 0; i < CountOfParameter; i++)
  60:Core/Src/esp32.c ****         arg[i] = va_arg(tag, char *);
  61:Core/Src/esp32.c ****     va_end(tag);
  62:Core/Src/esp32.c **** 
  63:Core/Src/esp32.c ****     for (uint32_t t = 0; t < TimeOut_ms; t += 20)
  64:Core/Src/esp32.c ****     {
  65:Core/Src/esp32.c ****         delayMicroseconds(20000);
  66:Core/Src/esp32.c ****         for (uint8_t mx = 0; mx < CountOfParameter; mx++)
  67:Core/Src/esp32.c ****         {
  68:Core/Src/esp32.c ****             if (strstr((char *)Buffs.RxBuffer.buff, arg[mx]) != NULL)  // TODO change to lwrb_find(
  69:Core/Src/esp32.c ****             // if (strstr((char *)Buffs.RxBuffer.buff, arg[mx]) != NULL)
  70:Core/Src/esp32.c ****             {
  71:Core/Src/esp32.c ****                 *result = mx + 1;
  72:Core/Src/esp32.c ****                 return true;
  73:Core/Src/esp32.c ****             }
  74:Core/Src/esp32.c ****         }
  75:Core/Src/esp32.c ****     }
  76:Core/Src/esp32.c ****     // timeout
  77:Core/Src/esp32.c ****     return false;
  78:Core/Src/esp32.c **** }
 198              		.loc 1 78 1 view .LVU35
 199 001a 0837     		adds	r7, r7, #8
 200              		.cfi_remember_state
 201              		.cfi_def_cfa_offset 40
 202 001c BD46     		mov	sp, r7
 203              		.cfi_def_cfa_register 13
 204              		@ sp needed
 205 001e BDE8F047 		pop	{r4, r5, r6, r7, r8, r9, r10, lr}
 206              		.cfi_restore 14
 207              		.cfi_restore 10
ARM GAS  /var/folders/9y/n02fl3g16gnf7ppy14xghdy80000gn/T//ccqH5YoF.s 			page 6


 208              		.cfi_restore 9
 209              		.cfi_restore 8
 210              		.cfi_restore 7
 211              		.cfi_restore 6
 212              		.cfi_restore 5
 213              		.cfi_restore 4
 214              		.cfi_def_cfa_offset 8
 215 0022 02B0     		add	sp, sp, #8
 216              		.cfi_restore 3
 217              		.cfi_restore 2
 218              		.cfi_def_cfa_offset 0
 219 0024 7047     		bx	lr
 220              	.LVL14:
 221              	.L27:
 222              		.cfi_restore_state
  54:Core/Src/esp32.c **** 
 223              		.loc 1 54 5 is_stmt 1 view .LVU36
  54:Core/Src/esp32.c **** 
 224              		.loc 1 54 13 is_stmt 0 view .LVU37
 225 0026 0023     		movs	r3, #0
 226 0028 0B70     		strb	r3, [r1]
  56:Core/Src/esp32.c ****     va_start(tag, CountOfParameter);
 227              		.loc 1 56 5 is_stmt 1 view .LVU38
  57:Core/Src/esp32.c ****     char *arg[CountOfParameter];
 228              		.loc 1 57 5 view .LVU39
 229 002a 07F12C02 		add	r2, r7, #44
 230 002e 7A60     		str	r2, [r7, #4]
  58:Core/Src/esp32.c ****     for (uint8_t i = 0; i < CountOfParameter; i++)
 231              		.loc 1 58 5 view .LVU40
 232              	.LVL15:
  58:Core/Src/esp32.c ****     for (uint8_t i = 0; i < CountOfParameter; i++)
 233              		.loc 1 58 11 is_stmt 0 view .LVU41
 234 0030 AA00     		lsls	r2, r5, #2
 235 0032 0732     		adds	r2, r2, #7
 236 0034 02F4FF62 		and	r2, r2, #2040
 237 0038 ADEB020D 		sub	sp, sp, r2
 238 003c 6E46     		mov	r6, sp
 239              	.LVL16:
  59:Core/Src/esp32.c ****         arg[i] = va_arg(tag, char *);
 240              		.loc 1 59 5 is_stmt 1 view .LVU42
 241              	.LBB2:
  59:Core/Src/esp32.c ****         arg[i] = va_arg(tag, char *);
 242              		.loc 1 59 10 view .LVU43
 243              	.L17:
  59:Core/Src/esp32.c ****         arg[i] = va_arg(tag, char *);
 244              		.loc 1 59 25 discriminator 1 view .LVU44
  59:Core/Src/esp32.c ****         arg[i] = va_arg(tag, char *);
 245              		.loc 1 59 5 is_stmt 0 discriminator 1 view .LVU45
 246 003e AB42     		cmp	r3, r5
 247 0040 08D2     		bcs	.L28
  60:Core/Src/esp32.c ****     va_end(tag);
 248              		.loc 1 60 9 is_stmt 1 discriminator 3 view .LVU46
  60:Core/Src/esp32.c ****     va_end(tag);
 249              		.loc 1 60 18 is_stmt 0 discriminator 3 view .LVU47
 250 0042 7A68     		ldr	r2, [r7, #4]
 251 0044 111D     		adds	r1, r2, #4
 252 0046 7960     		str	r1, [r7, #4]
ARM GAS  /var/folders/9y/n02fl3g16gnf7ppy14xghdy80000gn/T//ccqH5YoF.s 			page 7


 253 0048 1268     		ldr	r2, [r2]
  60:Core/Src/esp32.c ****     va_end(tag);
 254              		.loc 1 60 16 discriminator 3 view .LVU48
 255 004a 46F82320 		str	r2, [r6, r3, lsl #2]
  59:Core/Src/esp32.c ****         arg[i] = va_arg(tag, char *);
 256              		.loc 1 59 47 is_stmt 1 discriminator 3 view .LVU49
  59:Core/Src/esp32.c ****         arg[i] = va_arg(tag, char *);
 257              		.loc 1 59 48 is_stmt 0 discriminator 3 view .LVU50
 258 004e 0133     		adds	r3, r3, #1
 259              	.LVL17:
  59:Core/Src/esp32.c ****         arg[i] = va_arg(tag, char *);
 260              		.loc 1 59 48 discriminator 3 view .LVU51
 261 0050 DBB2     		uxtb	r3, r3
 262              	.LVL18:
  59:Core/Src/esp32.c ****         arg[i] = va_arg(tag, char *);
 263              		.loc 1 59 48 discriminator 3 view .LVU52
 264 0052 F4E7     		b	.L17
 265              	.L28:
  59:Core/Src/esp32.c ****         arg[i] = va_arg(tag, char *);
 266              		.loc 1 59 48 discriminator 3 view .LVU53
 267              	.LBE2:
 268              	.LBB3:
  63:Core/Src/esp32.c ****     {
 269              		.loc 1 63 19 view .LVU54
 270 0054 4FF0000A 		mov	r10, #0
 271              	.LVL19:
 272              	.L19:
  63:Core/Src/esp32.c ****     {
 273              		.loc 1 63 26 is_stmt 1 discriminator 1 view .LVU55
  63:Core/Src/esp32.c ****     {
 274              		.loc 1 63 5 is_stmt 0 discriminator 1 view .LVU56
 275 0058 CA45     		cmp	r10, r9
 276 005a 19D2     		bcs	.L29
  65:Core/Src/esp32.c ****         for (uint8_t mx = 0; mx < CountOfParameter; mx++)
 277              		.loc 1 65 9 is_stmt 1 view .LVU57
 278 005c 44F62060 		movw	r0, #20000
 279 0060 FFF7FEFF 		bl	delayMicroseconds
 280              	.LVL20:
  66:Core/Src/esp32.c ****         {
 281              		.loc 1 66 9 view .LVU58
 282              	.LBB4:
  66:Core/Src/esp32.c ****         {
 283              		.loc 1 66 14 view .LVU59
  66:Core/Src/esp32.c ****         {
 284              		.loc 1 66 22 is_stmt 0 view .LVU60
 285 0064 0024     		movs	r4, #0
 286              	.LVL21:
 287              	.L20:
  66:Core/Src/esp32.c ****         {
 288              		.loc 1 66 30 is_stmt 1 discriminator 1 view .LVU61
  66:Core/Src/esp32.c ****         {
 289              		.loc 1 66 9 is_stmt 0 discriminator 1 view .LVU62
 290 0066 AC42     		cmp	r4, r5
 291 0068 0FD2     		bcs	.L30
  68:Core/Src/esp32.c ****             // if (strstr((char *)Buffs.RxBuffer.buff, arg[mx]) != NULL)
 292              		.loc 1 68 13 is_stmt 1 view .LVU63
  68:Core/Src/esp32.c ****             // if (strstr((char *)Buffs.RxBuffer.buff, arg[mx]) != NULL)
ARM GAS  /var/folders/9y/n02fl3g16gnf7ppy14xghdy80000gn/T//ccqH5YoF.s 			page 8


 293              		.loc 1 68 17 is_stmt 0 view .LVU64
 294 006a 56F82410 		ldr	r1, [r6, r4, lsl #2]
 295 006e 0A4B     		ldr	r3, .L32
 296 0070 D3F80008 		ldr	r0, [r3, #2048]
 297 0074 FFF7FEFF 		bl	strstr
 298              	.LVL22:
  68:Core/Src/esp32.c ****             // if (strstr((char *)Buffs.RxBuffer.buff, arg[mx]) != NULL)
 299              		.loc 1 68 16 view .LVU65
 300 0078 10B9     		cbnz	r0, .L31
  66:Core/Src/esp32.c ****         {
 301              		.loc 1 66 53 is_stmt 1 discriminator 2 view .LVU66
  66:Core/Src/esp32.c ****         {
 302              		.loc 1 66 55 is_stmt 0 discriminator 2 view .LVU67
 303 007a 0134     		adds	r4, r4, #1
 304              	.LVL23:
  66:Core/Src/esp32.c ****         {
 305              		.loc 1 66 55 discriminator 2 view .LVU68
 306 007c E4B2     		uxtb	r4, r4
 307              	.LVL24:
  66:Core/Src/esp32.c ****         {
 308              		.loc 1 66 55 discriminator 2 view .LVU69
 309 007e F2E7     		b	.L20
 310              	.L31:
  71:Core/Src/esp32.c ****                 return true;
 311              		.loc 1 71 17 is_stmt 1 view .LVU70
  71:Core/Src/esp32.c ****                 return true;
 312              		.loc 1 71 30 is_stmt 0 view .LVU71
 313 0080 0134     		adds	r4, r4, #1
 314              	.LVL25:
  71:Core/Src/esp32.c ****                 return true;
 315              		.loc 1 71 25 view .LVU72
 316 0082 88F80040 		strb	r4, [r8]
  72:Core/Src/esp32.c ****             }
 317              		.loc 1 72 17 is_stmt 1 view .LVU73
  72:Core/Src/esp32.c ****             }
 318              		.loc 1 72 24 is_stmt 0 view .LVU74
 319 0086 0120     		movs	r0, #1
 320 0088 C7E7     		b	.L16
 321              	.LVL26:
 322              	.L30:
  72:Core/Src/esp32.c ****             }
 323              		.loc 1 72 24 view .LVU75
 324              	.LBE4:
  63:Core/Src/esp32.c ****     {
 325              		.loc 1 63 42 is_stmt 1 discriminator 2 view .LVU76
  63:Core/Src/esp32.c ****     {
 326              		.loc 1 63 44 is_stmt 0 discriminator 2 view .LVU77
 327 008a 0AF1140A 		add	r10, r10, #20
 328              	.LVL27:
  63:Core/Src/esp32.c ****     {
 329              		.loc 1 63 44 discriminator 2 view .LVU78
 330 008e E3E7     		b	.L19
 331              	.LVL28:
 332              	.L29:
  63:Core/Src/esp32.c ****     {
 333              		.loc 1 63 44 discriminator 2 view .LVU79
 334              	.LBE3:
ARM GAS  /var/folders/9y/n02fl3g16gnf7ppy14xghdy80000gn/T//ccqH5YoF.s 			page 9


  77:Core/Src/esp32.c **** }
 335              		.loc 1 77 12 view .LVU80
 336 0090 0020     		movs	r0, #0
 337              	.LBB5:
 338 0092 C2E7     		b	.L16
 339              	.LVL29:
 340              	.L24:
  77:Core/Src/esp32.c **** }
 341              		.loc 1 77 12 view .LVU81
 342              	.LBE5:
  50:Core/Src/esp32.c ****     if (CountOfParameter == 0)
 343              		.loc 1 50 16 view .LVU82
 344 0094 0020     		movs	r0, #0
 345              	.LVL30:
  50:Core/Src/esp32.c ****     if (CountOfParameter == 0)
 346              		.loc 1 50 16 view .LVU83
 347 0096 C0E7     		b	.L16
 348              	.L33:
 349              		.align	2
 350              	.L32:
 351 0098 00000000 		.word	Buffs
 352              		.cfi_endproc
 353              	.LFE1158:
 355              		.section	.text.Wifi_ReturnString,"ax",%progbits
 356              		.align	1
 357              		.global	Wifi_ReturnString
 358              		.syntax unified
 359              		.thumb
 360              		.thumb_func
 361              		.fpu fpv4-sp-d16
 363              	Wifi_ReturnString:
 364              	.LVL31:
 365              	.LFB1159:
  79:Core/Src/esp32.c **** // ################################################################################################
  80:Core/Src/esp32.c **** bool Wifi_ReturnString(char *result, uint8_t WantWhichOne, char *SplitterChars)
  81:Core/Src/esp32.c **** {
 366              		.loc 1 81 1 is_stmt 1 view -0
 367              		.cfi_startproc
 368              		@ args = 0, pretend = 0, frame = 0
 369              		@ frame_needed = 0, uses_anonymous_args = 0
  82:Core/Src/esp32.c ****     if (result == NULL)
 370              		.loc 1 82 5 view .LVU85
 371              		.loc 1 82 8 is_stmt 0 view .LVU86
 372 0000 20B3     		cbz	r0, .L39
  81:Core/Src/esp32.c ****     if (result == NULL)
 373              		.loc 1 81 1 view .LVU87
 374 0002 70B5     		push	{r4, r5, r6, lr}
 375              		.cfi_def_cfa_offset 16
 376              		.cfi_offset 4, -16
 377              		.cfi_offset 5, -12
 378              		.cfi_offset 6, -8
 379              		.cfi_offset 14, -4
 380 0004 0C46     		mov	r4, r1
 381 0006 1546     		mov	r5, r2
 382 0008 0646     		mov	r6, r0
  83:Core/Src/esp32.c ****         return false;
  84:Core/Src/esp32.c ****     if (WantWhichOne == 0)
ARM GAS  /var/folders/9y/n02fl3g16gnf7ppy14xghdy80000gn/T//ccqH5YoF.s 			page 10


 383              		.loc 1 84 5 is_stmt 1 view .LVU88
 384              		.loc 1 84 8 is_stmt 0 view .LVU89
 385 000a 09B9     		cbnz	r1, .L45
  85:Core/Src/esp32.c ****         return false;
 386              		.loc 1 85 16 view .LVU90
 387 000c 0020     		movs	r0, #0
 388              	.LVL32:
 389              	.L35:
  86:Core/Src/esp32.c **** 
  87:Core/Src/esp32.c ****     char *str = (char *)Buffs.RxBuffer.buff;
  88:Core/Src/esp32.c **** 
  89:Core/Src/esp32.c ****     str = strtok(str, SplitterChars);
  90:Core/Src/esp32.c ****     if (str == NULL)
  91:Core/Src/esp32.c ****     {
  92:Core/Src/esp32.c ****         strcpy(result, "");
  93:Core/Src/esp32.c ****         return false;
  94:Core/Src/esp32.c ****     }
  95:Core/Src/esp32.c ****     while (str != NULL)
  96:Core/Src/esp32.c ****     {
  97:Core/Src/esp32.c ****         str = strtok(NULL, SplitterChars);
  98:Core/Src/esp32.c ****         if (str != NULL)
  99:Core/Src/esp32.c ****             WantWhichOne--;
 100:Core/Src/esp32.c ****         if (WantWhichOne == 0)
 101:Core/Src/esp32.c ****         {
 102:Core/Src/esp32.c ****             strcpy(result, str);
 103:Core/Src/esp32.c ****             return true;
 104:Core/Src/esp32.c ****         }
 105:Core/Src/esp32.c ****     }
 106:Core/Src/esp32.c ****     strcpy(result, "");
 107:Core/Src/esp32.c ****     return false;
 108:Core/Src/esp32.c **** }
 390              		.loc 1 108 1 view .LVU91
 391 000e 70BD     		pop	{r4, r5, r6, pc}
 392              	.LVL33:
 393              	.L45:
  87:Core/Src/esp32.c **** 
 394              		.loc 1 87 5 is_stmt 1 view .LVU92
  89:Core/Src/esp32.c ****     if (str == NULL)
 395              		.loc 1 89 5 view .LVU93
  89:Core/Src/esp32.c ****     if (str == NULL)
 396              		.loc 1 89 11 is_stmt 0 view .LVU94
 397 0010 1146     		mov	r1, r2
 398              	.LVL34:
  89:Core/Src/esp32.c ****     if (str == NULL)
 399              		.loc 1 89 11 view .LVU95
 400 0012 0F4B     		ldr	r3, .L48
 401 0014 D3F80008 		ldr	r0, [r3, #2048]
 402              	.LVL35:
  89:Core/Src/esp32.c ****     if (str == NULL)
 403              		.loc 1 89 11 view .LVU96
 404 0018 FFF7FEFF 		bl	strtok
 405              	.LVL36:
  90:Core/Src/esp32.c ****     {
 406              		.loc 1 90 5 is_stmt 1 view .LVU97
  90:Core/Src/esp32.c ****     {
 407              		.loc 1 90 8 is_stmt 0 view .LVU98
 408 001c 0146     		mov	r1, r0
ARM GAS  /var/folders/9y/n02fl3g16gnf7ppy14xghdy80000gn/T//ccqH5YoF.s 			page 11


 409 001e 10B9     		cbnz	r0, .L36
  92:Core/Src/esp32.c ****         return false;
 410              		.loc 1 92 9 is_stmt 1 view .LVU99
 411 0020 3070     		strb	r0, [r6]
  93:Core/Src/esp32.c ****     }
 412              		.loc 1 93 9 view .LVU100
  93:Core/Src/esp32.c ****     }
 413              		.loc 1 93 16 is_stmt 0 view .LVU101
 414 0022 F4E7     		b	.L35
 415              	.LVL37:
 416              	.L37:
 100:Core/Src/esp32.c ****         {
 417              		.loc 1 100 9 is_stmt 1 view .LVU102
 100:Core/Src/esp32.c ****         {
 418              		.loc 1 100 12 is_stmt 0 view .LVU103
 419 0024 54B1     		cbz	r4, .L46
 420              	.LVL38:
 421              	.L36:
  95:Core/Src/esp32.c ****     {
 422              		.loc 1 95 11 is_stmt 1 view .LVU104
 423 0026 71B1     		cbz	r1, .L47
  97:Core/Src/esp32.c ****         if (str != NULL)
 424              		.loc 1 97 9 view .LVU105
  97:Core/Src/esp32.c ****         if (str != NULL)
 425              		.loc 1 97 15 is_stmt 0 view .LVU106
 426 0028 2946     		mov	r1, r5
 427 002a 0020     		movs	r0, #0
 428              	.LVL39:
  97:Core/Src/esp32.c ****         if (str != NULL)
 429              		.loc 1 97 15 view .LVU107
 430 002c FFF7FEFF 		bl	strtok
 431              	.LVL40:
  98:Core/Src/esp32.c ****             WantWhichOne--;
 432              		.loc 1 98 9 is_stmt 1 view .LVU108
  98:Core/Src/esp32.c ****             WantWhichOne--;
 433              		.loc 1 98 12 is_stmt 0 view .LVU109
 434 0030 0146     		mov	r1, r0
 435 0032 0028     		cmp	r0, #0
 436 0034 F6D0     		beq	.L37
  99:Core/Src/esp32.c ****         if (WantWhichOne == 0)
 437              		.loc 1 99 13 is_stmt 1 view .LVU110
  99:Core/Src/esp32.c ****         if (WantWhichOne == 0)
 438              		.loc 1 99 25 is_stmt 0 view .LVU111
 439 0036 013C     		subs	r4, r4, #1
 440              	.LVL41:
  99:Core/Src/esp32.c ****         if (WantWhichOne == 0)
 441              		.loc 1 99 25 view .LVU112
 442 0038 E4B2     		uxtb	r4, r4
 443              	.LVL42:
  99:Core/Src/esp32.c ****         if (WantWhichOne == 0)
 444              		.loc 1 99 25 view .LVU113
 445 003a F3E7     		b	.L37
 446              	.L46:
 102:Core/Src/esp32.c ****             return true;
 447              		.loc 1 102 13 is_stmt 1 view .LVU114
 448 003c 3046     		mov	r0, r6
 449              	.LVL43:
ARM GAS  /var/folders/9y/n02fl3g16gnf7ppy14xghdy80000gn/T//ccqH5YoF.s 			page 12


 102:Core/Src/esp32.c ****             return true;
 450              		.loc 1 102 13 is_stmt 0 view .LVU115
 451 003e FFF7FEFF 		bl	strcpy
 452              	.LVL44:
 103:Core/Src/esp32.c ****         }
 453              		.loc 1 103 13 is_stmt 1 view .LVU116
 103:Core/Src/esp32.c ****         }
 454              		.loc 1 103 20 is_stmt 0 view .LVU117
 455 0042 0120     		movs	r0, #1
 456 0044 E3E7     		b	.L35
 457              	.LVL45:
 458              	.L47:
 106:Core/Src/esp32.c ****     return false;
 459              		.loc 1 106 5 is_stmt 1 view .LVU118
 460 0046 0020     		movs	r0, #0
 461              	.LVL46:
 106:Core/Src/esp32.c ****     return false;
 462              		.loc 1 106 5 is_stmt 0 view .LVU119
 463 0048 3070     		strb	r0, [r6]
 107:Core/Src/esp32.c **** }
 464              		.loc 1 107 5 is_stmt 1 view .LVU120
 107:Core/Src/esp32.c **** }
 465              		.loc 1 107 12 is_stmt 0 view .LVU121
 466 004a E0E7     		b	.L35
 467              	.LVL47:
 468              	.L39:
 469              		.cfi_def_cfa_offset 0
 470              		.cfi_restore 4
 471              		.cfi_restore 5
 472              		.cfi_restore 6
 473              		.cfi_restore 14
  83:Core/Src/esp32.c ****     if (WantWhichOne == 0)
 474              		.loc 1 83 16 view .LVU122
 475 004c 0020     		movs	r0, #0
 476              	.LVL48:
 477              		.loc 1 108 1 view .LVU123
 478 004e 7047     		bx	lr
 479              	.L49:
 480              		.align	2
 481              	.L48:
 482 0050 00000000 		.word	Buffs
 483              		.cfi_endproc
 484              	.LFE1159:
 486              		.section	.text.Wifi_ReturnStrings,"ax",%progbits
 487              		.align	1
 488              		.global	Wifi_ReturnStrings
 489              		.syntax unified
 490              		.thumb
 491              		.thumb_func
 492              		.fpu fpv4-sp-d16
 494              	Wifi_ReturnStrings:
 495              	.LVL49:
 496              	.LFB1160:
 109:Core/Src/esp32.c **** // ################################################################################################
 110:Core/Src/esp32.c **** bool Wifi_ReturnStrings(char *InputString, char *SplitterChars, uint8_t CountOfParameter, ...)
 111:Core/Src/esp32.c **** {
 497              		.loc 1 111 1 is_stmt 1 view -0
ARM GAS  /var/folders/9y/n02fl3g16gnf7ppy14xghdy80000gn/T//ccqH5YoF.s 			page 13


 498              		.cfi_startproc
 499              		@ args = 4, pretend = 8, frame = 8
 500              		@ frame_needed = 1, uses_anonymous_args = 1
 501              		.loc 1 111 1 is_stmt 0 view .LVU125
 502 0000 0CB4     		push	{r2, r3}
 503              		.cfi_def_cfa_offset 8
 504              		.cfi_offset 2, -8
 505              		.cfi_offset 3, -4
 506 0002 2DE9F043 		push	{r4, r5, r6, r7, r8, r9, lr}
 507              		.cfi_def_cfa_offset 36
 508              		.cfi_offset 4, -36
 509              		.cfi_offset 5, -32
 510              		.cfi_offset 6, -28
 511              		.cfi_offset 7, -24
 512              		.cfi_offset 8, -20
 513              		.cfi_offset 9, -16
 514              		.cfi_offset 14, -12
 515 0006 83B0     		sub	sp, sp, #12
 516              		.cfi_def_cfa_offset 48
 517 0008 00AF     		add	r7, sp, #0
 518              		.cfi_def_cfa_register 7
 519 000a 97F82840 		ldrb	r4, [r7, #40]	@ zero_extendqisi2
 112:Core/Src/esp32.c ****     if (CountOfParameter == 0)
 520              		.loc 1 112 5 is_stmt 1 view .LVU126
 521              		.loc 1 112 8 is_stmt 0 view .LVU127
 522 000e 34B9     		cbnz	r4, .L61
 113:Core/Src/esp32.c ****         return false;
 523              		.loc 1 113 16 view .LVU128
 524 0010 0020     		movs	r0, #0
 525              	.LVL50:
 526              	.L51:
 114:Core/Src/esp32.c ****     va_list tag;
 115:Core/Src/esp32.c ****     va_start(tag, CountOfParameter);
 116:Core/Src/esp32.c ****     char *arg[CountOfParameter];
 117:Core/Src/esp32.c ****     for (uint8_t i = 0; i < CountOfParameter; i++)
 118:Core/Src/esp32.c ****         arg[i] = va_arg(tag, char *);
 119:Core/Src/esp32.c ****     va_end(tag);
 120:Core/Src/esp32.c **** 
 121:Core/Src/esp32.c ****     char *str;
 122:Core/Src/esp32.c ****     str = strtok(InputString, SplitterChars);
 123:Core/Src/esp32.c ****     if (str == NULL)
 124:Core/Src/esp32.c ****         return false;
 125:Core/Src/esp32.c ****     uint8_t i = 0;
 126:Core/Src/esp32.c ****     while (str != NULL)
 127:Core/Src/esp32.c ****     {
 128:Core/Src/esp32.c ****         str = strtok(NULL, SplitterChars);
 129:Core/Src/esp32.c ****         if (str != NULL)
 130:Core/Src/esp32.c ****             CountOfParameter--;
 131:Core/Src/esp32.c ****         strcpy(arg[i], str);
 132:Core/Src/esp32.c ****         i++;
 133:Core/Src/esp32.c ****         if (CountOfParameter == 0)
 134:Core/Src/esp32.c ****         {
 135:Core/Src/esp32.c ****             return true;
 136:Core/Src/esp32.c ****         }
 137:Core/Src/esp32.c ****     }
 138:Core/Src/esp32.c ****     return false;
 139:Core/Src/esp32.c **** }
ARM GAS  /var/folders/9y/n02fl3g16gnf7ppy14xghdy80000gn/T//ccqH5YoF.s 			page 14


 527              		.loc 1 139 1 view .LVU129
 528 0012 0C37     		adds	r7, r7, #12
 529              		.cfi_remember_state
 530              		.cfi_def_cfa_offset 36
 531 0014 BD46     		mov	sp, r7
 532              		.cfi_def_cfa_register 13
 533              		@ sp needed
 534 0016 BDE8F043 		pop	{r4, r5, r6, r7, r8, r9, lr}
 535              		.cfi_restore 14
 536              		.cfi_restore 9
 537              		.cfi_restore 8
 538              		.cfi_restore 7
 539              		.cfi_restore 6
 540              		.cfi_restore 5
 541              		.cfi_restore 4
 542              		.cfi_def_cfa_offset 8
 543 001a 02B0     		add	sp, sp, #8
 544              		.cfi_restore 3
 545              		.cfi_restore 2
 546              		.cfi_def_cfa_offset 0
 547 001c 7047     		bx	lr
 548              	.LVL51:
 549              	.L61:
 550              		.cfi_restore_state
 551              		.loc 1 139 1 view .LVU130
 552 001e 8846     		mov	r8, r1
 114:Core/Src/esp32.c ****     va_list tag;
 553              		.loc 1 114 5 is_stmt 1 view .LVU131
 115:Core/Src/esp32.c ****     char *arg[CountOfParameter];
 554              		.loc 1 115 5 view .LVU132
 555 0020 07F12C03 		add	r3, r7, #44
 556 0024 7B60     		str	r3, [r7, #4]
 116:Core/Src/esp32.c ****     for (uint8_t i = 0; i < CountOfParameter; i++)
 557              		.loc 1 116 5 view .LVU133
 558              	.LVL52:
 116:Core/Src/esp32.c ****     for (uint8_t i = 0; i < CountOfParameter; i++)
 559              		.loc 1 116 11 is_stmt 0 view .LVU134
 560 0026 A300     		lsls	r3, r4, #2
 561 0028 0733     		adds	r3, r3, #7
 562 002a 03F4FF63 		and	r3, r3, #2040
 563 002e ADEB030D 		sub	sp, sp, r3
 564 0032 6E46     		mov	r6, sp
 565              	.LVL53:
 117:Core/Src/esp32.c ****         arg[i] = va_arg(tag, char *);
 566              		.loc 1 117 5 is_stmt 1 view .LVU135
 567              	.LBB6:
 117:Core/Src/esp32.c ****         arg[i] = va_arg(tag, char *);
 568              		.loc 1 117 10 view .LVU136
 117:Core/Src/esp32.c ****         arg[i] = va_arg(tag, char *);
 569              		.loc 1 117 18 is_stmt 0 view .LVU137
 570 0034 0023     		movs	r3, #0
 117:Core/Src/esp32.c ****         arg[i] = va_arg(tag, char *);
 571              		.loc 1 117 5 view .LVU138
 572 0036 07E0     		b	.L52
 573              	.LVL54:
 574              	.L53:
 118:Core/Src/esp32.c ****     va_end(tag);
ARM GAS  /var/folders/9y/n02fl3g16gnf7ppy14xghdy80000gn/T//ccqH5YoF.s 			page 15


 575              		.loc 1 118 9 is_stmt 1 discriminator 3 view .LVU139
 118:Core/Src/esp32.c ****     va_end(tag);
 576              		.loc 1 118 18 is_stmt 0 discriminator 3 view .LVU140
 577 0038 7A68     		ldr	r2, [r7, #4]
 578 003a 111D     		adds	r1, r2, #4
 579 003c 7960     		str	r1, [r7, #4]
 580 003e 1268     		ldr	r2, [r2]
 118:Core/Src/esp32.c ****     va_end(tag);
 581              		.loc 1 118 16 discriminator 3 view .LVU141
 582 0040 46F82320 		str	r2, [r6, r3, lsl #2]
 117:Core/Src/esp32.c ****         arg[i] = va_arg(tag, char *);
 583              		.loc 1 117 47 is_stmt 1 discriminator 3 view .LVU142
 117:Core/Src/esp32.c ****         arg[i] = va_arg(tag, char *);
 584              		.loc 1 117 48 is_stmt 0 discriminator 3 view .LVU143
 585 0044 0133     		adds	r3, r3, #1
 586              	.LVL55:
 117:Core/Src/esp32.c ****         arg[i] = va_arg(tag, char *);
 587              		.loc 1 117 48 discriminator 3 view .LVU144
 588 0046 DBB2     		uxtb	r3, r3
 589              	.LVL56:
 590              	.L52:
 117:Core/Src/esp32.c ****         arg[i] = va_arg(tag, char *);
 591              		.loc 1 117 25 is_stmt 1 discriminator 1 view .LVU145
 117:Core/Src/esp32.c ****         arg[i] = va_arg(tag, char *);
 592              		.loc 1 117 5 is_stmt 0 discriminator 1 view .LVU146
 593 0048 A342     		cmp	r3, r4
 594 004a F5D3     		bcc	.L53
 595              	.LBE6:
 119:Core/Src/esp32.c **** 
 596              		.loc 1 119 5 is_stmt 1 view .LVU147
 121:Core/Src/esp32.c ****     str = strtok(InputString, SplitterChars);
 597              		.loc 1 121 5 view .LVU148
 122:Core/Src/esp32.c ****     if (str == NULL)
 598              		.loc 1 122 5 view .LVU149
 122:Core/Src/esp32.c ****     if (str == NULL)
 599              		.loc 1 122 11 is_stmt 0 view .LVU150
 600 004c 4146     		mov	r1, r8
 601 004e FFF7FEFF 		bl	strtok
 602              	.LVL57:
 123:Core/Src/esp32.c ****         return false;
 603              		.loc 1 123 5 is_stmt 1 view .LVU151
 123:Core/Src/esp32.c ****         return false;
 604              		.loc 1 123 8 is_stmt 0 view .LVU152
 605 0052 8146     		mov	r9, r0
 606 0054 C0B1     		cbz	r0, .L58
 125:Core/Src/esp32.c ****     while (str != NULL)
 607              		.loc 1 125 13 view .LVU153
 608 0056 0025     		movs	r5, #0
 609 0058 07E0     		b	.L54
 610              	.LVL58:
 611              	.L55:
 131:Core/Src/esp32.c ****         i++;
 612              		.loc 1 131 9 is_stmt 1 view .LVU154
 613 005a 4946     		mov	r1, r9
 614 005c 56F82500 		ldr	r0, [r6, r5, lsl #2]
 615              	.LVL59:
 131:Core/Src/esp32.c ****         i++;
ARM GAS  /var/folders/9y/n02fl3g16gnf7ppy14xghdy80000gn/T//ccqH5YoF.s 			page 16


 616              		.loc 1 131 9 is_stmt 0 view .LVU155
 617 0060 FFF7FEFF 		bl	strcpy
 618              	.LVL60:
 132:Core/Src/esp32.c ****         if (CountOfParameter == 0)
 619              		.loc 1 132 9 is_stmt 1 view .LVU156
 132:Core/Src/esp32.c ****         if (CountOfParameter == 0)
 620              		.loc 1 132 10 is_stmt 0 view .LVU157
 621 0064 0135     		adds	r5, r5, #1
 622              	.LVL61:
 132:Core/Src/esp32.c ****         if (CountOfParameter == 0)
 623              		.loc 1 132 10 view .LVU158
 624 0066 EDB2     		uxtb	r5, r5
 625              	.LVL62:
 133:Core/Src/esp32.c ****         {
 626              		.loc 1 133 9 is_stmt 1 view .LVU159
 133:Core/Src/esp32.c ****         {
 627              		.loc 1 133 12 is_stmt 0 view .LVU160
 628 0068 84B1     		cbz	r4, .L59
 629              	.LVL63:
 630              	.L54:
 126:Core/Src/esp32.c ****     {
 631              		.loc 1 126 11 is_stmt 1 view .LVU161
 632 006a B9F1000F 		cmp	r9, #0
 633 006e 09D0     		beq	.L62
 128:Core/Src/esp32.c ****         if (str != NULL)
 634              		.loc 1 128 9 view .LVU162
 128:Core/Src/esp32.c ****         if (str != NULL)
 635              		.loc 1 128 15 is_stmt 0 view .LVU163
 636 0070 4146     		mov	r1, r8
 637 0072 0020     		movs	r0, #0
 638 0074 FFF7FEFF 		bl	strtok
 639              	.LVL64:
 129:Core/Src/esp32.c ****             CountOfParameter--;
 640              		.loc 1 129 9 is_stmt 1 view .LVU164
 129:Core/Src/esp32.c ****             CountOfParameter--;
 641              		.loc 1 129 12 is_stmt 0 view .LVU165
 642 0078 8146     		mov	r9, r0
 643 007a 0028     		cmp	r0, #0
 644 007c EDD0     		beq	.L55
 130:Core/Src/esp32.c ****         strcpy(arg[i], str);
 645              		.loc 1 130 13 is_stmt 1 view .LVU166
 130:Core/Src/esp32.c ****         strcpy(arg[i], str);
 646              		.loc 1 130 29 is_stmt 0 view .LVU167
 647 007e 013C     		subs	r4, r4, #1
 648              	.LVL65:
 130:Core/Src/esp32.c ****         strcpy(arg[i], str);
 649              		.loc 1 130 29 view .LVU168
 650 0080 E4B2     		uxtb	r4, r4
 651              	.LVL66:
 130:Core/Src/esp32.c ****         strcpy(arg[i], str);
 652              		.loc 1 130 29 view .LVU169
 653 0082 EAE7     		b	.L55
 654              	.LVL67:
 655              	.L62:
 138:Core/Src/esp32.c **** }
 656              		.loc 1 138 12 view .LVU170
 657 0084 0020     		movs	r0, #0
ARM GAS  /var/folders/9y/n02fl3g16gnf7ppy14xghdy80000gn/T//ccqH5YoF.s 			page 17


 658 0086 C4E7     		b	.L51
 659              	.LVL68:
 660              	.L58:
 124:Core/Src/esp32.c ****     uint8_t i = 0;
 661              		.loc 1 124 16 view .LVU171
 662 0088 0020     		movs	r0, #0
 663              	.LVL69:
 124:Core/Src/esp32.c ****     uint8_t i = 0;
 664              		.loc 1 124 16 view .LVU172
 665 008a C2E7     		b	.L51
 666              	.LVL70:
 667              	.L59:
 135:Core/Src/esp32.c ****         }
 668              		.loc 1 135 20 view .LVU173
 669 008c 0120     		movs	r0, #1
 670 008e C0E7     		b	.L51
 671              		.cfi_endproc
 672              	.LFE1160:
 674              		.section	.text.Wifi_ReturnInteger,"ax",%progbits
 675              		.align	1
 676              		.global	Wifi_ReturnInteger
 677              		.syntax unified
 678              		.thumb
 679              		.thumb_func
 680              		.fpu fpv4-sp-d16
 682              	Wifi_ReturnInteger:
 683              	.LVL71:
 684              	.LFB1161:
 140:Core/Src/esp32.c **** // ################################################################################################
 141:Core/Src/esp32.c **** bool Wifi_ReturnInteger(int32_t *result, uint8_t WantWhichOne, char *SplitterChars)
 142:Core/Src/esp32.c **** {
 685              		.loc 1 142 1 is_stmt 1 view -0
 686              		.cfi_startproc
 687              		@ args = 0, pretend = 0, frame = 0
 688              		@ frame_needed = 0, uses_anonymous_args = 0
 689              		.loc 1 142 1 is_stmt 0 view .LVU175
 690 0000 38B5     		push	{r3, r4, r5, lr}
 691              		.cfi_def_cfa_offset 16
 692              		.cfi_offset 3, -16
 693              		.cfi_offset 4, -12
 694              		.cfi_offset 5, -8
 695              		.cfi_offset 14, -4
 696 0002 0446     		mov	r4, r0
 143:Core/Src/esp32.c ****     if ((char *)Buffs.RxBuffer.buff == NULL)
 697              		.loc 1 143 5 is_stmt 1 view .LVU176
 698              		.loc 1 143 31 is_stmt 0 view .LVU177
 699 0004 094B     		ldr	r3, .L68
 700 0006 D3F80008 		ldr	r0, [r3, #2048]
 701              	.LVL72:
 702              		.loc 1 143 8 view .LVU178
 703 000a 60B1     		cbz	r0, .L65
 144:Core/Src/esp32.c ****         return false;
 145:Core/Src/esp32.c ****     if (Wifi_ReturnString((char *)Buffs.RxBuffer.buff, WantWhichOne, SplitterChars) == false)
 704              		.loc 1 145 5 is_stmt 1 view .LVU179
 705              		.loc 1 145 9 is_stmt 0 view .LVU180
 706 000c FFF7FEFF 		bl	Wifi_ReturnString
 707              	.LVL73:
ARM GAS  /var/folders/9y/n02fl3g16gnf7ppy14xghdy80000gn/T//ccqH5YoF.s 			page 18


 708              		.loc 1 145 8 view .LVU181
 709 0010 0546     		mov	r5, r0
 710 0012 08B9     		cbnz	r0, .L67
 711              	.L64:
 146:Core/Src/esp32.c ****         return false;
 147:Core/Src/esp32.c ****     *result = atoi((char *)Buffs.RxBuffer.buff);
 148:Core/Src/esp32.c ****     return true;
 149:Core/Src/esp32.c **** }
 712              		.loc 1 149 1 view .LVU182
 713 0014 2846     		mov	r0, r5
 714 0016 38BD     		pop	{r3, r4, r5, pc}
 715              	.LVL74:
 716              	.L67:
 147:Core/Src/esp32.c ****     return true;
 717              		.loc 1 147 5 is_stmt 1 view .LVU183
 147:Core/Src/esp32.c ****     return true;
 718              		.loc 1 147 15 is_stmt 0 view .LVU184
 719 0018 044B     		ldr	r3, .L68
 720 001a D3F80008 		ldr	r0, [r3, #2048]
 721 001e FFF7FEFF 		bl	atoi
 722              	.LVL75:
 147:Core/Src/esp32.c ****     return true;
 723              		.loc 1 147 13 view .LVU185
 724 0022 2060     		str	r0, [r4]
 148:Core/Src/esp32.c **** }
 725              		.loc 1 148 5 is_stmt 1 view .LVU186
 148:Core/Src/esp32.c **** }
 726              		.loc 1 148 12 is_stmt 0 view .LVU187
 727 0024 F6E7     		b	.L64
 728              	.LVL76:
 729              	.L65:
 144:Core/Src/esp32.c ****     if (Wifi_ReturnString((char *)Buffs.RxBuffer.buff, WantWhichOne, SplitterChars) == false)
 730              		.loc 1 144 16 view .LVU188
 731 0026 0025     		movs	r5, #0
 732 0028 F4E7     		b	.L64
 733              	.L69:
 734 002a 00BF     		.align	2
 735              	.L68:
 736 002c 00000000 		.word	Buffs
 737              		.cfi_endproc
 738              	.LFE1161:
 740              		.global	__aeabi_d2f
 741              		.section	.text.Wifi_ReturnFloat,"ax",%progbits
 742              		.align	1
 743              		.global	Wifi_ReturnFloat
 744              		.syntax unified
 745              		.thumb
 746              		.thumb_func
 747              		.fpu fpv4-sp-d16
 749              	Wifi_ReturnFloat:
 750              	.LVL77:
 751              	.LFB1162:
 150:Core/Src/esp32.c **** // ################################################################################################
 151:Core/Src/esp32.c **** 
 152:Core/Src/esp32.c **** bool Wifi_ReturnFloat(float *result, uint8_t WantWhichOne, char *SplitterChars)
 153:Core/Src/esp32.c **** {
 752              		.loc 1 153 1 is_stmt 1 view -0
ARM GAS  /var/folders/9y/n02fl3g16gnf7ppy14xghdy80000gn/T//ccqH5YoF.s 			page 19


 753              		.cfi_startproc
 754              		@ args = 0, pretend = 0, frame = 0
 755              		@ frame_needed = 0, uses_anonymous_args = 0
 756              		.loc 1 153 1 is_stmt 0 view .LVU190
 757 0000 38B5     		push	{r3, r4, r5, lr}
 758              		.cfi_def_cfa_offset 16
 759              		.cfi_offset 3, -16
 760              		.cfi_offset 4, -12
 761              		.cfi_offset 5, -8
 762              		.cfi_offset 14, -4
 763 0002 0446     		mov	r4, r0
 154:Core/Src/esp32.c ****     if ((char *)Buffs.RxBuffer.buff == NULL)
 764              		.loc 1 154 5 is_stmt 1 view .LVU191
 765              		.loc 1 154 31 is_stmt 0 view .LVU192
 766 0004 0B4B     		ldr	r3, .L75
 767 0006 D3F80008 		ldr	r0, [r3, #2048]
 768              	.LVL78:
 769              		.loc 1 154 8 view .LVU193
 770 000a 80B1     		cbz	r0, .L72
 155:Core/Src/esp32.c ****         return false;
 156:Core/Src/esp32.c ****     if (Wifi_ReturnString((char *)Buffs.RxBuffer.buff, WantWhichOne, SplitterChars) == false)
 771              		.loc 1 156 5 is_stmt 1 view .LVU194
 772              		.loc 1 156 9 is_stmt 0 view .LVU195
 773 000c FFF7FEFF 		bl	Wifi_ReturnString
 774              	.LVL79:
 775              		.loc 1 156 8 view .LVU196
 776 0010 0546     		mov	r5, r0
 777 0012 08B9     		cbnz	r0, .L74
 778              	.L71:
 157:Core/Src/esp32.c ****         return false;
 158:Core/Src/esp32.c ****     *result = atof((char *)Buffs.RxBuffer.buff);
 159:Core/Src/esp32.c ****     return true;
 160:Core/Src/esp32.c **** }
 779              		.loc 1 160 1 view .LVU197
 780 0014 2846     		mov	r0, r5
 781 0016 38BD     		pop	{r3, r4, r5, pc}
 782              	.LVL80:
 783              	.L74:
 158:Core/Src/esp32.c ****     return true;
 784              		.loc 1 158 5 is_stmt 1 view .LVU198
 158:Core/Src/esp32.c ****     return true;
 785              		.loc 1 158 15 is_stmt 0 view .LVU199
 786 0018 064B     		ldr	r3, .L75
 787 001a D3F80008 		ldr	r0, [r3, #2048]
 788 001e FFF7FEFF 		bl	atof
 789              	.LVL81:
 790 0022 51EC100B 		vmov	r0, r1, d0
 791 0026 FFF7FEFF 		bl	__aeabi_d2f
 792              	.LVL82:
 158:Core/Src/esp32.c ****     return true;
 793              		.loc 1 158 13 view .LVU200
 794 002a 2060     		str	r0, [r4]	@ float
 159:Core/Src/esp32.c **** }
 795              		.loc 1 159 5 is_stmt 1 view .LVU201
 159:Core/Src/esp32.c **** }
 796              		.loc 1 159 12 is_stmt 0 view .LVU202
 797 002c F2E7     		b	.L71
ARM GAS  /var/folders/9y/n02fl3g16gnf7ppy14xghdy80000gn/T//ccqH5YoF.s 			page 20


 798              	.LVL83:
 799              	.L72:
 155:Core/Src/esp32.c ****     if (Wifi_ReturnString((char *)Buffs.RxBuffer.buff, WantWhichOne, SplitterChars) == false)
 800              		.loc 1 155 16 view .LVU203
 801 002e 0025     		movs	r5, #0
 802 0030 F0E7     		b	.L71
 803              	.L76:
 804 0032 00BF     		.align	2
 805              	.L75:
 806 0034 00000000 		.word	Buffs
 807              		.cfi_endproc
 808              	.LFE1162:
 810              		.section	.text.Wifi_RemoveChar,"ax",%progbits
 811              		.align	1
 812              		.global	Wifi_RemoveChar
 813              		.syntax unified
 814              		.thumb
 815              		.thumb_func
 816              		.fpu fpv4-sp-d16
 818              	Wifi_RemoveChar:
 819              	.LVL84:
 820              	.LFB1163:
 161:Core/Src/esp32.c **** // ################################################################################################
 162:Core/Src/esp32.c **** void Wifi_RemoveChar(char *str, char garbage)
 163:Core/Src/esp32.c **** {
 821              		.loc 1 163 1 is_stmt 1 view -0
 822              		.cfi_startproc
 823              		@ args = 0, pretend = 0, frame = 0
 824              		@ frame_needed = 0, uses_anonymous_args = 0
 825              		@ link register save eliminated.
 164:Core/Src/esp32.c ****     char *src, *dst;
 826              		.loc 1 164 5 view .LVU205
 165:Core/Src/esp32.c ****     for (src = dst = str; *src != '\0'; src++)
 827              		.loc 1 165 5 view .LVU206
 828              		.loc 1 165 20 is_stmt 0 view .LVU207
 829 0000 0246     		mov	r2, r0
 830              		.loc 1 165 5 view .LVU208
 831 0002 00E0     		b	.L78
 832              	.LVL85:
 833              	.L79:
 834              		.loc 1 165 41 is_stmt 1 discriminator 2 view .LVU209
 835              		.loc 1 165 44 is_stmt 0 discriminator 2 view .LVU210
 836 0004 0130     		adds	r0, r0, #1
 837              	.LVL86:
 838              	.L78:
 839              		.loc 1 165 27 is_stmt 1 discriminator 1 view .LVU211
 840 0006 0378     		ldrb	r3, [r0]	@ zero_extendqisi2
 841              		.loc 1 165 5 is_stmt 0 discriminator 1 view .LVU212
 842 0008 23B1     		cbz	r3, .L81
 166:Core/Src/esp32.c ****     {
 167:Core/Src/esp32.c ****         *dst = *src;
 843              		.loc 1 167 9 is_stmt 1 view .LVU213
 844              		.loc 1 167 14 is_stmt 0 view .LVU214
 845 000a 1370     		strb	r3, [r2]
 168:Core/Src/esp32.c ****         if (*dst != garbage)
 846              		.loc 1 168 9 is_stmt 1 view .LVU215
 847              		.loc 1 168 12 is_stmt 0 view .LVU216
ARM GAS  /var/folders/9y/n02fl3g16gnf7ppy14xghdy80000gn/T//ccqH5YoF.s 			page 21


 848 000c 8B42     		cmp	r3, r1
 849 000e F9D0     		beq	.L79
 169:Core/Src/esp32.c ****             dst++;
 850              		.loc 1 169 13 is_stmt 1 view .LVU217
 851              		.loc 1 169 16 is_stmt 0 view .LVU218
 852 0010 0132     		adds	r2, r2, #1
 853              	.LVL87:
 854              		.loc 1 169 16 view .LVU219
 855 0012 F7E7     		b	.L79
 856              	.L81:
 170:Core/Src/esp32.c ****     }
 171:Core/Src/esp32.c ****     *dst = '\0';
 857              		.loc 1 171 5 is_stmt 1 view .LVU220
 858              		.loc 1 171 10 is_stmt 0 view .LVU221
 859 0014 1370     		strb	r3, [r2]
 172:Core/Src/esp32.c **** }
 860              		.loc 1 172 1 view .LVU222
 861 0016 7047     		bx	lr
 862              		.cfi_endproc
 863              	.LFE1163:
 865              		.section	.text.Wifi_RxClear,"ax",%progbits
 866              		.align	1
 867              		.global	Wifi_RxClear
 868              		.syntax unified
 869              		.thumb
 870              		.thumb_func
 871              		.fpu fpv4-sp-d16
 873              	Wifi_RxClear:
 874              	.LFB1164:
 173:Core/Src/esp32.c **** // ################################################################################################
 174:Core/Src/esp32.c **** void Wifi_RxClear(void)
 175:Core/Src/esp32.c **** {
 875              		.loc 1 175 1 is_stmt 1 view -0
 876              		.cfi_startproc
 877              		@ args = 0, pretend = 0, frame = 0
 878              		@ frame_needed = 0, uses_anonymous_args = 0
 879 0000 08B5     		push	{r3, lr}
 880              		.cfi_def_cfa_offset 8
 881              		.cfi_offset 3, -8
 882              		.cfi_offset 14, -4
 176:Core/Src/esp32.c ****     lwrb_reset(&Buffs.RxBuffer);
 883              		.loc 1 176 5 view .LVU224
 884 0002 0248     		ldr	r0, .L84
 885 0004 FFF7FEFF 		bl	lwrb_reset
 886              	.LVL88:
 177:Core/Src/esp32.c **** }
 887              		.loc 1 177 1 is_stmt 0 view .LVU225
 888 0008 08BD     		pop	{r3, pc}
 889              	.L85:
 890 000a 00BF     		.align	2
 891              	.L84:
 892 000c 00080000 		.word	Buffs+2048
 893              		.cfi_endproc
 894              	.LFE1164:
 896              		.section	.text.Wifi_TxClear,"ax",%progbits
 897              		.align	1
 898              		.global	Wifi_TxClear
ARM GAS  /var/folders/9y/n02fl3g16gnf7ppy14xghdy80000gn/T//ccqH5YoF.s 			page 22


 899              		.syntax unified
 900              		.thumb
 901              		.thumb_func
 902              		.fpu fpv4-sp-d16
 904              	Wifi_TxClear:
 905              	.LFB1165:
 178:Core/Src/esp32.c **** // ################################################################################################
 179:Core/Src/esp32.c **** void Wifi_TxClear(void)
 180:Core/Src/esp32.c **** {
 906              		.loc 1 180 1 is_stmt 1 view -0
 907              		.cfi_startproc
 908              		@ args = 0, pretend = 0, frame = 0
 909              		@ frame_needed = 0, uses_anonymous_args = 0
 910 0000 08B5     		push	{r3, lr}
 911              		.cfi_def_cfa_offset 8
 912              		.cfi_offset 3, -8
 913              		.cfi_offset 14, -4
 181:Core/Src/esp32.c ****     memset(Buffs.TxBuffer, '\0', _WIFI_TX_SIZE);
 914              		.loc 1 181 5 view .LVU227
 915 0002 4FF48062 		mov	r2, #1024
 916 0006 0021     		movs	r1, #0
 917 0008 0148     		ldr	r0, .L88
 918 000a FFF7FEFF 		bl	memset
 919              	.LVL89:
 182:Core/Src/esp32.c **** }
 920              		.loc 1 182 1 is_stmt 0 view .LVU228
 921 000e 08BD     		pop	{r3, pc}
 922              	.L89:
 923              		.align	2
 924              	.L88:
 925 0010 140C0000 		.word	Buffs+3092
 926              		.cfi_endproc
 927              	.LFE1165:
 929              		.section	.text.Wifi_RxCallBack,"ax",%progbits
 930              		.align	1
 931              		.global	Wifi_RxCallBack
 932              		.syntax unified
 933              		.thumb
 934              		.thumb_func
 935              		.fpu fpv4-sp-d16
 937              	Wifi_RxCallBack:
 938              	.LFB1166:
 183:Core/Src/esp32.c **** // ################################################################################################
 184:Core/Src/esp32.c **** void Wifi_RxCallBack(void)
 185:Core/Src/esp32.c **** {
 939              		.loc 1 185 1 is_stmt 1 view -0
 940              		.cfi_startproc
 941              		@ args = 0, pretend = 0, frame = 0
 942              		@ frame_needed = 0, uses_anonymous_args = 0
 943              		@ link register save eliminated.
 186:Core/Src/esp32.c ****     // Buffs.RxBuffer.buff[Wifi.RxIndex] = Wifi.usartBuff;
 187:Core/Src/esp32.c ****     // if (Wifi.RxIndex < _WIFI_RX_SIZE)
 188:Core/Src/esp32.c ****     //     Wifi.RxIndex++;
 189:Core/Src/esp32.c ****     // usart1StartRxIt();
 190:Core/Src/esp32.c **** }
 944              		.loc 1 190 1 view .LVU230
 945 0000 7047     		bx	lr
ARM GAS  /var/folders/9y/n02fl3g16gnf7ppy14xghdy80000gn/T//ccqH5YoF.s 			page 23


 946              		.cfi_endproc
 947              	.LFE1166:
 949              		.section	.rodata.Wifi_Init.str1.4,"aMS",%progbits,1
 950              		.align	2
 951              	.LC0:
 952 0000 0D0A4154 		.ascii	"\015\012AT\015\012\000"
 952      0D0A00
 953 0007 00       		.align	2
 954              	.LC1:
 955 0008 4F4B00   		.ascii	"OK\000"
 956 000b 00       		.align	2
 957              	.LC2:
 958 000c 4552524F 		.ascii	"ERROR\000"
 958      5200
 959              		.section	.text.Wifi_Init,"ax",%progbits
 960              		.align	1
 961              		.global	Wifi_Init
 962              		.syntax unified
 963              		.thumb
 964              		.thumb_func
 965              		.fpu fpv4-sp-d16
 967              	Wifi_Init:
 968              	.LFB1167:
 191:Core/Src/esp32.c **** // ################################################################################################
 192:Core/Src/esp32.c **** // ################################################################################################
 193:Core/Src/esp32.c **** // ################################################################################################
 194:Core/Src/esp32.c **** // ################################################################################################
 195:Core/Src/esp32.c **** bool Wifi_Init(void)
 196:Core/Src/esp32.c **** {
 969              		.loc 1 196 1 view -0
 970              		.cfi_startproc
 971              		@ args = 0, pretend = 0, frame = 8
 972              		@ frame_needed = 0, uses_anonymous_args = 0
 973 0000 10B5     		push	{r4, lr}
 974              		.cfi_def_cfa_offset 8
 975              		.cfi_offset 4, -8
 976              		.cfi_offset 14, -4
 977 0002 84B0     		sub	sp, sp, #16
 978              		.cfi_def_cfa_offset 24
 197:Core/Src/esp32.c ****     uint8_t result;
 979              		.loc 1 197 5 view .LVU232
 198:Core/Src/esp32.c ****     bool returnVal = false;
 980              		.loc 1 198 5 view .LVU233
 981              	.LVL90:
 199:Core/Src/esp32.c ****     // Clean the variables and start the interruption to work with the UART
 200:Core/Src/esp32.c ****     do
 982              		.loc 1 200 5 view .LVU234
 201:Core/Src/esp32.c ****     {
 202:Core/Src/esp32.c ****         // Wifi_RxClear();
 203:Core/Src/esp32.c **** 
 204:Core/Src/esp32.c ****         if (Wifi_SendString("\r\nAT\r\n") == false)
 983              		.loc 1 204 9 view .LVU235
 984              		.loc 1 204 13 is_stmt 0 view .LVU236
 985 0004 0F48     		ldr	r0, .L97
 986 0006 FFF7FEFF 		bl	Wifi_SendString
 987              	.LVL91:
 988              		.loc 1 204 12 view .LVU237
ARM GAS  /var/folders/9y/n02fl3g16gnf7ppy14xghdy80000gn/T//ccqH5YoF.s 			page 24


 989 000a 0446     		mov	r4, r0
 990 000c 10B9     		cbnz	r0, .L95
 991              	.LVL92:
 992              	.L92:
 205:Core/Src/esp32.c ****             break;
 206:Core/Src/esp32.c ****         if (Wifi_WaitForString(_WIFI_WAIT_TIME_LOW, &result, 2, "OK", "ERROR") == false)
 207:Core/Src/esp32.c ****             break;
 208:Core/Src/esp32.c ****         if (result == 2)
 209:Core/Src/esp32.c ****             break;
 210:Core/Src/esp32.c ****         returnVal = true;
 211:Core/Src/esp32.c ****         Wifi_RxClear();
 212:Core/Src/esp32.c ****         Wifi_TxClear();
 213:Core/Src/esp32.c ****         // usart1StartRxIt();
 214:Core/Src/esp32.c ****     } while (0);
 993              		.loc 1 214 13 is_stmt 1 view .LVU238
 215:Core/Src/esp32.c ****     return returnVal;
 994              		.loc 1 215 5 view .LVU239
 216:Core/Src/esp32.c **** }
 995              		.loc 1 216 1 is_stmt 0 view .LVU240
 996 000e 2046     		mov	r0, r4
 997 0010 04B0     		add	sp, sp, #16
 998              		.cfi_remember_state
 999              		.cfi_def_cfa_offset 8
 1000              		@ sp needed
 1001 0012 10BD     		pop	{r4, pc}
 1002              	.LVL93:
 1003              	.L95:
 1004              		.cfi_restore_state
 206:Core/Src/esp32.c ****             break;
 1005              		.loc 1 206 9 is_stmt 1 view .LVU241
 206:Core/Src/esp32.c ****             break;
 1006              		.loc 1 206 13 is_stmt 0 view .LVU242
 1007 0014 0C4B     		ldr	r3, .L97+4
 1008 0016 0093     		str	r3, [sp]
 1009 0018 0C4B     		ldr	r3, .L97+8
 1010 001a 0222     		movs	r2, #2
 1011 001c 0DF10F01 		add	r1, sp, #15
 1012 0020 4FF47A70 		mov	r0, #1000
 1013 0024 FFF7FEFF 		bl	Wifi_WaitForString
 1014              	.LVL94:
 206:Core/Src/esp32.c ****             break;
 1015              		.loc 1 206 12 view .LVU243
 1016 0028 0446     		mov	r4, r0
 1017 002a 0028     		cmp	r0, #0
 1018 002c EFD0     		beq	.L92
 208:Core/Src/esp32.c ****             break;
 1019              		.loc 1 208 9 is_stmt 1 view .LVU244
 208:Core/Src/esp32.c ****             break;
 1020              		.loc 1 208 20 is_stmt 0 view .LVU245
 1021 002e 9DF80F30 		ldrb	r3, [sp, #15]	@ zero_extendqisi2
 208:Core/Src/esp32.c ****             break;
 1022              		.loc 1 208 12 view .LVU246
 1023 0032 022B     		cmp	r3, #2
 1024 0034 01D1     		bne	.L96
 198:Core/Src/esp32.c ****     // Clean the variables and start the interruption to work with the UART
 1025              		.loc 1 198 10 view .LVU247
 1026 0036 0024     		movs	r4, #0
ARM GAS  /var/folders/9y/n02fl3g16gnf7ppy14xghdy80000gn/T//ccqH5YoF.s 			page 25


 1027 0038 E9E7     		b	.L92
 1028              	.L96:
 210:Core/Src/esp32.c ****         Wifi_RxClear();
 1029              		.loc 1 210 9 is_stmt 1 view .LVU248
 1030              	.LVL95:
 211:Core/Src/esp32.c ****         Wifi_TxClear();
 1031              		.loc 1 211 9 view .LVU249
 1032 003a FFF7FEFF 		bl	Wifi_RxClear
 1033              	.LVL96:
 212:Core/Src/esp32.c ****         // usart1StartRxIt();
 1034              		.loc 1 212 9 view .LVU250
 1035 003e FFF7FEFF 		bl	Wifi_TxClear
 1036              	.LVL97:
 1037 0042 E4E7     		b	.L92
 1038              	.L98:
 1039              		.align	2
 1040              	.L97:
 1041 0044 00000000 		.word	.LC0
 1042 0048 0C000000 		.word	.LC2
 1043 004c 08000000 		.word	.LC1
 1044              		.cfi_endproc
 1045              	.LFE1167:
 1047              		.section	.rodata.Wifi_Restart.str1.4,"aMS",%progbits,1
 1048              		.align	2
 1049              	.LC3:
 1050 0000 41542B52 		.ascii	"AT+RST\015\012\000"
 1050      53540D0A 
 1050      00
 1051              		.section	.text.Wifi_Restart,"ax",%progbits
 1052              		.align	1
 1053              		.global	Wifi_Restart
 1054              		.syntax unified
 1055              		.thumb
 1056              		.thumb_func
 1057              		.fpu fpv4-sp-d16
 1059              	Wifi_Restart:
 1060              	.LFB1168:
 217:Core/Src/esp32.c **** 
 218:Core/Src/esp32.c **** // ################################################################################################
 219:Core/Src/esp32.c **** // ################################################################################################
 220:Core/Src/esp32.c **** // ################################################################################################
 221:Core/Src/esp32.c **** // ################################################################################################
 222:Core/Src/esp32.c **** bool Wifi_Restart(void)
 223:Core/Src/esp32.c **** {
 1061              		.loc 1 223 1 view -0
 1062              		.cfi_startproc
 1063              		@ args = 0, pretend = 0, frame = 8
 1064              		@ frame_needed = 0, uses_anonymous_args = 0
 1065 0000 10B5     		push	{r4, lr}
 1066              		.cfi_def_cfa_offset 8
 1067              		.cfi_offset 4, -8
 1068              		.cfi_offset 14, -4
 1069 0002 84B0     		sub	sp, sp, #16
 1070              		.cfi_def_cfa_offset 24
 224:Core/Src/esp32.c ****     // Make a restart of the ESP8266 using the AT Commands
 225:Core/Src/esp32.c **** 
 226:Core/Src/esp32.c ****     uint8_t result;
ARM GAS  /var/folders/9y/n02fl3g16gnf7ppy14xghdy80000gn/T//ccqH5YoF.s 			page 26


 1071              		.loc 1 226 5 view .LVU252
 227:Core/Src/esp32.c ****     bool returnVal = false;
 1072              		.loc 1 227 5 view .LVU253
 1073              	.LVL98:
 228:Core/Src/esp32.c ****     do
 1074              		.loc 1 228 5 view .LVU254
 229:Core/Src/esp32.c ****     {
 230:Core/Src/esp32.c ****         Wifi_RxClear();
 1075              		.loc 1 230 9 view .LVU255
 1076 0004 FFF7FEFF 		bl	Wifi_RxClear
 1077              	.LVL99:
 231:Core/Src/esp32.c ****         sprintf((char *)Buffs.TxBuffer, "AT+RST\r\n");
 1078              		.loc 1 231 9 view .LVU256
 1079 0008 0E4C     		ldr	r4, .L103
 1080 000a 0F4A     		ldr	r2, .L103+4
 1081 000c 2346     		mov	r3, r4
 1082 000e 07CA     		ldm	r2, {r0, r1, r2}
 1083 0010 03C3     		stmia	r3!, {r0, r1}
 1084 0012 1A70     		strb	r2, [r3]
 232:Core/Src/esp32.c ****         if (Wifi_SendString((char *)Buffs.TxBuffer) == false)
 1085              		.loc 1 232 9 view .LVU257
 1086              		.loc 1 232 13 is_stmt 0 view .LVU258
 1087 0014 2046     		mov	r0, r4
 1088 0016 FFF7FEFF 		bl	Wifi_SendString
 1089              	.LVL100:
 1090              		.loc 1 232 12 view .LVU259
 1091 001a 08B9     		cbnz	r0, .L102
 1092              	.L100:
 1093              	.LVL101:
 233:Core/Src/esp32.c ****             break;
 234:Core/Src/esp32.c ****         if (Wifi_WaitForString(_WIFI_WAIT_TIME_LOW, &result, 2, "OK", "ERROR") == false)
 235:Core/Src/esp32.c ****             break;       // The timeout was completed and the string was not there
 236:Core/Src/esp32.c ****         if (result == 2) // It was find the "ERROR" String in the receiving information
 237:Core/Src/esp32.c ****             break;
 238:Core/Src/esp32.c ****         returnVal = true;
 239:Core/Src/esp32.c ****     } while (0);
 1094              		.loc 1 239 13 is_stmt 1 view .LVU260
 240:Core/Src/esp32.c ****     return returnVal;
 1095              		.loc 1 240 5 view .LVU261
 241:Core/Src/esp32.c **** }
 1096              		.loc 1 241 1 is_stmt 0 view .LVU262
 1097 001c 04B0     		add	sp, sp, #16
 1098              		.cfi_remember_state
 1099              		.cfi_def_cfa_offset 8
 1100              		@ sp needed
 1101 001e 10BD     		pop	{r4, pc}
 1102              	.LVL102:
 1103              	.L102:
 1104              		.cfi_restore_state
 234:Core/Src/esp32.c ****             break;       // The timeout was completed and the string was not there
 1105              		.loc 1 234 9 is_stmt 1 view .LVU263
 234:Core/Src/esp32.c ****             break;       // The timeout was completed and the string was not there
 1106              		.loc 1 234 13 is_stmt 0 view .LVU264
 1107 0020 0A4B     		ldr	r3, .L103+8
 1108 0022 0093     		str	r3, [sp]
 1109 0024 0A4B     		ldr	r3, .L103+12
 1110 0026 0222     		movs	r2, #2
ARM GAS  /var/folders/9y/n02fl3g16gnf7ppy14xghdy80000gn/T//ccqH5YoF.s 			page 27


 1111 0028 0DF10F01 		add	r1, sp, #15
 1112 002c 4FF47A70 		mov	r0, #1000
 1113 0030 FFF7FEFF 		bl	Wifi_WaitForString
 1114              	.LVL103:
 234:Core/Src/esp32.c ****             break;       // The timeout was completed and the string was not there
 1115              		.loc 1 234 12 view .LVU265
 1116 0034 0028     		cmp	r0, #0
 1117 0036 F1D0     		beq	.L100
 236:Core/Src/esp32.c ****             break;
 1118              		.loc 1 236 9 is_stmt 1 view .LVU266
 236:Core/Src/esp32.c ****             break;
 1119              		.loc 1 236 20 is_stmt 0 view .LVU267
 1120 0038 9DF80F30 		ldrb	r3, [sp, #15]	@ zero_extendqisi2
 236:Core/Src/esp32.c ****             break;
 1121              		.loc 1 236 12 view .LVU268
 1122 003c 022B     		cmp	r3, #2
 1123 003e EDD1     		bne	.L100
 227:Core/Src/esp32.c ****     do
 1124              		.loc 1 227 10 view .LVU269
 1125 0040 0020     		movs	r0, #0
 1126 0042 EBE7     		b	.L100
 1127              	.L104:
 1128              		.align	2
 1129              	.L103:
 1130 0044 140C0000 		.word	Buffs+3092
 1131 0048 00000000 		.word	.LC3
 1132 004c 0C000000 		.word	.LC2
 1133 0050 08000000 		.word	.LC1
 1134              		.cfi_endproc
 1135              	.LFE1168:
 1137              		.section	.rodata.Wifi_DeepSleep.str1.4,"aMS",%progbits,1
 1138              		.align	2
 1139              	.LC4:
 1140 0000 41542B47 		.ascii	"AT+GSLP=%d\015\012\000"
 1140      534C503D 
 1140      25640D0A 
 1140      00
 1141              		.section	.text.Wifi_DeepSleep,"ax",%progbits
 1142              		.align	1
 1143              		.global	Wifi_DeepSleep
 1144              		.syntax unified
 1145              		.thumb
 1146              		.thumb_func
 1147              		.fpu fpv4-sp-d16
 1149              	Wifi_DeepSleep:
 1150              	.LVL104:
 1151              	.LFB1169:
 242:Core/Src/esp32.c **** // ################################################################################################
 243:Core/Src/esp32.c **** bool Wifi_DeepSleep(uint16_t DelayMs)
 244:Core/Src/esp32.c **** {
 1152              		.loc 1 244 1 is_stmt 1 view -0
 1153              		.cfi_startproc
 1154              		@ args = 0, pretend = 0, frame = 8
 1155              		@ frame_needed = 0, uses_anonymous_args = 0
 1156              		.loc 1 244 1 is_stmt 0 view .LVU271
 1157 0000 30B5     		push	{r4, r5, lr}
 1158              		.cfi_def_cfa_offset 12
ARM GAS  /var/folders/9y/n02fl3g16gnf7ppy14xghdy80000gn/T//ccqH5YoF.s 			page 28


 1159              		.cfi_offset 4, -12
 1160              		.cfi_offset 5, -8
 1161              		.cfi_offset 14, -4
 1162 0002 85B0     		sub	sp, sp, #20
 1163              		.cfi_def_cfa_offset 32
 1164 0004 0446     		mov	r4, r0
 245:Core/Src/esp32.c ****     // The ESP8266 enters in Deep-Sleep Mode for the time, which is indicated
 246:Core/Src/esp32.c **** 
 247:Core/Src/esp32.c ****     uint8_t result;
 1165              		.loc 1 247 5 is_stmt 1 view .LVU272
 248:Core/Src/esp32.c ****     bool returnVal = false;
 1166              		.loc 1 248 5 view .LVU273
 1167              	.LVL105:
 249:Core/Src/esp32.c ****     do
 1168              		.loc 1 249 5 view .LVU274
 250:Core/Src/esp32.c ****     {
 251:Core/Src/esp32.c ****         Wifi_RxClear();
 1169              		.loc 1 251 9 view .LVU275
 1170 0006 FFF7FEFF 		bl	Wifi_RxClear
 1171              	.LVL106:
 252:Core/Src/esp32.c ****         sprintf((char *)Buffs.TxBuffer, "AT+GSLP=%d\r\n", DelayMs);
 1172              		.loc 1 252 9 view .LVU276
 1173 000a 0F4D     		ldr	r5, .L109
 1174 000c 2246     		mov	r2, r4
 1175 000e 0F49     		ldr	r1, .L109+4
 1176 0010 2846     		mov	r0, r5
 1177 0012 FFF7FEFF 		bl	sprintf
 1178              	.LVL107:
 253:Core/Src/esp32.c ****         if (Wifi_SendString((char *)Buffs.TxBuffer) == false)
 1179              		.loc 1 253 9 view .LVU277
 1180              		.loc 1 253 13 is_stmt 0 view .LVU278
 1181 0016 2846     		mov	r0, r5
 1182 0018 FFF7FEFF 		bl	Wifi_SendString
 1183              	.LVL108:
 1184              		.loc 1 253 12 view .LVU279
 1185 001c 08B9     		cbnz	r0, .L108
 1186              	.L106:
 1187              	.LVL109:
 254:Core/Src/esp32.c ****             break;
 255:Core/Src/esp32.c ****         if (Wifi_WaitForString(_WIFI_WAIT_TIME_LOW, &result, 2, "OK", "ERROR") == false)
 256:Core/Src/esp32.c ****             break;       // The timeout was completed and the string was not there
 257:Core/Src/esp32.c ****         if (result == 2) // It was find the "ERROR" String in the receiving information
 258:Core/Src/esp32.c ****             break;
 259:Core/Src/esp32.c ****         returnVal = true;
 260:Core/Src/esp32.c ****     } while (0);
 1188              		.loc 1 260 13 is_stmt 1 view .LVU280
 261:Core/Src/esp32.c ****     return returnVal;
 1189              		.loc 1 261 5 view .LVU281
 262:Core/Src/esp32.c **** }
 1190              		.loc 1 262 1 is_stmt 0 view .LVU282
 1191 001e 05B0     		add	sp, sp, #20
 1192              		.cfi_remember_state
 1193              		.cfi_def_cfa_offset 12
 1194              		@ sp needed
 1195 0020 30BD     		pop	{r4, r5, pc}
 1196              	.LVL110:
 1197              	.L108:
ARM GAS  /var/folders/9y/n02fl3g16gnf7ppy14xghdy80000gn/T//ccqH5YoF.s 			page 29


 1198              		.cfi_restore_state
 255:Core/Src/esp32.c ****             break;       // The timeout was completed and the string was not there
 1199              		.loc 1 255 9 is_stmt 1 view .LVU283
 255:Core/Src/esp32.c ****             break;       // The timeout was completed and the string was not there
 1200              		.loc 1 255 13 is_stmt 0 view .LVU284
 1201 0022 0B4B     		ldr	r3, .L109+8
 1202 0024 0093     		str	r3, [sp]
 1203 0026 0B4B     		ldr	r3, .L109+12
 1204 0028 0222     		movs	r2, #2
 1205 002a 0DF10F01 		add	r1, sp, #15
 1206 002e 4FF47A70 		mov	r0, #1000
 1207 0032 FFF7FEFF 		bl	Wifi_WaitForString
 1208              	.LVL111:
 255:Core/Src/esp32.c ****             break;       // The timeout was completed and the string was not there
 1209              		.loc 1 255 12 view .LVU285
 1210 0036 0028     		cmp	r0, #0
 1211 0038 F1D0     		beq	.L106
 257:Core/Src/esp32.c ****             break;
 1212              		.loc 1 257 9 is_stmt 1 view .LVU286
 257:Core/Src/esp32.c ****             break;
 1213              		.loc 1 257 20 is_stmt 0 view .LVU287
 1214 003a 9DF80F30 		ldrb	r3, [sp, #15]	@ zero_extendqisi2
 257:Core/Src/esp32.c ****             break;
 1215              		.loc 1 257 12 view .LVU288
 1216 003e 022B     		cmp	r3, #2
 1217 0040 EDD1     		bne	.L106
 248:Core/Src/esp32.c ****     do
 1218              		.loc 1 248 10 view .LVU289
 1219 0042 0020     		movs	r0, #0
 1220 0044 EBE7     		b	.L106
 1221              	.L110:
 1222 0046 00BF     		.align	2
 1223              	.L109:
 1224 0048 140C0000 		.word	Buffs+3092
 1225 004c 00000000 		.word	.LC4
 1226 0050 0C000000 		.word	.LC2
 1227 0054 08000000 		.word	.LC1
 1228              		.cfi_endproc
 1229              	.LFE1169:
 1231              		.section	.rodata.Wifi_FactoryReset.str1.4,"aMS",%progbits,1
 1232              		.align	2
 1233              	.LC5:
 1234 0000 41542B52 		.ascii	"AT+RESTORE\015\012\000"
 1234      4553544F 
 1234      52450D0A 
 1234      00
 1235              		.section	.text.Wifi_FactoryReset,"ax",%progbits
 1236              		.align	1
 1237              		.global	Wifi_FactoryReset
 1238              		.syntax unified
 1239              		.thumb
 1240              		.thumb_func
 1241              		.fpu fpv4-sp-d16
 1243              	Wifi_FactoryReset:
 1244              	.LFB1170:
 263:Core/Src/esp32.c **** // ################################################################################################
 264:Core/Src/esp32.c **** bool Wifi_FactoryReset(void)
ARM GAS  /var/folders/9y/n02fl3g16gnf7ppy14xghdy80000gn/T//ccqH5YoF.s 			page 30


 265:Core/Src/esp32.c **** {
 1245              		.loc 1 265 1 is_stmt 1 view -0
 1246              		.cfi_startproc
 1247              		@ args = 0, pretend = 0, frame = 8
 1248              		@ frame_needed = 0, uses_anonymous_args = 0
 1249 0000 10B5     		push	{r4, lr}
 1250              		.cfi_def_cfa_offset 8
 1251              		.cfi_offset 4, -8
 1252              		.cfi_offset 14, -4
 1253 0002 84B0     		sub	sp, sp, #16
 1254              		.cfi_def_cfa_offset 24
 266:Core/Src/esp32.c ****     uint8_t result;
 1255              		.loc 1 266 5 view .LVU291
 267:Core/Src/esp32.c ****     bool returnVal = false;
 1256              		.loc 1 267 5 view .LVU292
 1257              	.LVL112:
 268:Core/Src/esp32.c ****     do
 1258              		.loc 1 268 5 view .LVU293
 269:Core/Src/esp32.c ****     {
 270:Core/Src/esp32.c ****         Wifi_RxClear();
 1259              		.loc 1 270 9 view .LVU294
 1260 0004 FFF7FEFF 		bl	Wifi_RxClear
 1261              	.LVL113:
 271:Core/Src/esp32.c ****         sprintf((char *)Buffs.TxBuffer, "AT+RESTORE\r\n");
 1262              		.loc 1 271 9 view .LVU295
 1263 0008 0F4C     		ldr	r4, .L115
 1264 000a 104B     		ldr	r3, .L115+4
 1265 000c A446     		mov	ip, r4
 1266 000e 0FCB     		ldm	r3, {r0, r1, r2, r3}
 1267 0010 ACE80700 		stmia	ip!, {r0, r1, r2}
 1268 0014 8CF80030 		strb	r3, [ip]
 272:Core/Src/esp32.c ****         if (Wifi_SendString((char *)Buffs.TxBuffer) == false)
 1269              		.loc 1 272 9 view .LVU296
 1270              		.loc 1 272 13 is_stmt 0 view .LVU297
 1271 0018 2046     		mov	r0, r4
 1272 001a FFF7FEFF 		bl	Wifi_SendString
 1273              	.LVL114:
 1274              		.loc 1 272 12 view .LVU298
 1275 001e 08B9     		cbnz	r0, .L114
 1276              	.L112:
 1277              	.LVL115:
 273:Core/Src/esp32.c ****             break;
 274:Core/Src/esp32.c ****         if (Wifi_WaitForString(_WIFI_WAIT_TIME_LOW, &result, 2, "OK", "ERROR") == false)
 275:Core/Src/esp32.c ****             break;       // The timeout was completed and the string was not there
 276:Core/Src/esp32.c ****         if (result == 2) // It was find the "ERROR" String in the receiving information
 277:Core/Src/esp32.c ****             break;
 278:Core/Src/esp32.c ****         returnVal = true;
 279:Core/Src/esp32.c ****     } while (0);
 1278              		.loc 1 279 13 is_stmt 1 view .LVU299
 280:Core/Src/esp32.c ****     return returnVal;
 1279              		.loc 1 280 5 view .LVU300
 281:Core/Src/esp32.c **** }
 1280              		.loc 1 281 1 is_stmt 0 view .LVU301
 1281 0020 04B0     		add	sp, sp, #16
 1282              		.cfi_remember_state
 1283              		.cfi_def_cfa_offset 8
 1284              		@ sp needed
ARM GAS  /var/folders/9y/n02fl3g16gnf7ppy14xghdy80000gn/T//ccqH5YoF.s 			page 31


 1285 0022 10BD     		pop	{r4, pc}
 1286              	.LVL116:
 1287              	.L114:
 1288              		.cfi_restore_state
 274:Core/Src/esp32.c ****             break;       // The timeout was completed and the string was not there
 1289              		.loc 1 274 9 is_stmt 1 view .LVU302
 274:Core/Src/esp32.c ****             break;       // The timeout was completed and the string was not there
 1290              		.loc 1 274 13 is_stmt 0 view .LVU303
 1291 0024 0A4B     		ldr	r3, .L115+8
 1292 0026 0093     		str	r3, [sp]
 1293 0028 0A4B     		ldr	r3, .L115+12
 1294 002a 0222     		movs	r2, #2
 1295 002c 0DF10F01 		add	r1, sp, #15
 1296 0030 4FF47A70 		mov	r0, #1000
 1297 0034 FFF7FEFF 		bl	Wifi_WaitForString
 1298              	.LVL117:
 274:Core/Src/esp32.c ****             break;       // The timeout was completed and the string was not there
 1299              		.loc 1 274 12 view .LVU304
 1300 0038 0028     		cmp	r0, #0
 1301 003a F1D0     		beq	.L112
 276:Core/Src/esp32.c ****             break;
 1302              		.loc 1 276 9 is_stmt 1 view .LVU305
 276:Core/Src/esp32.c ****             break;
 1303              		.loc 1 276 20 is_stmt 0 view .LVU306
 1304 003c 9DF80F30 		ldrb	r3, [sp, #15]	@ zero_extendqisi2
 276:Core/Src/esp32.c ****             break;
 1305              		.loc 1 276 12 view .LVU307
 1306 0040 022B     		cmp	r3, #2
 1307 0042 EDD1     		bne	.L112
 267:Core/Src/esp32.c ****     do
 1308              		.loc 1 267 10 view .LVU308
 1309 0044 0020     		movs	r0, #0
 1310 0046 EBE7     		b	.L112
 1311              	.L116:
 1312              		.align	2
 1313              	.L115:
 1314 0048 140C0000 		.word	Buffs+3092
 1315 004c 00000000 		.word	.LC5
 1316 0050 0C000000 		.word	.LC2
 1317 0054 08000000 		.word	.LC1
 1318              		.cfi_endproc
 1319              	.LFE1170:
 1321              		.section	.rodata.Wifi_Update.str1.4,"aMS",%progbits,1
 1322              		.align	2
 1323              	.LC6:
 1324 0000 41542B43 		.ascii	"AT+CIUPDATE\015\012\000"
 1324      49555044 
 1324      4154450D 
 1324      0A00
 1325              		.section	.text.Wifi_Update,"ax",%progbits
 1326              		.align	1
 1327              		.global	Wifi_Update
 1328              		.syntax unified
 1329              		.thumb
 1330              		.thumb_func
 1331              		.fpu fpv4-sp-d16
 1333              	Wifi_Update:
ARM GAS  /var/folders/9y/n02fl3g16gnf7ppy14xghdy80000gn/T//ccqH5YoF.s 			page 32


 1334              	.LFB1171:
 282:Core/Src/esp32.c **** // ################################################################################################
 283:Core/Src/esp32.c **** bool Wifi_Update(void)
 284:Core/Src/esp32.c **** {
 1335              		.loc 1 284 1 is_stmt 1 view -0
 1336              		.cfi_startproc
 1337              		@ args = 0, pretend = 0, frame = 8
 1338              		@ frame_needed = 0, uses_anonymous_args = 0
 1339 0000 10B5     		push	{r4, lr}
 1340              		.cfi_def_cfa_offset 8
 1341              		.cfi_offset 4, -8
 1342              		.cfi_offset 14, -4
 1343 0002 84B0     		sub	sp, sp, #16
 1344              		.cfi_def_cfa_offset 24
 285:Core/Src/esp32.c ****     // Update the version of AT Commands when the device is connected to Internet
 286:Core/Src/esp32.c **** 
 287:Core/Src/esp32.c ****     uint8_t result;
 1345              		.loc 1 287 5 view .LVU310
 288:Core/Src/esp32.c ****     bool returnVal = false;
 1346              		.loc 1 288 5 view .LVU311
 1347              	.LVL118:
 289:Core/Src/esp32.c ****     do
 1348              		.loc 1 289 5 view .LVU312
 290:Core/Src/esp32.c ****     {
 291:Core/Src/esp32.c ****         Wifi_RxClear();
 1349              		.loc 1 291 9 view .LVU313
 1350 0004 FFF7FEFF 		bl	Wifi_RxClear
 1351              	.LVL119:
 292:Core/Src/esp32.c ****         sprintf((char *)Buffs.TxBuffer, "AT+CIUPDATE\r\n");
 1352              		.loc 1 292 9 view .LVU314
 1353 0008 0F4C     		ldr	r4, .L121
 1354 000a 104B     		ldr	r3, .L121+4
 1355 000c A446     		mov	ip, r4
 1356 000e 0FCB     		ldm	r3, {r0, r1, r2, r3}
 1357 0010 ACE80700 		stmia	ip!, {r0, r1, r2}
 1358 0014 ACF80030 		strh	r3, [ip]	@ movhi
 293:Core/Src/esp32.c ****         if (Wifi_SendString((char *)Buffs.TxBuffer) == false)
 1359              		.loc 1 293 9 view .LVU315
 1360              		.loc 1 293 13 is_stmt 0 view .LVU316
 1361 0018 2046     		mov	r0, r4
 1362 001a FFF7FEFF 		bl	Wifi_SendString
 1363              	.LVL120:
 1364              		.loc 1 293 12 view .LVU317
 1365 001e 08B9     		cbnz	r0, .L120
 1366              	.L118:
 1367              	.LVL121:
 294:Core/Src/esp32.c ****             break;
 295:Core/Src/esp32.c ****         if (Wifi_WaitForString(1000 * 60 * 5, &result, 2, "OK", "ERROR") == false)
 296:Core/Src/esp32.c ****             break;       // The timeout was completed and the string was not there
 297:Core/Src/esp32.c ****         if (result == 2) // It was find the "ERROR" String in the receiving information
 298:Core/Src/esp32.c ****             break;
 299:Core/Src/esp32.c ****         returnVal = true;
 300:Core/Src/esp32.c ****     } while (0);
 1368              		.loc 1 300 13 is_stmt 1 view .LVU318
 301:Core/Src/esp32.c ****     return returnVal;
 1369              		.loc 1 301 5 view .LVU319
 302:Core/Src/esp32.c **** }
ARM GAS  /var/folders/9y/n02fl3g16gnf7ppy14xghdy80000gn/T//ccqH5YoF.s 			page 33


 1370              		.loc 1 302 1 is_stmt 0 view .LVU320
 1371 0020 04B0     		add	sp, sp, #16
 1372              		.cfi_remember_state
 1373              		.cfi_def_cfa_offset 8
 1374              		@ sp needed
 1375 0022 10BD     		pop	{r4, pc}
 1376              	.LVL122:
 1377              	.L120:
 1378              		.cfi_restore_state
 295:Core/Src/esp32.c ****             break;       // The timeout was completed and the string was not there
 1379              		.loc 1 295 9 is_stmt 1 view .LVU321
 295:Core/Src/esp32.c ****             break;       // The timeout was completed and the string was not there
 1380              		.loc 1 295 13 is_stmt 0 view .LVU322
 1381 0024 0A4B     		ldr	r3, .L121+8
 1382 0026 0093     		str	r3, [sp]
 1383 0028 0A4B     		ldr	r3, .L121+12
 1384 002a 0222     		movs	r2, #2
 1385 002c 0DF10F01 		add	r1, sp, #15
 1386 0030 0948     		ldr	r0, .L121+16
 1387 0032 FFF7FEFF 		bl	Wifi_WaitForString
 1388              	.LVL123:
 295:Core/Src/esp32.c ****             break;       // The timeout was completed and the string was not there
 1389              		.loc 1 295 12 view .LVU323
 1390 0036 0028     		cmp	r0, #0
 1391 0038 F2D0     		beq	.L118
 297:Core/Src/esp32.c ****             break;
 1392              		.loc 1 297 9 is_stmt 1 view .LVU324
 297:Core/Src/esp32.c ****             break;
 1393              		.loc 1 297 20 is_stmt 0 view .LVU325
 1394 003a 9DF80F30 		ldrb	r3, [sp, #15]	@ zero_extendqisi2
 297:Core/Src/esp32.c ****             break;
 1395              		.loc 1 297 12 view .LVU326
 1396 003e 022B     		cmp	r3, #2
 1397 0040 EED1     		bne	.L118
 288:Core/Src/esp32.c ****     do
 1398              		.loc 1 288 10 view .LVU327
 1399 0042 0020     		movs	r0, #0
 1400 0044 ECE7     		b	.L118
 1401              	.L122:
 1402 0046 00BF     		.align	2
 1403              	.L121:
 1404 0048 140C0000 		.word	Buffs+3092
 1405 004c 00000000 		.word	.LC6
 1406 0050 0C000000 		.word	.LC2
 1407 0054 08000000 		.word	.LC1
 1408 0058 E0930400 		.word	300000
 1409              		.cfi_endproc
 1410              	.LFE1171:
 1412              		.section	.rodata.Wifi_SetRfPower.str1.4,"aMS",%progbits,1
 1413              		.align	2
 1414              	.LC7:
 1415 0000 41542B52 		.ascii	"AT+RFPOWER=%d\015\012\000"
 1415      46504F57 
 1415      45523D25 
 1415      640D0A00 
 1416              		.section	.text.Wifi_SetRfPower,"ax",%progbits
 1417              		.align	1
ARM GAS  /var/folders/9y/n02fl3g16gnf7ppy14xghdy80000gn/T//ccqH5YoF.s 			page 34


 1418              		.global	Wifi_SetRfPower
 1419              		.syntax unified
 1420              		.thumb
 1421              		.thumb_func
 1422              		.fpu fpv4-sp-d16
 1424              	Wifi_SetRfPower:
 1425              	.LVL124:
 1426              	.LFB1172:
 303:Core/Src/esp32.c **** // ################################################################################################
 304:Core/Src/esp32.c **** bool Wifi_SetRfPower(uint8_t Power_0_to_82)
 305:Core/Src/esp32.c **** {
 1427              		.loc 1 305 1 is_stmt 1 view -0
 1428              		.cfi_startproc
 1429              		@ args = 0, pretend = 0, frame = 8
 1430              		@ frame_needed = 0, uses_anonymous_args = 0
 1431              		.loc 1 305 1 is_stmt 0 view .LVU329
 1432 0000 30B5     		push	{r4, r5, lr}
 1433              		.cfi_def_cfa_offset 12
 1434              		.cfi_offset 4, -12
 1435              		.cfi_offset 5, -8
 1436              		.cfi_offset 14, -4
 1437 0002 85B0     		sub	sp, sp, #20
 1438              		.cfi_def_cfa_offset 32
 1439 0004 0446     		mov	r4, r0
 306:Core/Src/esp32.c ****     uint8_t result;
 1440              		.loc 1 306 5 is_stmt 1 view .LVU330
 307:Core/Src/esp32.c ****     bool returnVal = false;
 1441              		.loc 1 307 5 view .LVU331
 1442              	.LVL125:
 308:Core/Src/esp32.c ****     do
 1443              		.loc 1 308 5 view .LVU332
 309:Core/Src/esp32.c ****     {
 310:Core/Src/esp32.c ****         Wifi_RxClear();
 1444              		.loc 1 310 9 view .LVU333
 1445 0006 FFF7FEFF 		bl	Wifi_RxClear
 1446              	.LVL126:
 311:Core/Src/esp32.c ****         sprintf((char *)Buffs.TxBuffer, "AT+RFPOWER=%d\r\n", Power_0_to_82);
 1447              		.loc 1 311 9 view .LVU334
 1448 000a 0F4D     		ldr	r5, .L127
 1449 000c 2246     		mov	r2, r4
 1450 000e 0F49     		ldr	r1, .L127+4
 1451 0010 2846     		mov	r0, r5
 1452 0012 FFF7FEFF 		bl	sprintf
 1453              	.LVL127:
 312:Core/Src/esp32.c ****         if (Wifi_SendString((char *)Buffs.TxBuffer) == false)
 1454              		.loc 1 312 9 view .LVU335
 1455              		.loc 1 312 13 is_stmt 0 view .LVU336
 1456 0016 2846     		mov	r0, r5
 1457 0018 FFF7FEFF 		bl	Wifi_SendString
 1458              	.LVL128:
 1459              		.loc 1 312 12 view .LVU337
 1460 001c 08B9     		cbnz	r0, .L126
 1461              	.L124:
 1462              	.LVL129:
 313:Core/Src/esp32.c ****             break;
 314:Core/Src/esp32.c ****         if (Wifi_WaitForString(_WIFI_WAIT_TIME_LOW, &result, 2, "OK", "ERROR") == false)
 315:Core/Src/esp32.c ****             break;       // The timeout was completed and the string was not there
ARM GAS  /var/folders/9y/n02fl3g16gnf7ppy14xghdy80000gn/T//ccqH5YoF.s 			page 35


 316:Core/Src/esp32.c ****         if (result == 2) // It was find the "ERROR" String in the receiving information
 317:Core/Src/esp32.c ****             break;
 318:Core/Src/esp32.c ****         returnVal = true;
 319:Core/Src/esp32.c ****     } while (0);
 1463              		.loc 1 319 13 is_stmt 1 view .LVU338
 320:Core/Src/esp32.c ****     return returnVal;
 1464              		.loc 1 320 5 view .LVU339
 321:Core/Src/esp32.c **** }
 1465              		.loc 1 321 1 is_stmt 0 view .LVU340
 1466 001e 05B0     		add	sp, sp, #20
 1467              		.cfi_remember_state
 1468              		.cfi_def_cfa_offset 12
 1469              		@ sp needed
 1470 0020 30BD     		pop	{r4, r5, pc}
 1471              	.LVL130:
 1472              	.L126:
 1473              		.cfi_restore_state
 314:Core/Src/esp32.c ****             break;       // The timeout was completed and the string was not there
 1474              		.loc 1 314 9 is_stmt 1 view .LVU341
 314:Core/Src/esp32.c ****             break;       // The timeout was completed and the string was not there
 1475              		.loc 1 314 13 is_stmt 0 view .LVU342
 1476 0022 0B4B     		ldr	r3, .L127+8
 1477 0024 0093     		str	r3, [sp]
 1478 0026 0B4B     		ldr	r3, .L127+12
 1479 0028 0222     		movs	r2, #2
 1480 002a 0DF10F01 		add	r1, sp, #15
 1481 002e 4FF47A70 		mov	r0, #1000
 1482 0032 FFF7FEFF 		bl	Wifi_WaitForString
 1483              	.LVL131:
 314:Core/Src/esp32.c ****             break;       // The timeout was completed and the string was not there
 1484              		.loc 1 314 12 view .LVU343
 1485 0036 0028     		cmp	r0, #0
 1486 0038 F1D0     		beq	.L124
 316:Core/Src/esp32.c ****             break;
 1487              		.loc 1 316 9 is_stmt 1 view .LVU344
 316:Core/Src/esp32.c ****             break;
 1488              		.loc 1 316 20 is_stmt 0 view .LVU345
 1489 003a 9DF80F30 		ldrb	r3, [sp, #15]	@ zero_extendqisi2
 316:Core/Src/esp32.c ****             break;
 1490              		.loc 1 316 12 view .LVU346
 1491 003e 022B     		cmp	r3, #2
 1492 0040 EDD1     		bne	.L124
 307:Core/Src/esp32.c ****     do
 1493              		.loc 1 307 10 view .LVU347
 1494 0042 0020     		movs	r0, #0
 1495 0044 EBE7     		b	.L124
 1496              	.L128:
 1497 0046 00BF     		.align	2
 1498              	.L127:
 1499 0048 140C0000 		.word	Buffs+3092
 1500 004c 00000000 		.word	.LC7
 1501 0050 0C000000 		.word	.LC2
 1502 0054 08000000 		.word	.LC1
 1503              		.cfi_endproc
 1504              	.LFE1172:
 1506              		.section	.rodata.Wifi_SetMode.str1.4,"aMS",%progbits,1
 1507              		.align	2
ARM GAS  /var/folders/9y/n02fl3g16gnf7ppy14xghdy80000gn/T//ccqH5YoF.s 			page 36


 1508              	.LC8:
 1509 0000 41542B43 		.ascii	"AT+CWMODE=%d\015\012\000"
 1509      574D4F44 
 1509      453D2564 
 1509      0D0A00
 1510              		.section	.text.Wifi_SetMode,"ax",%progbits
 1511              		.align	1
 1512              		.global	Wifi_SetMode
 1513              		.syntax unified
 1514              		.thumb
 1515              		.thumb_func
 1516              		.fpu fpv4-sp-d16
 1518              	Wifi_SetMode:
 1519              	.LVL132:
 1520              	.LFB1173:
 322:Core/Src/esp32.c **** // ################################################################################################
 323:Core/Src/esp32.c **** // ################################################################################################
 324:Core/Src/esp32.c **** // ################################################################################################
 325:Core/Src/esp32.c **** // ################################################################################################
 326:Core/Src/esp32.c **** bool Wifi_SetMode(WifiMode_t WifiMode_)
 327:Core/Src/esp32.c **** {
 1521              		.loc 1 327 1 is_stmt 1 view -0
 1522              		.cfi_startproc
 1523              		@ args = 0, pretend = 0, frame = 8
 1524              		@ frame_needed = 0, uses_anonymous_args = 0
 1525              		.loc 1 327 1 is_stmt 0 view .LVU349
 1526 0000 30B5     		push	{r4, r5, lr}
 1527              		.cfi_def_cfa_offset 12
 1528              		.cfi_offset 4, -12
 1529              		.cfi_offset 5, -8
 1530              		.cfi_offset 14, -4
 1531 0002 85B0     		sub	sp, sp, #20
 1532              		.cfi_def_cfa_offset 32
 1533 0004 0446     		mov	r4, r0
 328:Core/Src/esp32.c ****     uint8_t result;
 1534              		.loc 1 328 5 is_stmt 1 view .LVU350
 329:Core/Src/esp32.c ****     bool returnVal = false;
 1535              		.loc 1 329 5 view .LVU351
 1536              	.LVL133:
 330:Core/Src/esp32.c ****     do
 1537              		.loc 1 330 5 view .LVU352
 331:Core/Src/esp32.c ****     {
 332:Core/Src/esp32.c ****         Wifi_RxClear();
 1538              		.loc 1 332 9 view .LVU353
 1539 0006 FFF7FEFF 		bl	Wifi_RxClear
 1540              	.LVL134:
 333:Core/Src/esp32.c ****         sprintf((char *)Buffs.TxBuffer, "AT+CWMODE=%d\r\n", WifiMode_);
 1541              		.loc 1 333 9 view .LVU354
 1542 000a 104D     		ldr	r5, .L134
 1543 000c 2246     		mov	r2, r4
 1544 000e 1049     		ldr	r1, .L134+4
 1545 0010 2846     		mov	r0, r5
 1546 0012 FFF7FEFF 		bl	sprintf
 1547              	.LVL135:
 334:Core/Src/esp32.c ****         if (Wifi_SendString((char *)Buffs.TxBuffer) == false)
 1548              		.loc 1 334 9 view .LVU355
 1549              		.loc 1 334 13 is_stmt 0 view .LVU356
ARM GAS  /var/folders/9y/n02fl3g16gnf7ppy14xghdy80000gn/T//ccqH5YoF.s 			page 37


 1550 0016 2846     		mov	r0, r5
 1551 0018 FFF7FEFF 		bl	Wifi_SendString
 1552              	.LVL136:
 1553              		.loc 1 334 12 view .LVU357
 1554 001c 08B9     		cbnz	r0, .L133
 1555              	.LVL137:
 1556              	.L130:
 335:Core/Src/esp32.c ****             break;
 336:Core/Src/esp32.c ****         if (Wifi_WaitForString(_WIFI_WAIT_TIME_LOW, &result, 2, "OK", "ERROR") == false)
 337:Core/Src/esp32.c ****             break;       // The timeout was completed and the string was not there
 338:Core/Src/esp32.c ****         if (result == 2) // It was find the "ERROR" String in the receiving information
 339:Core/Src/esp32.c ****             break;
 340:Core/Src/esp32.c ****         Wifi.Mode = WifiMode_;
 341:Core/Src/esp32.c ****         returnVal = true;
 342:Core/Src/esp32.c ****     } while (0);
 1557              		.loc 1 342 13 is_stmt 1 view .LVU358
 343:Core/Src/esp32.c ****     return returnVal;
 1558              		.loc 1 343 5 view .LVU359
 344:Core/Src/esp32.c **** }
 1559              		.loc 1 344 1 is_stmt 0 view .LVU360
 1560 001e 05B0     		add	sp, sp, #20
 1561              		.cfi_remember_state
 1562              		.cfi_def_cfa_offset 12
 1563              		@ sp needed
 1564 0020 30BD     		pop	{r4, r5, pc}
 1565              	.LVL138:
 1566              	.L133:
 1567              		.cfi_restore_state
 336:Core/Src/esp32.c ****             break;       // The timeout was completed and the string was not there
 1568              		.loc 1 336 9 is_stmt 1 view .LVU361
 336:Core/Src/esp32.c ****             break;       // The timeout was completed and the string was not there
 1569              		.loc 1 336 13 is_stmt 0 view .LVU362
 1570 0022 0C4B     		ldr	r3, .L134+8
 1571 0024 0093     		str	r3, [sp]
 1572 0026 0C4B     		ldr	r3, .L134+12
 1573 0028 0222     		movs	r2, #2
 1574 002a 0DF10F01 		add	r1, sp, #15
 1575 002e 4FF47A70 		mov	r0, #1000
 1576 0032 FFF7FEFF 		bl	Wifi_WaitForString
 1577              	.LVL139:
 336:Core/Src/esp32.c ****             break;       // The timeout was completed and the string was not there
 1578              		.loc 1 336 12 view .LVU363
 1579 0036 0028     		cmp	r0, #0
 1580 0038 F1D0     		beq	.L130
 338:Core/Src/esp32.c ****             break;
 1581              		.loc 1 338 9 is_stmt 1 view .LVU364
 338:Core/Src/esp32.c ****             break;
 1582              		.loc 1 338 20 is_stmt 0 view .LVU365
 1583 003a 9DF80F30 		ldrb	r3, [sp, #15]	@ zero_extendqisi2
 338:Core/Src/esp32.c ****             break;
 1584              		.loc 1 338 12 view .LVU366
 1585 003e 022B     		cmp	r3, #2
 1586 0040 02D0     		beq	.L131
 340:Core/Src/esp32.c ****         returnVal = true;
 1587              		.loc 1 340 9 is_stmt 1 view .LVU367
 340:Core/Src/esp32.c ****         returnVal = true;
 1588              		.loc 1 340 19 is_stmt 0 view .LVU368
ARM GAS  /var/folders/9y/n02fl3g16gnf7ppy14xghdy80000gn/T//ccqH5YoF.s 			page 38


 1589 0042 064B     		ldr	r3, .L134+16
 1590 0044 1C70     		strb	r4, [r3]
 341:Core/Src/esp32.c ****     } while (0);
 1591              		.loc 1 341 9 is_stmt 1 view .LVU369
 1592              	.LVL140:
 341:Core/Src/esp32.c ****     } while (0);
 1593              		.loc 1 341 9 is_stmt 0 view .LVU370
 1594 0046 EAE7     		b	.L130
 1595              	.LVL141:
 1596              	.L131:
 329:Core/Src/esp32.c ****     do
 1597              		.loc 1 329 10 view .LVU371
 1598 0048 0020     		movs	r0, #0
 1599 004a E8E7     		b	.L130
 1600              	.L135:
 1601              		.align	2
 1602              	.L134:
 1603 004c 140C0000 		.word	Buffs+3092
 1604 0050 00000000 		.word	.LC8
 1605 0054 0C000000 		.word	.LC2
 1606 0058 08000000 		.word	.LC1
 1607 005c 00000000 		.word	.LANCHOR0
 1608              		.cfi_endproc
 1609              	.LFE1173:
 1611              		.section	.rodata.Wifi_GetMode.str1.4,"aMS",%progbits,1
 1612              		.align	2
 1613              	.LC9:
 1614 0000 41542B43 		.ascii	"AT+CWMODE?\015\012\000"
 1614      574D4F44 
 1614      453F0D0A 
 1614      00
 1615 000d 000000   		.align	2
 1616              	.LC10:
 1617 0010 3A00     		.ascii	":\000"
 1618              		.section	.text.Wifi_GetMode,"ax",%progbits
 1619              		.align	1
 1620              		.global	Wifi_GetMode
 1621              		.syntax unified
 1622              		.thumb
 1623              		.thumb_func
 1624              		.fpu fpv4-sp-d16
 1626              	Wifi_GetMode:
 1627              	.LFB1174:
 345:Core/Src/esp32.c **** // ################################################################################################
 346:Core/Src/esp32.c **** bool Wifi_GetMode(void)
 347:Core/Src/esp32.c **** {
 1628              		.loc 1 347 1 is_stmt 1 view -0
 1629              		.cfi_startproc
 1630              		@ args = 0, pretend = 0, frame = 8
 1631              		@ frame_needed = 0, uses_anonymous_args = 0
 1632 0000 10B5     		push	{r4, lr}
 1633              		.cfi_def_cfa_offset 8
 1634              		.cfi_offset 4, -8
 1635              		.cfi_offset 14, -4
 1636 0002 84B0     		sub	sp, sp, #16
 1637              		.cfi_def_cfa_offset 24
 348:Core/Src/esp32.c ****     uint8_t result;
ARM GAS  /var/folders/9y/n02fl3g16gnf7ppy14xghdy80000gn/T//ccqH5YoF.s 			page 39


 1638              		.loc 1 348 5 view .LVU373
 349:Core/Src/esp32.c ****     bool returnVal = false;
 1639              		.loc 1 349 5 view .LVU374
 1640              	.LVL142:
 350:Core/Src/esp32.c ****     do
 1641              		.loc 1 350 5 view .LVU375
 351:Core/Src/esp32.c ****     {
 352:Core/Src/esp32.c ****         Wifi_RxClear();
 1642              		.loc 1 352 9 view .LVU376
 1643 0004 FFF7FEFF 		bl	Wifi_RxClear
 1644              	.LVL143:
 353:Core/Src/esp32.c ****         sprintf((char *)Buffs.TxBuffer, "AT+CWMODE?\r\n");
 1645              		.loc 1 353 9 view .LVU377
 1646 0008 194C     		ldr	r4, .L143
 1647 000a 1A4B     		ldr	r3, .L143+4
 1648 000c A446     		mov	ip, r4
 1649 000e 0FCB     		ldm	r3, {r0, r1, r2, r3}
 1650 0010 ACE80700 		stmia	ip!, {r0, r1, r2}
 1651 0014 8CF80030 		strb	r3, [ip]
 354:Core/Src/esp32.c ****         if (Wifi_SendString((char *)Buffs.TxBuffer) == false)
 1652              		.loc 1 354 9 view .LVU378
 1653              		.loc 1 354 13 is_stmt 0 view .LVU379
 1654 0018 2046     		mov	r0, r4
 1655 001a FFF7FEFF 		bl	Wifi_SendString
 1656              	.LVL144:
 1657              		.loc 1 354 12 view .LVU380
 1658 001e 0446     		mov	r4, r0
 1659 0020 10B9     		cbnz	r0, .L141
 1660              	.L137:
 1661              	.LVL145:
 355:Core/Src/esp32.c ****             break;
 356:Core/Src/esp32.c ****         if (Wifi_WaitForString(_WIFI_WAIT_TIME_LOW, &result, 2, "OK", "ERROR") == false)
 357:Core/Src/esp32.c ****             break;       // The timeout was completed and the string was not there
 358:Core/Src/esp32.c ****         if (result == 2) // It was find the "ERROR" String in the receiving information
 359:Core/Src/esp32.c ****             break;
 360:Core/Src/esp32.c **** 
 361:Core/Src/esp32.c ****         if (Wifi_ReturnInteger((int32_t *)&result, 1, ":"))
 362:Core/Src/esp32.c ****             Wifi.Mode = (WifiMode_t)result;
 363:Core/Src/esp32.c ****         else
 364:Core/Src/esp32.c ****             Wifi.Mode = WifiMode_Error;
 365:Core/Src/esp32.c ****         returnVal = true;
 366:Core/Src/esp32.c ****     } while (0);
 1662              		.loc 1 366 13 is_stmt 1 view .LVU381
 367:Core/Src/esp32.c ****     return returnVal;
 1663              		.loc 1 367 5 view .LVU382
 368:Core/Src/esp32.c **** }
 1664              		.loc 1 368 1 is_stmt 0 view .LVU383
 1665 0022 2046     		mov	r0, r4
 1666 0024 04B0     		add	sp, sp, #16
 1667              		.cfi_remember_state
 1668              		.cfi_def_cfa_offset 8
 1669              		@ sp needed
 1670 0026 10BD     		pop	{r4, pc}
 1671              	.LVL146:
 1672              	.L141:
 1673              		.cfi_restore_state
 356:Core/Src/esp32.c ****             break;       // The timeout was completed and the string was not there
ARM GAS  /var/folders/9y/n02fl3g16gnf7ppy14xghdy80000gn/T//ccqH5YoF.s 			page 40


 1674              		.loc 1 356 9 is_stmt 1 view .LVU384
 356:Core/Src/esp32.c ****             break;       // The timeout was completed and the string was not there
 1675              		.loc 1 356 13 is_stmt 0 view .LVU385
 1676 0028 134B     		ldr	r3, .L143+8
 1677 002a 0093     		str	r3, [sp]
 1678 002c 134B     		ldr	r3, .L143+12
 1679 002e 0222     		movs	r2, #2
 1680 0030 0DF10F01 		add	r1, sp, #15
 1681 0034 4FF47A70 		mov	r0, #1000
 1682 0038 FFF7FEFF 		bl	Wifi_WaitForString
 1683              	.LVL147:
 356:Core/Src/esp32.c ****             break;       // The timeout was completed and the string was not there
 1684              		.loc 1 356 12 view .LVU386
 1685 003c 0446     		mov	r4, r0
 1686 003e 0028     		cmp	r0, #0
 1687 0040 EFD0     		beq	.L137
 358:Core/Src/esp32.c ****             break;
 1688              		.loc 1 358 9 is_stmt 1 view .LVU387
 358:Core/Src/esp32.c ****             break;
 1689              		.loc 1 358 20 is_stmt 0 view .LVU388
 1690 0042 9DF80F30 		ldrb	r3, [sp, #15]	@ zero_extendqisi2
 358:Core/Src/esp32.c ****             break;
 1691              		.loc 1 358 12 view .LVU389
 1692 0046 022B     		cmp	r3, #2
 1693 0048 01D1     		bne	.L142
 349:Core/Src/esp32.c ****     do
 1694              		.loc 1 349 10 view .LVU390
 1695 004a 0024     		movs	r4, #0
 1696 004c E9E7     		b	.L137
 1697              	.L142:
 361:Core/Src/esp32.c ****             Wifi.Mode = (WifiMode_t)result;
 1698              		.loc 1 361 9 is_stmt 1 view .LVU391
 361:Core/Src/esp32.c ****             Wifi.Mode = (WifiMode_t)result;
 1699              		.loc 1 361 13 is_stmt 0 view .LVU392
 1700 004e 0C4A     		ldr	r2, .L143+16
 1701 0050 0121     		movs	r1, #1
 1702 0052 0DF10F00 		add	r0, sp, #15
 1703 0056 FFF7FEFF 		bl	Wifi_ReturnInteger
 1704              	.LVL148:
 361:Core/Src/esp32.c ****             Wifi.Mode = (WifiMode_t)result;
 1705              		.loc 1 361 12 view .LVU393
 1706 005a 28B1     		cbz	r0, .L138
 362:Core/Src/esp32.c ****         else
 1707              		.loc 1 362 13 is_stmt 1 view .LVU394
 362:Core/Src/esp32.c ****         else
 1708              		.loc 1 362 23 is_stmt 0 view .LVU395
 1709 005c 9DF80F10 		ldrb	r1, [sp, #15]	@ zero_extendqisi2
 1710 0060 084A     		ldr	r2, .L143+20
 1711 0062 1170     		strb	r1, [r2]
 365:Core/Src/esp32.c ****     } while (0);
 1712              		.loc 1 365 19 view .LVU396
 1713 0064 0446     		mov	r4, r0
 1714 0066 DCE7     		b	.L137
 1715              	.L138:
 364:Core/Src/esp32.c ****         returnVal = true;
 1716              		.loc 1 364 13 is_stmt 1 view .LVU397
 364:Core/Src/esp32.c ****         returnVal = true;
ARM GAS  /var/folders/9y/n02fl3g16gnf7ppy14xghdy80000gn/T//ccqH5YoF.s 			page 41


 1717              		.loc 1 364 23 is_stmt 0 view .LVU398
 1718 0068 064B     		ldr	r3, .L143+20
 1719 006a 0022     		movs	r2, #0
 1720 006c 1A70     		strb	r2, [r3]
 1721 006e D8E7     		b	.L137
 1722              	.L144:
 1723              		.align	2
 1724              	.L143:
 1725 0070 140C0000 		.word	Buffs+3092
 1726 0074 00000000 		.word	.LC9
 1727 0078 0C000000 		.word	.LC2
 1728 007c 08000000 		.word	.LC1
 1729 0080 10000000 		.word	.LC10
 1730 0084 00000000 		.word	.LANCHOR0
 1731              		.cfi_endproc
 1732              	.LFE1174:
 1734              		.section	.rodata.Wifi_GetMyIp.str1.4,"aMS",%progbits,1
 1735              		.align	2
 1736              	.LC11:
 1737 0000 41542B43 		.ascii	"AT+CIFSR\015\012\000"
 1737      49465352 
 1737      0D0A00
 1738 000b 00       		.align	2
 1739              	.LC12:
 1740 000c 41542B43 		.ascii	"AT+CIFSR\015\015\012+CIFSR:APIP,\"%[^\"]\000"
 1740      49465352 
 1740      0D0D0A2B 
 1740      43494653 
 1740      523A4150 
 1741 002a 0000     		.align	2
 1742              	.LC13:
 1743 002c 41542B43 		.ascii	"AT+CIFSR\015\015\012+CIFSR:STAIP,\"%[^\"]\000"
 1743      49465352 
 1743      0D0D0A2B 
 1743      43494653 
 1743      523A5354 
 1744              		.section	.text.Wifi_GetMyIp,"ax",%progbits
 1745              		.align	1
 1746              		.global	Wifi_GetMyIp
 1747              		.syntax unified
 1748              		.thumb
 1749              		.thumb_func
 1750              		.fpu fpv4-sp-d16
 1752              	Wifi_GetMyIp:
 1753              	.LFB1175:
 369:Core/Src/esp32.c **** bool Wifi_GetMyIp(void)
 370:Core/Src/esp32.c **** {
 1754              		.loc 1 370 1 is_stmt 1 view -0
 1755              		.cfi_startproc
 1756              		@ args = 0, pretend = 0, frame = 8
 1757              		@ frame_needed = 0, uses_anonymous_args = 0
 1758 0000 70B5     		push	{r4, r5, r6, lr}
 1759              		.cfi_def_cfa_offset 16
 1760              		.cfi_offset 4, -16
 1761              		.cfi_offset 5, -12
 1762              		.cfi_offset 6, -8
 1763              		.cfi_offset 14, -4
ARM GAS  /var/folders/9y/n02fl3g16gnf7ppy14xghdy80000gn/T//ccqH5YoF.s 			page 42


 1764 0002 84B0     		sub	sp, sp, #16
 1765              		.cfi_def_cfa_offset 32
 371:Core/Src/esp32.c ****     uint8_t result;
 1766              		.loc 1 371 5 view .LVU400
 372:Core/Src/esp32.c ****     bool returnVal = false;
 1767              		.loc 1 372 5 view .LVU401
 1768              	.LVL149:
 373:Core/Src/esp32.c ****     do
 1769              		.loc 1 373 5 view .LVU402
 374:Core/Src/esp32.c ****     {
 375:Core/Src/esp32.c ****         Wifi_RxClear();
 1770              		.loc 1 375 9 view .LVU403
 1771 0004 FFF7FEFF 		bl	Wifi_RxClear
 1772              	.LVL150:
 376:Core/Src/esp32.c ****         sprintf((char *)Buffs.TxBuffer, "AT+CIFSR\r\n");
 1773              		.loc 1 376 9 view .LVU404
 1774 0008 194C     		ldr	r4, .L151
 1775 000a 1A4A     		ldr	r2, .L151+4
 1776 000c 2346     		mov	r3, r4
 1777 000e 07CA     		ldm	r2, {r0, r1, r2}
 1778 0010 03C3     		stmia	r3!, {r0, r1}
 1779 0012 23F8022B 		strh	r2, [r3], #2	@ movhi
 1780 0016 120C     		lsrs	r2, r2, #16
 1781 0018 1A70     		strb	r2, [r3]
 377:Core/Src/esp32.c ****         if (Wifi_SendString((char *)Buffs.TxBuffer) == false)
 1782              		.loc 1 377 9 view .LVU405
 1783              		.loc 1 377 13 is_stmt 0 view .LVU406
 1784 001a 2046     		mov	r0, r4
 1785 001c FFF7FEFF 		bl	Wifi_SendString
 1786              	.LVL151:
 1787              		.loc 1 377 12 view .LVU407
 1788 0020 0446     		mov	r4, r0
 1789 0022 10B9     		cbnz	r0, .L149
 1790              	.LVL152:
 1791              	.L146:
 378:Core/Src/esp32.c ****             break;
 379:Core/Src/esp32.c ****         if (Wifi_WaitForString(_WIFI_WAIT_TIME_LOW, &result, 2, "OK", "ERROR") == false)
 380:Core/Src/esp32.c ****             break;       // The timeout was completed and the string was not there
 381:Core/Src/esp32.c ****         if (result == 2) // It was find the "ERROR" String in the receiving information
 382:Core/Src/esp32.c ****             break;
 383:Core/Src/esp32.c ****         sscanf((char *)Buffs.RxBuffer.buff, "AT+CIFSR\r\r\n+CIFSR:APIP,\"%[^\"]", Wifi.MyIP);
 384:Core/Src/esp32.c ****         sscanf((char *)Buffs.RxBuffer.buff, "AT+CIFSR\r\r\n+CIFSR:STAIP,\"%[^\"]", Wifi.MyIP);
 385:Core/Src/esp32.c ****         returnVal = true;
 386:Core/Src/esp32.c ****     } while (0);
 1792              		.loc 1 386 13 is_stmt 1 view .LVU408
 387:Core/Src/esp32.c ****     return returnVal;
 1793              		.loc 1 387 5 view .LVU409
 388:Core/Src/esp32.c **** }
 1794              		.loc 1 388 1 is_stmt 0 view .LVU410
 1795 0024 2046     		mov	r0, r4
 1796 0026 04B0     		add	sp, sp, #16
 1797              		.cfi_remember_state
 1798              		.cfi_def_cfa_offset 16
 1799              		@ sp needed
 1800 0028 70BD     		pop	{r4, r5, r6, pc}
 1801              	.LVL153:
 1802              	.L149:
ARM GAS  /var/folders/9y/n02fl3g16gnf7ppy14xghdy80000gn/T//ccqH5YoF.s 			page 43


 1803              		.cfi_restore_state
 379:Core/Src/esp32.c ****             break;       // The timeout was completed and the string was not there
 1804              		.loc 1 379 9 is_stmt 1 view .LVU411
 379:Core/Src/esp32.c ****             break;       // The timeout was completed and the string was not there
 1805              		.loc 1 379 13 is_stmt 0 view .LVU412
 1806 002a 134B     		ldr	r3, .L151+8
 1807 002c 0093     		str	r3, [sp]
 1808 002e 134B     		ldr	r3, .L151+12
 1809 0030 0222     		movs	r2, #2
 1810 0032 0DF10F01 		add	r1, sp, #15
 1811 0036 4FF47A70 		mov	r0, #1000
 1812 003a FFF7FEFF 		bl	Wifi_WaitForString
 1813              	.LVL154:
 379:Core/Src/esp32.c ****             break;       // The timeout was completed and the string was not there
 1814              		.loc 1 379 12 view .LVU413
 1815 003e 0446     		mov	r4, r0
 1816 0040 0028     		cmp	r0, #0
 1817 0042 EFD0     		beq	.L146
 381:Core/Src/esp32.c ****             break;
 1818              		.loc 1 381 9 is_stmt 1 view .LVU414
 381:Core/Src/esp32.c ****             break;
 1819              		.loc 1 381 20 is_stmt 0 view .LVU415
 1820 0044 9DF80F30 		ldrb	r3, [sp, #15]	@ zero_extendqisi2
 381:Core/Src/esp32.c ****             break;
 1821              		.loc 1 381 12 view .LVU416
 1822 0048 022B     		cmp	r3, #2
 1823 004a 01D1     		bne	.L150
 372:Core/Src/esp32.c ****     do
 1824              		.loc 1 372 10 view .LVU417
 1825 004c 0024     		movs	r4, #0
 1826 004e E9E7     		b	.L146
 1827              	.L150:
 383:Core/Src/esp32.c ****         sscanf((char *)Buffs.RxBuffer.buff, "AT+CIFSR\r\r\n+CIFSR:STAIP,\"%[^\"]", Wifi.MyIP);
 1828              		.loc 1 383 9 is_stmt 1 view .LVU418
 383:Core/Src/esp32.c ****         sscanf((char *)Buffs.RxBuffer.buff, "AT+CIFSR\r\r\n+CIFSR:STAIP,\"%[^\"]", Wifi.MyIP);
 1829              		.loc 1 383 38 is_stmt 0 view .LVU419
 1830 0050 0B4D     		ldr	r5, .L151+16
 383:Core/Src/esp32.c ****         sscanf((char *)Buffs.RxBuffer.buff, "AT+CIFSR\r\r\n+CIFSR:STAIP,\"%[^\"]", Wifi.MyIP);
 1831              		.loc 1 383 9 view .LVU420
 1832 0052 0C4E     		ldr	r6, .L151+20
 1833 0054 3246     		mov	r2, r6
 1834 0056 0C49     		ldr	r1, .L151+24
 1835 0058 D5F80008 		ldr	r0, [r5, #2048]
 1836 005c FFF7FEFF 		bl	sscanf
 1837              	.LVL155:
 384:Core/Src/esp32.c ****         returnVal = true;
 1838              		.loc 1 384 9 is_stmt 1 view .LVU421
 1839 0060 3246     		mov	r2, r6
 1840 0062 0A49     		ldr	r1, .L151+28
 1841 0064 D5F80008 		ldr	r0, [r5, #2048]
 1842 0068 FFF7FEFF 		bl	sscanf
 1843              	.LVL156:
 385:Core/Src/esp32.c ****     } while (0);
 1844              		.loc 1 385 9 view .LVU422
 385:Core/Src/esp32.c ****     } while (0);
 1845              		.loc 1 385 9 is_stmt 0 view .LVU423
 1846 006c DAE7     		b	.L146
ARM GAS  /var/folders/9y/n02fl3g16gnf7ppy14xghdy80000gn/T//ccqH5YoF.s 			page 44


 1847              	.L152:
 1848 006e 00BF     		.align	2
 1849              	.L151:
 1850 0070 140C0000 		.word	Buffs+3092
 1851 0074 00000000 		.word	.LC11
 1852 0078 0C000000 		.word	.LC2
 1853 007c 08000000 		.word	.LC1
 1854 0080 00000000 		.word	Buffs
 1855 0084 01000000 		.word	.LANCHOR0+1
 1856 0088 0C000000 		.word	.LC12
 1857 008c 2C000000 		.word	.LC13
 1858              		.cfi_endproc
 1859              	.LFE1175:
 1861              		.section	.rodata.Wifi_Station_ConnectToAp.str1.4,"aMS",%progbits,1
 1862              		.align	2
 1863              	.LC14:
 1864 0000 41542B43 		.ascii	"AT+CWJAP=\"%s\",\"%s\"\015\012\000"
 1864      574A4150 
 1864      3D222573 
 1864      222C2225 
 1864      73220D0A 
 1865 0015 000000   		.align	2
 1866              	.LC15:
 1867 0018 41542B43 		.ascii	"AT+CWJAP=\"%s\",\"%s\",\"%s\"\015\012\000"
 1867      574A4150 
 1867      3D222573 
 1867      222C2225 
 1867      73222C22 
 1868 0032 0000     		.align	2
 1869              	.LC16:
 1870 0034 0D0A4F4B 		.ascii	"\015\012OK\015\012\000"
 1870      0D0A00
 1871 003b 00       		.align	2
 1872              	.LC17:
 1873 003c 0D0A4641 		.ascii	"\015\012FAIL\015\012\000"
 1873      494C0D0A 
 1873      00
 1874 0045 000000   		.align	2
 1875              	.LC18:
 1876 0048 0D0A4552 		.ascii	"\015\012ERROR\015\012\000"
 1876      524F520D 
 1876      0A00
 1877              		.section	.text.Wifi_Station_ConnectToAp,"ax",%progbits
 1878              		.align	1
 1879              		.global	Wifi_Station_ConnectToAp
 1880              		.syntax unified
 1881              		.thumb
 1882              		.thumb_func
 1883              		.fpu fpv4-sp-d16
 1885              	Wifi_Station_ConnectToAp:
 1886              	.LVL157:
 1887              	.LFB1176:
 389:Core/Src/esp32.c **** // ################################################################################################
 390:Core/Src/esp32.c **** // ################################################################################################
 391:Core/Src/esp32.c **** // ################################################################################################
 392:Core/Src/esp32.c **** // ################################################################################################
 393:Core/Src/esp32.c **** bool Wifi_Station_ConnectToAp(char *SSID, char *Pass, char *MAC)
ARM GAS  /var/folders/9y/n02fl3g16gnf7ppy14xghdy80000gn/T//ccqH5YoF.s 			page 45


 394:Core/Src/esp32.c **** {
 1888              		.loc 1 394 1 is_stmt 1 view -0
 1889              		.cfi_startproc
 1890              		@ args = 0, pretend = 0, frame = 8
 1891              		@ frame_needed = 0, uses_anonymous_args = 0
 1892              		.loc 1 394 1 is_stmt 0 view .LVU425
 1893 0000 70B5     		push	{r4, r5, r6, lr}
 1894              		.cfi_def_cfa_offset 16
 1895              		.cfi_offset 4, -16
 1896              		.cfi_offset 5, -12
 1897              		.cfi_offset 6, -8
 1898              		.cfi_offset 14, -4
 1899 0002 84B0     		sub	sp, sp, #16
 1900              		.cfi_def_cfa_offset 32
 1901 0004 0546     		mov	r5, r0
 1902 0006 0E46     		mov	r6, r1
 1903 0008 1446     		mov	r4, r2
 395:Core/Src/esp32.c ****     uint8_t result;
 1904              		.loc 1 395 5 is_stmt 1 view .LVU426
 396:Core/Src/esp32.c ****     bool returnVal = false;
 1905              		.loc 1 396 5 view .LVU427
 1906              	.LVL158:
 397:Core/Src/esp32.c ****     do
 1907              		.loc 1 397 5 view .LVU428
 398:Core/Src/esp32.c ****     {
 399:Core/Src/esp32.c ****         /*
 400:Core/Src/esp32.c ****          * It connects to a WiFi network who has all the parameters correctly
 401:Core/Src/esp32.c ****          */
 402:Core/Src/esp32.c ****         Wifi_RxClear();
 1908              		.loc 1 402 9 view .LVU429
 1909 000a FFF7FEFF 		bl	Wifi_RxClear
 1910              	.LVL159:
 403:Core/Src/esp32.c ****         if (MAC == NULL)
 1911              		.loc 1 403 9 view .LVU430
 1912              		.loc 1 403 12 is_stmt 0 view .LVU431
 1913 000e 64B1     		cbz	r4, .L158
 404:Core/Src/esp32.c ****             sprintf((char *)Buffs.TxBuffer, "AT+CWJAP=\"%s\",\"%s\"\r\n", SSID, Pass);
 405:Core/Src/esp32.c ****         else
 406:Core/Src/esp32.c ****             sprintf((char *)Buffs.TxBuffer, "AT+CWJAP=\"%s\",\"%s\",\"%s\"\r\n", SSID, Pass, MAC);
 1914              		.loc 1 406 13 is_stmt 1 view .LVU432
 1915 0010 0094     		str	r4, [sp]
 1916 0012 3346     		mov	r3, r6
 1917 0014 2A46     		mov	r2, r5
 1918 0016 1249     		ldr	r1, .L160
 1919 0018 1248     		ldr	r0, .L160+4
 1920 001a FFF7FEFF 		bl	sprintf
 1921              	.LVL160:
 1922              	.L155:
 407:Core/Src/esp32.c ****         if (Wifi_SendString((char *)Buffs.TxBuffer) == false)
 1923              		.loc 1 407 9 view .LVU433
 1924              		.loc 1 407 13 is_stmt 0 view .LVU434
 1925 001e 1148     		ldr	r0, .L160+4
 1926 0020 FFF7FEFF 		bl	Wifi_SendString
 1927              	.LVL161:
 1928              		.loc 1 407 12 view .LVU435
 1929 0024 40B9     		cbnz	r0, .L159
 1930              	.L156:
ARM GAS  /var/folders/9y/n02fl3g16gnf7ppy14xghdy80000gn/T//ccqH5YoF.s 			page 46


 1931              	.LVL162:
 408:Core/Src/esp32.c ****             break;
 409:Core/Src/esp32.c ****         if (Wifi_WaitForString(_WIFI_WAIT_TIME_VERYHIGH, &result, 3, "\r\nOK\r\n", "\r\nERROR\r\n",
 410:Core/Src/esp32.c ****             break;
 411:Core/Src/esp32.c ****         if (result > 1) // If the result is higher to 1 is because there were an error
 412:Core/Src/esp32.c ****             break;      // in the communication
 413:Core/Src/esp32.c ****         returnVal = true;
 414:Core/Src/esp32.c ****     } while (0);
 1932              		.loc 1 414 13 is_stmt 1 view .LVU436
 415:Core/Src/esp32.c ****     return returnVal;
 1933              		.loc 1 415 5 view .LVU437
 416:Core/Src/esp32.c **** }
 1934              		.loc 1 416 1 is_stmt 0 view .LVU438
 1935 0026 04B0     		add	sp, sp, #16
 1936              		.cfi_remember_state
 1937              		.cfi_def_cfa_offset 16
 1938              		@ sp needed
 1939 0028 70BD     		pop	{r4, r5, r6, pc}
 1940              	.LVL163:
 1941              	.L158:
 1942              		.cfi_restore_state
 404:Core/Src/esp32.c ****         else
 1943              		.loc 1 404 13 is_stmt 1 view .LVU439
 1944 002a 3346     		mov	r3, r6
 1945 002c 2A46     		mov	r2, r5
 1946 002e 0E49     		ldr	r1, .L160+8
 1947 0030 0C48     		ldr	r0, .L160+4
 1948 0032 FFF7FEFF 		bl	sprintf
 1949              	.LVL164:
 1950 0036 F2E7     		b	.L155
 1951              	.L159:
 409:Core/Src/esp32.c ****             break;
 1952              		.loc 1 409 9 view .LVU440
 409:Core/Src/esp32.c ****             break;
 1953              		.loc 1 409 13 is_stmt 0 view .LVU441
 1954 0038 0C4B     		ldr	r3, .L160+12
 1955 003a 0193     		str	r3, [sp, #4]
 1956 003c 0C4B     		ldr	r3, .L160+16
 1957 003e 0093     		str	r3, [sp]
 1958 0040 0C4B     		ldr	r3, .L160+20
 1959 0042 0322     		movs	r2, #3
 1960 0044 0DF10F01 		add	r1, sp, #15
 1961 0048 46F2A810 		movw	r0, #25000
 1962 004c FFF7FEFF 		bl	Wifi_WaitForString
 1963              	.LVL165:
 409:Core/Src/esp32.c ****             break;
 1964              		.loc 1 409 12 view .LVU442
 1965 0050 0028     		cmp	r0, #0
 1966 0052 E8D0     		beq	.L156
 411:Core/Src/esp32.c ****             break;      // in the communication
 1967              		.loc 1 411 9 is_stmt 1 view .LVU443
 411:Core/Src/esp32.c ****             break;      // in the communication
 1968              		.loc 1 411 20 is_stmt 0 view .LVU444
 1969 0054 9DF80F30 		ldrb	r3, [sp, #15]	@ zero_extendqisi2
 411:Core/Src/esp32.c ****             break;      // in the communication
 1970              		.loc 1 411 12 view .LVU445
 1971 0058 012B     		cmp	r3, #1
ARM GAS  /var/folders/9y/n02fl3g16gnf7ppy14xghdy80000gn/T//ccqH5YoF.s 			page 47


 1972 005a E4D9     		bls	.L156
 396:Core/Src/esp32.c ****     do
 1973              		.loc 1 396 10 view .LVU446
 1974 005c 0020     		movs	r0, #0
 1975 005e E2E7     		b	.L156
 1976              	.L161:
 1977              		.align	2
 1978              	.L160:
 1979 0060 18000000 		.word	.LC15
 1980 0064 140C0000 		.word	Buffs+3092
 1981 0068 00000000 		.word	.LC14
 1982 006c 3C000000 		.word	.LC17
 1983 0070 48000000 		.word	.LC18
 1984 0074 34000000 		.word	.LC16
 1985              		.cfi_endproc
 1986              	.LFE1176:
 1988              		.section	.rodata.Wifi_Station_Disconnect.str1.4,"aMS",%progbits,1
 1989              		.align	2
 1990              	.LC19:
 1991 0000 41542B43 		.ascii	"AT+CWQAP\015\012\000"
 1991      57514150 
 1991      0D0A00
 1992              		.section	.text.Wifi_Station_Disconnect,"ax",%progbits
 1993              		.align	1
 1994              		.global	Wifi_Station_Disconnect
 1995              		.syntax unified
 1996              		.thumb
 1997              		.thumb_func
 1998              		.fpu fpv4-sp-d16
 2000              	Wifi_Station_Disconnect:
 2001              	.LFB1177:
 417:Core/Src/esp32.c **** // ################################################################################################
 418:Core/Src/esp32.c **** bool Wifi_Station_Disconnect(void)
 419:Core/Src/esp32.c **** {
 2002              		.loc 1 419 1 is_stmt 1 view -0
 2003              		.cfi_startproc
 2004              		@ args = 0, pretend = 0, frame = 8
 2005              		@ frame_needed = 0, uses_anonymous_args = 0
 2006 0000 10B5     		push	{r4, lr}
 2007              		.cfi_def_cfa_offset 8
 2008              		.cfi_offset 4, -8
 2009              		.cfi_offset 14, -4
 2010 0002 84B0     		sub	sp, sp, #16
 2011              		.cfi_def_cfa_offset 24
 420:Core/Src/esp32.c ****     uint8_t result;
 2012              		.loc 1 420 5 view .LVU448
 421:Core/Src/esp32.c ****     bool returnVal = false;
 2013              		.loc 1 421 5 view .LVU449
 2014              	.LVL166:
 422:Core/Src/esp32.c ****     do
 2015              		.loc 1 422 5 view .LVU450
 423:Core/Src/esp32.c ****     {
 424:Core/Src/esp32.c ****         Wifi_RxClear();
 2016              		.loc 1 424 9 view .LVU451
 2017 0004 FFF7FEFF 		bl	Wifi_RxClear
 2018              	.LVL167:
 425:Core/Src/esp32.c ****         sprintf((char *)Buffs.TxBuffer, "AT+CWQAP\r\n");
ARM GAS  /var/folders/9y/n02fl3g16gnf7ppy14xghdy80000gn/T//ccqH5YoF.s 			page 48


 2019              		.loc 1 425 9 view .LVU452
 2020 0008 104C     		ldr	r4, .L166
 2021 000a 114A     		ldr	r2, .L166+4
 2022 000c 2346     		mov	r3, r4
 2023 000e 07CA     		ldm	r2, {r0, r1, r2}
 2024 0010 03C3     		stmia	r3!, {r0, r1}
 2025 0012 23F8022B 		strh	r2, [r3], #2	@ movhi
 2026 0016 120C     		lsrs	r2, r2, #16
 2027 0018 1A70     		strb	r2, [r3]
 426:Core/Src/esp32.c ****         if (Wifi_SendString((char *)Buffs.TxBuffer) == false)
 2028              		.loc 1 426 9 view .LVU453
 2029              		.loc 1 426 13 is_stmt 0 view .LVU454
 2030 001a 2046     		mov	r0, r4
 2031 001c FFF7FEFF 		bl	Wifi_SendString
 2032              	.LVL168:
 2033              		.loc 1 426 12 view .LVU455
 2034 0020 08B9     		cbnz	r0, .L165
 2035              	.L163:
 2036              	.LVL169:
 427:Core/Src/esp32.c ****             break;
 428:Core/Src/esp32.c ****         if (Wifi_WaitForString(_WIFI_WAIT_TIME_LOW, &result, 2, "OK", "ERROR") == false)
 429:Core/Src/esp32.c ****             break;       // The timeout was completed and the string was not there
 430:Core/Src/esp32.c ****         if (result == 2) // It was find the "ERROR" String in the receiving information
 431:Core/Src/esp32.c ****             break;
 432:Core/Src/esp32.c ****         returnVal = true;
 433:Core/Src/esp32.c ****     } while (0);
 2037              		.loc 1 433 13 is_stmt 1 view .LVU456
 434:Core/Src/esp32.c ****     return returnVal;
 2038              		.loc 1 434 5 view .LVU457
 435:Core/Src/esp32.c **** }
 2039              		.loc 1 435 1 is_stmt 0 view .LVU458
 2040 0022 04B0     		add	sp, sp, #16
 2041              		.cfi_remember_state
 2042              		.cfi_def_cfa_offset 8
 2043              		@ sp needed
 2044 0024 10BD     		pop	{r4, pc}
 2045              	.LVL170:
 2046              	.L165:
 2047              		.cfi_restore_state
 428:Core/Src/esp32.c ****             break;       // The timeout was completed and the string was not there
 2048              		.loc 1 428 9 is_stmt 1 view .LVU459
 428:Core/Src/esp32.c ****             break;       // The timeout was completed and the string was not there
 2049              		.loc 1 428 13 is_stmt 0 view .LVU460
 2050 0026 0B4B     		ldr	r3, .L166+8
 2051 0028 0093     		str	r3, [sp]
 2052 002a 0B4B     		ldr	r3, .L166+12
 2053 002c 0222     		movs	r2, #2
 2054 002e 0DF10F01 		add	r1, sp, #15
 2055 0032 4FF47A70 		mov	r0, #1000
 2056 0036 FFF7FEFF 		bl	Wifi_WaitForString
 2057              	.LVL171:
 428:Core/Src/esp32.c ****             break;       // The timeout was completed and the string was not there
 2058              		.loc 1 428 12 view .LVU461
 2059 003a 0028     		cmp	r0, #0
 2060 003c F1D0     		beq	.L163
 430:Core/Src/esp32.c ****             break;
 2061              		.loc 1 430 9 is_stmt 1 view .LVU462
ARM GAS  /var/folders/9y/n02fl3g16gnf7ppy14xghdy80000gn/T//ccqH5YoF.s 			page 49


 430:Core/Src/esp32.c ****             break;
 2062              		.loc 1 430 20 is_stmt 0 view .LVU463
 2063 003e 9DF80F30 		ldrb	r3, [sp, #15]	@ zero_extendqisi2
 430:Core/Src/esp32.c ****             break;
 2064              		.loc 1 430 12 view .LVU464
 2065 0042 022B     		cmp	r3, #2
 2066 0044 EDD1     		bne	.L163
 421:Core/Src/esp32.c ****     do
 2067              		.loc 1 421 10 view .LVU465
 2068 0046 0020     		movs	r0, #0
 2069 0048 EBE7     		b	.L163
 2070              	.L167:
 2071 004a 00BF     		.align	2
 2072              	.L166:
 2073 004c 140C0000 		.word	Buffs+3092
 2074 0050 00000000 		.word	.LC19
 2075 0054 0C000000 		.word	.LC2
 2076 0058 08000000 		.word	.LC1
 2077              		.cfi_endproc
 2078              	.LFE1177:
 2080              		.section	.rodata.Wifi_Station_SetIp.str1.4,"aMS",%progbits,1
 2081              		.align	2
 2082              	.LC20:
 2083 0000 41542B43 		.ascii	"AT+CIPSTA=\"%s\",\"%s\",\"%s\"\015\012\000"
 2083      49505354 
 2083      413D2225 
 2083      73222C22 
 2083      2573222C 
 2084              		.section	.text.Wifi_Station_SetIp,"ax",%progbits
 2085              		.align	1
 2086              		.global	Wifi_Station_SetIp
 2087              		.syntax unified
 2088              		.thumb
 2089              		.thumb_func
 2090              		.fpu fpv4-sp-d16
 2092              	Wifi_Station_SetIp:
 2093              	.LVL172:
 2094              	.LFB1178:
 436:Core/Src/esp32.c **** // ################################################################################################
 437:Core/Src/esp32.c **** bool Wifi_Station_SetIp(char *IP, char *GateWay, char *NetMask)
 438:Core/Src/esp32.c **** {
 2095              		.loc 1 438 1 is_stmt 1 view -0
 2096              		.cfi_startproc
 2097              		@ args = 0, pretend = 0, frame = 8
 2098              		@ frame_needed = 0, uses_anonymous_args = 0
 2099              		.loc 1 438 1 is_stmt 0 view .LVU467
 2100 0000 F0B5     		push	{r4, r5, r6, r7, lr}
 2101              		.cfi_def_cfa_offset 20
 2102              		.cfi_offset 4, -20
 2103              		.cfi_offset 5, -16
 2104              		.cfi_offset 6, -12
 2105              		.cfi_offset 7, -8
 2106              		.cfi_offset 14, -4
 2107 0002 85B0     		sub	sp, sp, #20
 2108              		.cfi_def_cfa_offset 40
 2109 0004 0446     		mov	r4, r0
 2110 0006 0D46     		mov	r5, r1
ARM GAS  /var/folders/9y/n02fl3g16gnf7ppy14xghdy80000gn/T//ccqH5YoF.s 			page 50


 2111 0008 1646     		mov	r6, r2
 439:Core/Src/esp32.c ****     uint8_t result;
 2112              		.loc 1 439 5 is_stmt 1 view .LVU468
 440:Core/Src/esp32.c ****     bool returnVal = false;
 2113              		.loc 1 440 5 view .LVU469
 2114              	.LVL173:
 441:Core/Src/esp32.c ****     do
 2115              		.loc 1 441 5 view .LVU470
 442:Core/Src/esp32.c ****     {
 443:Core/Src/esp32.c ****         Wifi_RxClear();
 2116              		.loc 1 443 9 view .LVU471
 2117 000a FFF7FEFF 		bl	Wifi_RxClear
 2118              	.LVL174:
 444:Core/Src/esp32.c ****         sprintf((char *)Buffs.TxBuffer, "AT+CIPSTA=\"%s\",\"%s\",\"%s\"\r\n", IP, GateWay, NetMask)
 2119              		.loc 1 444 9 view .LVU472
 2120 000e 124F     		ldr	r7, .L173
 2121 0010 0096     		str	r6, [sp]
 2122 0012 2B46     		mov	r3, r5
 2123 0014 2246     		mov	r2, r4
 2124 0016 1149     		ldr	r1, .L173+4
 2125 0018 3846     		mov	r0, r7
 2126 001a FFF7FEFF 		bl	sprintf
 2127              	.LVL175:
 445:Core/Src/esp32.c ****         if (Wifi_SendString((char *)Buffs.TxBuffer) == false)
 2128              		.loc 1 445 9 view .LVU473
 2129              		.loc 1 445 13 is_stmt 0 view .LVU474
 2130 001e 3846     		mov	r0, r7
 2131 0020 FFF7FEFF 		bl	Wifi_SendString
 2132              	.LVL176:
 2133              		.loc 1 445 12 view .LVU475
 2134 0024 08B9     		cbnz	r0, .L172
 2135              	.LVL177:
 2136              	.L169:
 446:Core/Src/esp32.c ****             break;
 447:Core/Src/esp32.c ****         if (Wifi_WaitForString(_WIFI_WAIT_TIME_LOW, &result, 2, "OK", "ERROR") == false)
 448:Core/Src/esp32.c ****             break;       // The timeout was completed and the string was not there
 449:Core/Src/esp32.c ****         if (result == 2) // It was find the "ERROR" String in the receiving information
 450:Core/Src/esp32.c ****             break;
 451:Core/Src/esp32.c ****         Wifi.StationDhcp = false;
 452:Core/Src/esp32.c ****         returnVal = true;
 453:Core/Src/esp32.c ****     } while (0);
 2137              		.loc 1 453 13 is_stmt 1 view .LVU476
 454:Core/Src/esp32.c ****     return returnVal;
 2138              		.loc 1 454 5 view .LVU477
 455:Core/Src/esp32.c **** }
 2139              		.loc 1 455 1 is_stmt 0 view .LVU478
 2140 0026 05B0     		add	sp, sp, #20
 2141              		.cfi_remember_state
 2142              		.cfi_def_cfa_offset 20
 2143              		@ sp needed
 2144 0028 F0BD     		pop	{r4, r5, r6, r7, pc}
 2145              	.LVL178:
 2146              	.L172:
 2147              		.cfi_restore_state
 447:Core/Src/esp32.c ****             break;       // The timeout was completed and the string was not there
 2148              		.loc 1 447 9 is_stmt 1 view .LVU479
 447:Core/Src/esp32.c ****             break;       // The timeout was completed and the string was not there
ARM GAS  /var/folders/9y/n02fl3g16gnf7ppy14xghdy80000gn/T//ccqH5YoF.s 			page 51


 2149              		.loc 1 447 13 is_stmt 0 view .LVU480
 2150 002a 0D4B     		ldr	r3, .L173+8
 2151 002c 0093     		str	r3, [sp]
 2152 002e 0D4B     		ldr	r3, .L173+12
 2153 0030 0222     		movs	r2, #2
 2154 0032 0DF10F01 		add	r1, sp, #15
 2155 0036 4FF47A70 		mov	r0, #1000
 2156 003a FFF7FEFF 		bl	Wifi_WaitForString
 2157              	.LVL179:
 447:Core/Src/esp32.c ****             break;       // The timeout was completed and the string was not there
 2158              		.loc 1 447 12 view .LVU481
 2159 003e 0028     		cmp	r0, #0
 2160 0040 F1D0     		beq	.L169
 449:Core/Src/esp32.c ****             break;
 2161              		.loc 1 449 9 is_stmt 1 view .LVU482
 449:Core/Src/esp32.c ****             break;
 2162              		.loc 1 449 20 is_stmt 0 view .LVU483
 2163 0042 9DF80F30 		ldrb	r3, [sp, #15]	@ zero_extendqisi2
 449:Core/Src/esp32.c ****             break;
 2164              		.loc 1 449 12 view .LVU484
 2165 0046 022B     		cmp	r3, #2
 2166 0048 04D0     		beq	.L170
 451:Core/Src/esp32.c ****         returnVal = true;
 2167              		.loc 1 451 9 is_stmt 1 view .LVU485
 451:Core/Src/esp32.c ****         returnVal = true;
 2168              		.loc 1 451 26 is_stmt 0 view .LVU486
 2169 004a 074B     		ldr	r3, .L173+16
 2170 004c 0022     		movs	r2, #0
 2171 004e 83F83520 		strb	r2, [r3, #53]
 452:Core/Src/esp32.c ****     } while (0);
 2172              		.loc 1 452 9 is_stmt 1 view .LVU487
 2173              	.LVL180:
 452:Core/Src/esp32.c ****     } while (0);
 2174              		.loc 1 452 9 is_stmt 0 view .LVU488
 2175 0052 E8E7     		b	.L169
 2176              	.LVL181:
 2177              	.L170:
 440:Core/Src/esp32.c ****     do
 2178              		.loc 1 440 10 view .LVU489
 2179 0054 0020     		movs	r0, #0
 2180 0056 E6E7     		b	.L169
 2181              	.L174:
 2182              		.align	2
 2183              	.L173:
 2184 0058 140C0000 		.word	Buffs+3092
 2185 005c 00000000 		.word	.LC20
 2186 0060 0C000000 		.word	.LC2
 2187 0064 08000000 		.word	.LC1
 2188 0068 00000000 		.word	.LANCHOR0
 2189              		.cfi_endproc
 2190              	.LFE1178:
 2192              		.section	.rodata.Wifi_Station_DhcpEnable.str1.4,"aMS",%progbits,1
 2193              		.align	2
 2194              	.LC21:
 2195 0000 41542B43 		.ascii	"AT+CWDHCP=1,%d\015\012\000"
 2195      57444843 
 2195      503D312C 
ARM GAS  /var/folders/9y/n02fl3g16gnf7ppy14xghdy80000gn/T//ccqH5YoF.s 			page 52


 2195      25640D0A 
 2195      00
 2196              		.section	.text.Wifi_Station_DhcpEnable,"ax",%progbits
 2197              		.align	1
 2198              		.global	Wifi_Station_DhcpEnable
 2199              		.syntax unified
 2200              		.thumb
 2201              		.thumb_func
 2202              		.fpu fpv4-sp-d16
 2204              	Wifi_Station_DhcpEnable:
 2205              	.LVL182:
 2206              	.LFB1179:
 456:Core/Src/esp32.c **** // ################################################################################################
 457:Core/Src/esp32.c **** bool Wifi_Station_DhcpEnable(bool Enable)
 458:Core/Src/esp32.c **** {
 2207              		.loc 1 458 1 is_stmt 1 view -0
 2208              		.cfi_startproc
 2209              		@ args = 0, pretend = 0, frame = 8
 2210              		@ frame_needed = 0, uses_anonymous_args = 0
 2211              		.loc 1 458 1 is_stmt 0 view .LVU491
 2212 0000 30B5     		push	{r4, r5, lr}
 2213              		.cfi_def_cfa_offset 12
 2214              		.cfi_offset 4, -12
 2215              		.cfi_offset 5, -8
 2216              		.cfi_offset 14, -4
 2217 0002 85B0     		sub	sp, sp, #20
 2218              		.cfi_def_cfa_offset 32
 2219 0004 0446     		mov	r4, r0
 459:Core/Src/esp32.c ****     uint8_t result;
 2220              		.loc 1 459 5 is_stmt 1 view .LVU492
 460:Core/Src/esp32.c ****     bool returnVal = false;
 2221              		.loc 1 460 5 view .LVU493
 2222              	.LVL183:
 461:Core/Src/esp32.c ****     do
 2223              		.loc 1 461 5 view .LVU494
 462:Core/Src/esp32.c ****     {
 463:Core/Src/esp32.c ****         /*
 464:Core/Src/esp32.c ****          * It makes the DHCP from the Station Mode enable
 465:Core/Src/esp32.c ****          */
 466:Core/Src/esp32.c ****         Wifi_RxClear();
 2224              		.loc 1 466 9 view .LVU495
 2225 0006 FFF7FEFF 		bl	Wifi_RxClear
 2226              	.LVL184:
 467:Core/Src/esp32.c ****         sprintf((char *)Buffs.TxBuffer, "AT+CWDHCP=1,%d\r\n", Enable);
 2227              		.loc 1 467 9 view .LVU496
 2228 000a 114D     		ldr	r5, .L180
 2229 000c 2246     		mov	r2, r4
 2230 000e 1149     		ldr	r1, .L180+4
 2231 0010 2846     		mov	r0, r5
 2232 0012 FFF7FEFF 		bl	sprintf
 2233              	.LVL185:
 468:Core/Src/esp32.c ****         if (Wifi_SendString((char *)Buffs.TxBuffer) == false)
 2234              		.loc 1 468 9 view .LVU497
 2235              		.loc 1 468 13 is_stmt 0 view .LVU498
 2236 0016 2846     		mov	r0, r5
 2237 0018 FFF7FEFF 		bl	Wifi_SendString
 2238              	.LVL186:
ARM GAS  /var/folders/9y/n02fl3g16gnf7ppy14xghdy80000gn/T//ccqH5YoF.s 			page 53


 2239              		.loc 1 468 12 view .LVU499
 2240 001c 08B9     		cbnz	r0, .L179
 2241              	.LVL187:
 2242              	.L176:
 469:Core/Src/esp32.c ****             break;
 470:Core/Src/esp32.c ****         if (Wifi_WaitForString(_WIFI_WAIT_TIME_LOW, &result, 2, "OK", "ERROR") == false)
 471:Core/Src/esp32.c ****             break;       // The timeout was completed and the string was not there
 472:Core/Src/esp32.c ****         if (result == 2) // It was find the "ERROR" String in the receiving information
 473:Core/Src/esp32.c ****             break;
 474:Core/Src/esp32.c ****         Wifi.StationDhcp = Enable;
 475:Core/Src/esp32.c ****         returnVal = true;
 476:Core/Src/esp32.c ****     } while (0);
 2243              		.loc 1 476 13 is_stmt 1 view .LVU500
 477:Core/Src/esp32.c ****     return returnVal;
 2244              		.loc 1 477 5 view .LVU501
 478:Core/Src/esp32.c **** }
 2245              		.loc 1 478 1 is_stmt 0 view .LVU502
 2246 001e 05B0     		add	sp, sp, #20
 2247              		.cfi_remember_state
 2248              		.cfi_def_cfa_offset 12
 2249              		@ sp needed
 2250 0020 30BD     		pop	{r4, r5, pc}
 2251              	.LVL188:
 2252              	.L179:
 2253              		.cfi_restore_state
 470:Core/Src/esp32.c ****             break;       // The timeout was completed and the string was not there
 2254              		.loc 1 470 9 is_stmt 1 view .LVU503
 470:Core/Src/esp32.c ****             break;       // The timeout was completed and the string was not there
 2255              		.loc 1 470 13 is_stmt 0 view .LVU504
 2256 0022 0D4B     		ldr	r3, .L180+8
 2257 0024 0093     		str	r3, [sp]
 2258 0026 0D4B     		ldr	r3, .L180+12
 2259 0028 0222     		movs	r2, #2
 2260 002a 0DF10F01 		add	r1, sp, #15
 2261 002e 4FF47A70 		mov	r0, #1000
 2262 0032 FFF7FEFF 		bl	Wifi_WaitForString
 2263              	.LVL189:
 470:Core/Src/esp32.c ****             break;       // The timeout was completed and the string was not there
 2264              		.loc 1 470 12 view .LVU505
 2265 0036 0028     		cmp	r0, #0
 2266 0038 F1D0     		beq	.L176
 472:Core/Src/esp32.c ****             break;
 2267              		.loc 1 472 9 is_stmt 1 view .LVU506
 472:Core/Src/esp32.c ****             break;
 2268              		.loc 1 472 20 is_stmt 0 view .LVU507
 2269 003a 9DF80F30 		ldrb	r3, [sp, #15]	@ zero_extendqisi2
 472:Core/Src/esp32.c ****             break;
 2270              		.loc 1 472 12 view .LVU508
 2271 003e 022B     		cmp	r3, #2
 2272 0040 03D0     		beq	.L177
 474:Core/Src/esp32.c ****         returnVal = true;
 2273              		.loc 1 474 9 is_stmt 1 view .LVU509
 474:Core/Src/esp32.c ****         returnVal = true;
 2274              		.loc 1 474 26 is_stmt 0 view .LVU510
 2275 0042 074B     		ldr	r3, .L180+16
 2276 0044 83F83540 		strb	r4, [r3, #53]
 475:Core/Src/esp32.c ****     } while (0);
ARM GAS  /var/folders/9y/n02fl3g16gnf7ppy14xghdy80000gn/T//ccqH5YoF.s 			page 54


 2277              		.loc 1 475 9 is_stmt 1 view .LVU511
 2278              	.LVL190:
 475:Core/Src/esp32.c ****     } while (0);
 2279              		.loc 1 475 9 is_stmt 0 view .LVU512
 2280 0048 E9E7     		b	.L176
 2281              	.LVL191:
 2282              	.L177:
 460:Core/Src/esp32.c ****     do
 2283              		.loc 1 460 10 view .LVU513
 2284 004a 0020     		movs	r0, #0
 2285 004c E7E7     		b	.L176
 2286              	.L181:
 2287 004e 00BF     		.align	2
 2288              	.L180:
 2289 0050 140C0000 		.word	Buffs+3092
 2290 0054 00000000 		.word	.LC21
 2291 0058 0C000000 		.word	.LC2
 2292 005c 08000000 		.word	.LC1
 2293 0060 00000000 		.word	.LANCHOR0
 2294              		.cfi_endproc
 2295              	.LFE1179:
 2297              		.section	.rodata.Wifi_Station_DhcpIsEnable.str1.4,"aMS",%progbits,1
 2298              		.align	2
 2299              	.LC22:
 2300 0000 41542B43 		.ascii	"AT+CWDHCP?\015\012\000"
 2300      57444843 
 2300      503F0D0A 
 2300      00
 2301              		.section	.text.Wifi_Station_DhcpIsEnable,"ax",%progbits
 2302              		.align	1
 2303              		.global	Wifi_Station_DhcpIsEnable
 2304              		.syntax unified
 2305              		.thumb
 2306              		.thumb_func
 2307              		.fpu fpv4-sp-d16
 2309              	Wifi_Station_DhcpIsEnable:
 2310              	.LFB1180:
 479:Core/Src/esp32.c **** // ################################################################################################
 480:Core/Src/esp32.c **** bool Wifi_Station_DhcpIsEnable(void)
 481:Core/Src/esp32.c **** {
 2311              		.loc 1 481 1 is_stmt 1 view -0
 2312              		.cfi_startproc
 2313              		@ args = 0, pretend = 0, frame = 8
 2314              		@ frame_needed = 0, uses_anonymous_args = 0
 2315 0000 10B5     		push	{r4, lr}
 2316              		.cfi_def_cfa_offset 8
 2317              		.cfi_offset 4, -8
 2318              		.cfi_offset 14, -4
 2319 0002 84B0     		sub	sp, sp, #16
 2320              		.cfi_def_cfa_offset 24
 482:Core/Src/esp32.c ****     uint8_t result;
 2321              		.loc 1 482 5 view .LVU515
 483:Core/Src/esp32.c ****     bool returnVal = false;
 2322              		.loc 1 483 5 view .LVU516
 2323              	.LVL192:
 484:Core/Src/esp32.c ****     do
 2324              		.loc 1 484 5 view .LVU517
ARM GAS  /var/folders/9y/n02fl3g16gnf7ppy14xghdy80000gn/T//ccqH5YoF.s 			page 55


 485:Core/Src/esp32.c ****     {
 486:Core/Src/esp32.c ****         /*
 487:Core/Src/esp32.c ****          * It makes a question to the micro-controller to know how is the status of the
 488:Core/Src/esp32.c ****          * DHCP process inside of it
 489:Core/Src/esp32.c ****          */
 490:Core/Src/esp32.c ****         Wifi_RxClear();
 2325              		.loc 1 490 9 view .LVU518
 2326 0004 FFF7FEFF 		bl	Wifi_RxClear
 2327              	.LVL193:
 491:Core/Src/esp32.c ****         sprintf((char *)Buffs.TxBuffer, "AT+CWDHCP?\r\n");
 2328              		.loc 1 491 9 view .LVU519
 2329 0008 264C     		ldr	r4, .L193
 2330 000a 274B     		ldr	r3, .L193+4
 2331 000c A446     		mov	ip, r4
 2332 000e 0FCB     		ldm	r3, {r0, r1, r2, r3}
 2333 0010 ACE80700 		stmia	ip!, {r0, r1, r2}
 2334 0014 8CF80030 		strb	r3, [ip]
 492:Core/Src/esp32.c ****         if (Wifi_SendString((char *)Buffs.TxBuffer) == false)
 2335              		.loc 1 492 9 view .LVU520
 2336              		.loc 1 492 13 is_stmt 0 view .LVU521
 2337 0018 2046     		mov	r0, r4
 2338 001a FFF7FEFF 		bl	Wifi_SendString
 2339              	.LVL194:
 2340              		.loc 1 492 12 view .LVU522
 2341 001e 08B9     		cbnz	r0, .L191
 2342              	.L183:
 2343              	.LVL195:
 493:Core/Src/esp32.c ****             break;
 494:Core/Src/esp32.c ****         if (Wifi_WaitForString(_WIFI_WAIT_TIME_LOW, &result, 2, "OK", "ERROR") == false)
 495:Core/Src/esp32.c ****             break;       // The timeout was completed and the string was not there
 496:Core/Src/esp32.c ****         if (result == 2) // It was find the "ERROR" String in the receiving information
 497:Core/Src/esp32.c ****             break;
 498:Core/Src/esp32.c ****         if (Wifi_ReturnInteger((int32_t *)&result, 1, ":") == false)
 499:Core/Src/esp32.c ****             break; // It searches for a ':' Character to know
 500:Core/Src/esp32.c ****                    // the next integer value after that
 501:Core/Src/esp32.c ****         switch (result)
 502:Core/Src/esp32.c ****         {
 503:Core/Src/esp32.c ****         case 0:
 504:Core/Src/esp32.c ****             Wifi.StationDhcp = false;
 505:Core/Src/esp32.c ****             Wifi.SoftApDhcp = false;
 506:Core/Src/esp32.c ****             break;
 507:Core/Src/esp32.c ****         case 1:
 508:Core/Src/esp32.c ****             Wifi.StationDhcp = false;
 509:Core/Src/esp32.c ****             Wifi.SoftApDhcp = true;
 510:Core/Src/esp32.c ****             break;
 511:Core/Src/esp32.c ****         case 2:
 512:Core/Src/esp32.c ****             Wifi.StationDhcp = true;
 513:Core/Src/esp32.c ****             Wifi.SoftApDhcp = false;
 514:Core/Src/esp32.c ****             break;
 515:Core/Src/esp32.c ****         case 3:
 516:Core/Src/esp32.c ****             Wifi.StationDhcp = true;
 517:Core/Src/esp32.c ****             Wifi.SoftApDhcp = true;
 518:Core/Src/esp32.c ****             break;
 519:Core/Src/esp32.c ****         }
 520:Core/Src/esp32.c ****         returnVal = true;
 521:Core/Src/esp32.c ****     } while (0);
 2344              		.loc 1 521 13 is_stmt 1 view .LVU523
ARM GAS  /var/folders/9y/n02fl3g16gnf7ppy14xghdy80000gn/T//ccqH5YoF.s 			page 56


 522:Core/Src/esp32.c ****     return returnVal;
 2345              		.loc 1 522 5 view .LVU524
 523:Core/Src/esp32.c **** }
 2346              		.loc 1 523 1 is_stmt 0 view .LVU525
 2347 0020 04B0     		add	sp, sp, #16
 2348              		.cfi_remember_state
 2349              		.cfi_def_cfa_offset 8
 2350              		@ sp needed
 2351 0022 10BD     		pop	{r4, pc}
 2352              	.LVL196:
 2353              	.L191:
 2354              		.cfi_restore_state
 494:Core/Src/esp32.c ****             break;       // The timeout was completed and the string was not there
 2355              		.loc 1 494 9 is_stmt 1 view .LVU526
 494:Core/Src/esp32.c ****             break;       // The timeout was completed and the string was not there
 2356              		.loc 1 494 13 is_stmt 0 view .LVU527
 2357 0024 214B     		ldr	r3, .L193+8
 2358 0026 0093     		str	r3, [sp]
 2359 0028 214B     		ldr	r3, .L193+12
 2360 002a 0222     		movs	r2, #2
 2361 002c 0DF10F01 		add	r1, sp, #15
 2362 0030 4FF47A70 		mov	r0, #1000
 2363 0034 FFF7FEFF 		bl	Wifi_WaitForString
 2364              	.LVL197:
 494:Core/Src/esp32.c ****             break;       // The timeout was completed and the string was not there
 2365              		.loc 1 494 12 view .LVU528
 2366 0038 0028     		cmp	r0, #0
 2367 003a F1D0     		beq	.L183
 496:Core/Src/esp32.c ****             break;
 2368              		.loc 1 496 9 is_stmt 1 view .LVU529
 496:Core/Src/esp32.c ****             break;
 2369              		.loc 1 496 20 is_stmt 0 view .LVU530
 2370 003c 9DF80F30 		ldrb	r3, [sp, #15]	@ zero_extendqisi2
 496:Core/Src/esp32.c ****             break;
 2371              		.loc 1 496 12 view .LVU531
 2372 0040 022B     		cmp	r3, #2
 2373 0042 01D1     		bne	.L192
 483:Core/Src/esp32.c ****     do
 2374              		.loc 1 483 10 view .LVU532
 2375 0044 0020     		movs	r0, #0
 2376 0046 EBE7     		b	.L183
 2377              	.L192:
 498:Core/Src/esp32.c ****             break; // It searches for a ':' Character to know
 2378              		.loc 1 498 9 is_stmt 1 view .LVU533
 498:Core/Src/esp32.c ****             break; // It searches for a ':' Character to know
 2379              		.loc 1 498 13 is_stmt 0 view .LVU534
 2380 0048 1A4A     		ldr	r2, .L193+16
 2381 004a 0121     		movs	r1, #1
 2382 004c 0DF10F00 		add	r0, sp, #15
 2383 0050 FFF7FEFF 		bl	Wifi_ReturnInteger
 2384              	.LVL198:
 498:Core/Src/esp32.c ****             break; // It searches for a ':' Character to know
 2385              		.loc 1 498 12 view .LVU535
 2386 0054 0028     		cmp	r0, #0
 2387 0056 E3D0     		beq	.L183
 501:Core/Src/esp32.c ****         {
 2388              		.loc 1 501 9 is_stmt 1 view .LVU536
ARM GAS  /var/folders/9y/n02fl3g16gnf7ppy14xghdy80000gn/T//ccqH5YoF.s 			page 57


 2389 0058 9DF80F30 		ldrb	r3, [sp, #15]	@ zero_extendqisi2
 2390 005c 032B     		cmp	r3, #3
 2391 005e DFD8     		bhi	.L183
 2392 0060 DFE803F0 		tbb	[pc, r3]
 2393              	.L185:
 2394 0064 02       		.byte	(.L188-.L185)/2
 2395 0065 09       		.byte	(.L187-.L185)/2
 2396 0066 11       		.byte	(.L186-.L185)/2
 2397 0067 19       		.byte	(.L184-.L185)/2
 2398              		.p2align 1
 2399              	.L188:
 504:Core/Src/esp32.c ****             Wifi.SoftApDhcp = false;
 2400              		.loc 1 504 13 view .LVU537
 504:Core/Src/esp32.c ****             Wifi.SoftApDhcp = false;
 2401              		.loc 1 504 30 is_stmt 0 view .LVU538
 2402 0068 134B     		ldr	r3, .L193+20
 2403 006a 0022     		movs	r2, #0
 2404 006c 83F83520 		strb	r2, [r3, #53]
 505:Core/Src/esp32.c ****             break;
 2405              		.loc 1 505 13 is_stmt 1 view .LVU539
 505:Core/Src/esp32.c ****             break;
 2406              		.loc 1 505 29 is_stmt 0 view .LVU540
 2407 0070 83F84620 		strb	r2, [r3, #70]
 506:Core/Src/esp32.c ****         case 1:
 2408              		.loc 1 506 13 is_stmt 1 view .LVU541
 2409 0074 D4E7     		b	.L183
 2410              	.L187:
 508:Core/Src/esp32.c ****             Wifi.SoftApDhcp = true;
 2411              		.loc 1 508 13 view .LVU542
 508:Core/Src/esp32.c ****             Wifi.SoftApDhcp = true;
 2412              		.loc 1 508 30 is_stmt 0 view .LVU543
 2413 0076 104B     		ldr	r3, .L193+20
 2414 0078 0022     		movs	r2, #0
 2415 007a 83F83520 		strb	r2, [r3, #53]
 509:Core/Src/esp32.c ****             break;
 2416              		.loc 1 509 13 is_stmt 1 view .LVU544
 509:Core/Src/esp32.c ****             break;
 2417              		.loc 1 509 29 is_stmt 0 view .LVU545
 2418 007e 0122     		movs	r2, #1
 2419 0080 83F84620 		strb	r2, [r3, #70]
 510:Core/Src/esp32.c ****         case 2:
 2420              		.loc 1 510 13 is_stmt 1 view .LVU546
 2421 0084 CCE7     		b	.L183
 2422              	.L186:
 512:Core/Src/esp32.c ****             Wifi.SoftApDhcp = false;
 2423              		.loc 1 512 13 view .LVU547
 512:Core/Src/esp32.c ****             Wifi.SoftApDhcp = false;
 2424              		.loc 1 512 30 is_stmt 0 view .LVU548
 2425 0086 0C4B     		ldr	r3, .L193+20
 2426 0088 0122     		movs	r2, #1
 2427 008a 83F83520 		strb	r2, [r3, #53]
 513:Core/Src/esp32.c ****             break;
 2428              		.loc 1 513 13 is_stmt 1 view .LVU549
 513:Core/Src/esp32.c ****             break;
 2429              		.loc 1 513 29 is_stmt 0 view .LVU550
 2430 008e 0022     		movs	r2, #0
 2431 0090 83F84620 		strb	r2, [r3, #70]
ARM GAS  /var/folders/9y/n02fl3g16gnf7ppy14xghdy80000gn/T//ccqH5YoF.s 			page 58


 514:Core/Src/esp32.c ****         case 3:
 2432              		.loc 1 514 13 is_stmt 1 view .LVU551
 2433 0094 C4E7     		b	.L183
 2434              	.L184:
 516:Core/Src/esp32.c ****             Wifi.SoftApDhcp = true;
 2435              		.loc 1 516 13 view .LVU552
 516:Core/Src/esp32.c ****             Wifi.SoftApDhcp = true;
 2436              		.loc 1 516 30 is_stmt 0 view .LVU553
 2437 0096 084B     		ldr	r3, .L193+20
 2438 0098 0122     		movs	r2, #1
 2439 009a 83F83520 		strb	r2, [r3, #53]
 517:Core/Src/esp32.c ****             break;
 2440              		.loc 1 517 13 is_stmt 1 view .LVU554
 517:Core/Src/esp32.c ****             break;
 2441              		.loc 1 517 29 is_stmt 0 view .LVU555
 2442 009e 83F84620 		strb	r2, [r3, #70]
 518:Core/Src/esp32.c ****         }
 2443              		.loc 1 518 13 is_stmt 1 view .LVU556
 2444 00a2 BDE7     		b	.L183
 2445              	.L194:
 2446              		.align	2
 2447              	.L193:
 2448 00a4 140C0000 		.word	Buffs+3092
 2449 00a8 00000000 		.word	.LC22
 2450 00ac 0C000000 		.word	.LC2
 2451 00b0 08000000 		.word	.LC1
 2452 00b4 10000000 		.word	.LC10
 2453 00b8 00000000 		.word	.LANCHOR0
 2454              		.cfi_endproc
 2455              	.LFE1180:
 2457              		.section	.rodata.Wifi_SoftAp_Create.str1.4,"aMS",%progbits,1
 2458              		.align	2
 2459              	.LC23:
 2460 0000 41542B43 		.ascii	"AT+CWSAP=\"%s\",\"%s\",%d,%d,%d,%d\015\012\000"
 2460      57534150 
 2460      3D222573 
 2460      222C2225 
 2460      73222C25 
 2461              		.section	.text.Wifi_SoftAp_Create,"ax",%progbits
 2462              		.align	1
 2463              		.global	Wifi_SoftAp_Create
 2464              		.syntax unified
 2465              		.thumb
 2466              		.thumb_func
 2467              		.fpu fpv4-sp-d16
 2469              	Wifi_SoftAp_Create:
 2470              	.LVL199:
 2471              	.LFB1181:
 524:Core/Src/esp32.c **** // ################################################################################################
 525:Core/Src/esp32.c **** // ################################################################################################
 526:Core/Src/esp32.c **** // ################################################################################################
 527:Core/Src/esp32.c **** // ################################################################################################
 528:Core/Src/esp32.c **** bool Wifi_SoftAp_Create(char *SSID, char *password, uint8_t channel, WifiEncryptionType_t WifiEncry
 529:Core/Src/esp32.c **** {
 2472              		.loc 1 529 1 view -0
 2473              		.cfi_startproc
 2474              		@ args = 8, pretend = 0, frame = 8
ARM GAS  /var/folders/9y/n02fl3g16gnf7ppy14xghdy80000gn/T//ccqH5YoF.s 			page 59


 2475              		@ frame_needed = 0, uses_anonymous_args = 0
 2476              		.loc 1 529 1 is_stmt 0 view .LVU558
 2477 0000 2DE9F041 		push	{r4, r5, r6, r7, r8, lr}
 2478              		.cfi_def_cfa_offset 24
 2479              		.cfi_offset 4, -24
 2480              		.cfi_offset 5, -20
 2481              		.cfi_offset 6, -16
 2482              		.cfi_offset 7, -12
 2483              		.cfi_offset 8, -8
 2484              		.cfi_offset 14, -4
 2485 0004 86B0     		sub	sp, sp, #24
 2486              		.cfi_def_cfa_offset 48
 2487 0006 0446     		mov	r4, r0
 2488 0008 0D46     		mov	r5, r1
 2489 000a 1646     		mov	r6, r2
 2490 000c 1F46     		mov	r7, r3
 530:Core/Src/esp32.c ****     uint8_t result;
 2491              		.loc 1 530 5 is_stmt 1 view .LVU559
 531:Core/Src/esp32.c ****     bool returnVal = false;
 2492              		.loc 1 531 5 view .LVU560
 2493              	.LVL200:
 532:Core/Src/esp32.c ****     do
 2494              		.loc 1 532 5 view .LVU561
 533:Core/Src/esp32.c ****     {
 534:Core/Src/esp32.c ****         /*
 535:Core/Src/esp32.c ****          * It creates the SoftAP (Small WiFi Network) that it is possible with the ESP8266
 536:Core/Src/esp32.c ****          * the data of this network is defined by the inputs of the function
 537:Core/Src/esp32.c ****          */
 538:Core/Src/esp32.c ****         Wifi_RxClear();
 2495              		.loc 1 538 9 view .LVU562
 2496 000e FFF7FEFF 		bl	Wifi_RxClear
 2497              	.LVL201:
 539:Core/Src/esp32.c ****         sprintf((char *)Buffs.TxBuffer, "AT+CWSAP=\"%s\",\"%s\",%d,%d,%d,%d\r\n", SSID, password, c
 2498              		.loc 1 539 9 view .LVU563
 2499 0012 DFF85C80 		ldr	r8, .L199+12
 2500 0016 9DF83430 		ldrb	r3, [sp, #52]	@ zero_extendqisi2
 2501 001a 0393     		str	r3, [sp, #12]
 2502 001c 9DF83030 		ldrb	r3, [sp, #48]	@ zero_extendqisi2
 2503 0020 0293     		str	r3, [sp, #8]
 2504 0022 0197     		str	r7, [sp, #4]
 2505 0024 0096     		str	r6, [sp]
 2506 0026 2B46     		mov	r3, r5
 2507 0028 2246     		mov	r2, r4
 2508 002a 0E49     		ldr	r1, .L199
 2509 002c 4046     		mov	r0, r8
 2510 002e FFF7FEFF 		bl	sprintf
 2511              	.LVL202:
 540:Core/Src/esp32.c ****         if (Wifi_SendString((char *)Buffs.TxBuffer) == false)
 2512              		.loc 1 540 9 view .LVU564
 2513              		.loc 1 540 13 is_stmt 0 view .LVU565
 2514 0032 4046     		mov	r0, r8
 2515 0034 FFF7FEFF 		bl	Wifi_SendString
 2516              	.LVL203:
 2517              		.loc 1 540 12 view .LVU566
 2518 0038 10B9     		cbnz	r0, .L198
 2519              	.L196:
 2520              	.LVL204:
ARM GAS  /var/folders/9y/n02fl3g16gnf7ppy14xghdy80000gn/T//ccqH5YoF.s 			page 60


 541:Core/Src/esp32.c ****             break;
 542:Core/Src/esp32.c ****         if (Wifi_WaitForString(_WIFI_WAIT_TIME_LOW, &result, 2, "OK", "ERROR") == false)
 543:Core/Src/esp32.c ****             break;       // The timeout was completed and the string was not there
 544:Core/Src/esp32.c ****         if (result == 2) // It was find the "ERROR" String in the receiving information
 545:Core/Src/esp32.c ****             break;
 546:Core/Src/esp32.c **** 
 547:Core/Src/esp32.c ****         returnVal = true;
 548:Core/Src/esp32.c ****     } while (0);
 2521              		.loc 1 548 13 is_stmt 1 view .LVU567
 549:Core/Src/esp32.c ****     return returnVal;
 2522              		.loc 1 549 5 view .LVU568
 550:Core/Src/esp32.c **** }
 2523              		.loc 1 550 1 is_stmt 0 view .LVU569
 2524 003a 06B0     		add	sp, sp, #24
 2525              		.cfi_remember_state
 2526              		.cfi_def_cfa_offset 24
 2527              		@ sp needed
 2528 003c BDE8F081 		pop	{r4, r5, r6, r7, r8, pc}
 2529              	.LVL205:
 2530              	.L198:
 2531              		.cfi_restore_state
 542:Core/Src/esp32.c ****             break;       // The timeout was completed and the string was not there
 2532              		.loc 1 542 9 is_stmt 1 view .LVU570
 542:Core/Src/esp32.c ****             break;       // The timeout was completed and the string was not there
 2533              		.loc 1 542 13 is_stmt 0 view .LVU571
 2534 0040 094B     		ldr	r3, .L199+4
 2535 0042 0093     		str	r3, [sp]
 2536 0044 094B     		ldr	r3, .L199+8
 2537 0046 0222     		movs	r2, #2
 2538 0048 0DF11701 		add	r1, sp, #23
 2539 004c 4FF47A70 		mov	r0, #1000
 2540 0050 FFF7FEFF 		bl	Wifi_WaitForString
 2541              	.LVL206:
 542:Core/Src/esp32.c ****             break;       // The timeout was completed and the string was not there
 2542              		.loc 1 542 12 view .LVU572
 2543 0054 0028     		cmp	r0, #0
 2544 0056 F0D0     		beq	.L196
 544:Core/Src/esp32.c ****             break;
 2545              		.loc 1 544 9 is_stmt 1 view .LVU573
 544:Core/Src/esp32.c ****             break;
 2546              		.loc 1 544 20 is_stmt 0 view .LVU574
 2547 0058 9DF81730 		ldrb	r3, [sp, #23]	@ zero_extendqisi2
 544:Core/Src/esp32.c ****             break;
 2548              		.loc 1 544 12 view .LVU575
 2549 005c 022B     		cmp	r3, #2
 2550 005e ECD1     		bne	.L196
 531:Core/Src/esp32.c ****     do
 2551              		.loc 1 531 10 view .LVU576
 2552 0060 0020     		movs	r0, #0
 2553 0062 EAE7     		b	.L196
 2554              	.L200:
 2555              		.align	2
 2556              	.L199:
 2557 0064 00000000 		.word	.LC23
 2558 0068 0C000000 		.word	.LC2
 2559 006c 08000000 		.word	.LC1
 2560 0070 140C0000 		.word	Buffs+3092
ARM GAS  /var/folders/9y/n02fl3g16gnf7ppy14xghdy80000gn/T//ccqH5YoF.s 			page 61


 2561              		.cfi_endproc
 2562              	.LFE1181:
 2564              		.section	.rodata.Wifi_GetApConnection.str1.4,"aMS",%progbits,1
 2565              		.align	2
 2566              	.LC24:
 2567 0000 41542B43 		.ascii	"AT+CWJAP?\015\012\000"
 2567      574A4150 
 2567      3F0D0A00 
 2568              		.align	2
 2569              	.LC25:
 2570 000c 3A2200   		.ascii	":\"\000"
 2571 000f 00       		.align	2
 2572              	.LC26:
 2573 0010 4E6F2041 		.ascii	"No AP\000"
 2573      5000
 2574              		.section	.text.Wifi_GetApConnection,"ax",%progbits
 2575              		.align	1
 2576              		.global	Wifi_GetApConnection
 2577              		.syntax unified
 2578              		.thumb
 2579              		.thumb_func
 2580              		.fpu fpv4-sp-d16
 2582              	Wifi_GetApConnection:
 2583              	.LFB1182:
 551:Core/Src/esp32.c **** // ################################################################################################
 552:Core/Src/esp32.c **** bool Wifi_GetApConnection(void)
 553:Core/Src/esp32.c **** {
 2584              		.loc 1 553 1 is_stmt 1 view -0
 2585              		.cfi_startproc
 2586              		@ args = 0, pretend = 0, frame = 8
 2587              		@ frame_needed = 0, uses_anonymous_args = 0
 2588 0000 F0B5     		push	{r4, r5, r6, r7, lr}
 2589              		.cfi_def_cfa_offset 20
 2590              		.cfi_offset 4, -20
 2591              		.cfi_offset 5, -16
 2592              		.cfi_offset 6, -12
 2593              		.cfi_offset 7, -8
 2594              		.cfi_offset 14, -4
 2595 0002 85B0     		sub	sp, sp, #20
 2596              		.cfi_def_cfa_offset 40
 554:Core/Src/esp32.c ****     bool returnVal = false;
 2597              		.loc 1 554 5 view .LVU578
 2598              	.LVL207:
 555:Core/Src/esp32.c ****     uint8_t result;
 2599              		.loc 1 555 5 view .LVU579
 556:Core/Src/esp32.c ****     do
 2600              		.loc 1 556 5 view .LVU580
 2601              	.LBB7:
 557:Core/Src/esp32.c ****     {
 558:Core/Src/esp32.c ****         Wifi_RxClear();
 2602              		.loc 1 558 9 view .LVU581
 2603 0004 FFF7FEFF 		bl	Wifi_RxClear
 2604              	.LVL208:
 559:Core/Src/esp32.c ****         // Get the name of the AP Connection
 560:Core/Src/esp32.c ****         sprintf((char *)Buffs.TxBuffer, "AT+CWJAP?\r\n");
 2605              		.loc 1 560 9 view .LVU582
 2606 0008 274B     		ldr	r3, .L209
ARM GAS  /var/folders/9y/n02fl3g16gnf7ppy14xghdy80000gn/T//ccqH5YoF.s 			page 62


 2607 000a 284A     		ldr	r2, .L209+4
 2608 000c 07CA     		ldm	r2, {r0, r1, r2}
 2609 000e 83E80700 		stm	r3, {r0, r1, r2}
 561:Core/Src/esp32.c ****         if (Wifi_SendString((char *)Buffs.TxBuffer) == false)
 2610              		.loc 1 561 9 view .LVU583
 2611              		.loc 1 561 13 is_stmt 0 view .LVU584
 2612 0012 1846     		mov	r0, r3
 2613 0014 FFF7FEFF 		bl	Wifi_SendString
 2614              	.LVL209:
 2615              		.loc 1 561 12 view .LVU585
 2616 0018 0446     		mov	r4, r0
 2617 001a 10B9     		cbnz	r0, .L207
 2618              	.LVL210:
 2619              	.L202:
 2620              		.loc 1 561 12 view .LVU586
 2621              	.LBE7:
 562:Core/Src/esp32.c ****             break;
 563:Core/Src/esp32.c ****         if (Wifi_WaitForString(_WIFI_WAIT_TIME_LOW, &result, 2, "OK", "ERROR") == false)
 564:Core/Src/esp32.c ****             break;       // The timeout was completed and the string was not there
 565:Core/Src/esp32.c ****         if (result == 2) // It was find the "ERROR" String in the receiving information
 566:Core/Src/esp32.c ****             break;
 567:Core/Src/esp32.c ****         /*
 568:Core/Src/esp32.c ****          * The previous AT Command has a response like the next example:
 569:Core/Src/esp32.c ****          * 			AT+CWJAP?
 570:Core/Src/esp32.c ****          * 			+CWJAP:<ssid>,<bssid>,<channel>,<rssi>
 571:Core/Src/esp32.c ****          * 			OK
 572:Core/Src/esp32.c ****          * The previous function checks the OK Response and the next lines search for the
 573:Core/Src/esp32.c ****          * information of the SSID, taking in count the position of that information in
 574:Core/Src/esp32.c ****          * the string. It uses pointers to get the start and the final position and the
 575:Core/Src/esp32.c ****          * value is saved in the structure of the Wifi Connection.
 576:Core/Src/esp32.c ****          */
 577:Core/Src/esp32.c **** 
 578:Core/Src/esp32.c ****         char *str1 = strstr((char *)Buffs.RxBuffer.buff, ":\"");
 579:Core/Src/esp32.c ****         if (str1 == NULL)
 580:Core/Src/esp32.c ****         {
 581:Core/Src/esp32.c ****             str1 = strstr((char *)Buffs.RxBuffer.buff, "No AP");
 582:Core/Src/esp32.c ****             if (str1 == NULL)
 583:Core/Src/esp32.c ****                 break;
 584:Core/Src/esp32.c ****             else
 585:Core/Src/esp32.c ****             {
 586:Core/Src/esp32.c ****                 memset(Wifi.SSID_Connected, (uint8_t)'\0', 20);
 587:Core/Src/esp32.c ****                 returnVal = true;
 588:Core/Src/esp32.c ****             }
 589:Core/Src/esp32.c ****         }
 590:Core/Src/esp32.c ****         else
 591:Core/Src/esp32.c ****         {
 592:Core/Src/esp32.c ****             str1 = str1 + 2;
 593:Core/Src/esp32.c ****             char *str2 = strstr(str1, "\"");
 594:Core/Src/esp32.c ****             size_t len = str2 - str1;
 595:Core/Src/esp32.c ****             strncpy(Wifi.SSID_Connected, str1, len);
 596:Core/Src/esp32.c ****             Wifi.SSID_Connected[len] = '\0';
 597:Core/Src/esp32.c ****             returnVal = true;
 598:Core/Src/esp32.c ****         }
 599:Core/Src/esp32.c ****     } while (0);
 2622              		.loc 1 599 13 is_stmt 1 view .LVU587
 600:Core/Src/esp32.c **** 
 601:Core/Src/esp32.c ****     return returnVal;
ARM GAS  /var/folders/9y/n02fl3g16gnf7ppy14xghdy80000gn/T//ccqH5YoF.s 			page 63


 2623              		.loc 1 601 5 view .LVU588
 602:Core/Src/esp32.c **** }
 2624              		.loc 1 602 1 is_stmt 0 view .LVU589
 2625 001c 2046     		mov	r0, r4
 2626 001e 05B0     		add	sp, sp, #20
 2627              		.cfi_remember_state
 2628              		.cfi_def_cfa_offset 20
 2629              		@ sp needed
 2630 0020 F0BD     		pop	{r4, r5, r6, r7, pc}
 2631              	.LVL211:
 2632              	.L207:
 2633              		.cfi_restore_state
 2634              	.LBB9:
 563:Core/Src/esp32.c ****             break;       // The timeout was completed and the string was not there
 2635              		.loc 1 563 9 is_stmt 1 view .LVU590
 563:Core/Src/esp32.c ****             break;       // The timeout was completed and the string was not there
 2636              		.loc 1 563 13 is_stmt 0 view .LVU591
 2637 0022 234B     		ldr	r3, .L209+8
 2638 0024 0093     		str	r3, [sp]
 2639 0026 234B     		ldr	r3, .L209+12
 2640 0028 0222     		movs	r2, #2
 2641 002a 0DF10F01 		add	r1, sp, #15
 2642 002e 4FF47A70 		mov	r0, #1000
 2643 0032 FFF7FEFF 		bl	Wifi_WaitForString
 2644              	.LVL212:
 563:Core/Src/esp32.c ****             break;       // The timeout was completed and the string was not there
 2645              		.loc 1 563 12 view .LVU592
 2646 0036 0446     		mov	r4, r0
 2647 0038 0028     		cmp	r0, #0
 2648 003a EFD0     		beq	.L202
 565:Core/Src/esp32.c ****             break;
 2649              		.loc 1 565 9 is_stmt 1 view .LVU593
 565:Core/Src/esp32.c ****             break;
 2650              		.loc 1 565 20 is_stmt 0 view .LVU594
 2651 003c 9DF80F30 		ldrb	r3, [sp, #15]	@ zero_extendqisi2
 565:Core/Src/esp32.c ****             break;
 2652              		.loc 1 565 12 view .LVU595
 2653 0040 022B     		cmp	r3, #2
 2654 0042 2CD0     		beq	.L204
 578:Core/Src/esp32.c ****         if (str1 == NULL)
 2655              		.loc 1 578 9 is_stmt 1 view .LVU596
 578:Core/Src/esp32.c ****         if (str1 == NULL)
 2656              		.loc 1 578 51 is_stmt 0 view .LVU597
 2657 0044 1C4B     		ldr	r3, .L209+16
 2658 0046 D3F80068 		ldr	r6, [r3, #2048]
 578:Core/Src/esp32.c ****         if (str1 == NULL)
 2659              		.loc 1 578 22 view .LVU598
 2660 004a 1C49     		ldr	r1, .L209+20
 2661 004c 3046     		mov	r0, r6
 2662 004e FFF7FEFF 		bl	strstr
 2663              	.LVL213:
 579:Core/Src/esp32.c ****         {
 2664              		.loc 1 579 9 is_stmt 1 view .LVU599
 579:Core/Src/esp32.c ****         {
 2665              		.loc 1 579 12 is_stmt 0 view .LVU600
 2666 0052 0546     		mov	r5, r0
 2667 0054 88B1     		cbz	r0, .L208
ARM GAS  /var/folders/9y/n02fl3g16gnf7ppy14xghdy80000gn/T//ccqH5YoF.s 			page 64


 2668              	.LBB8:
 592:Core/Src/esp32.c ****             char *str2 = strstr(str1, "\"");
 2669              		.loc 1 592 13 is_stmt 1 view .LVU601
 592:Core/Src/esp32.c ****             char *str2 = strstr(str1, "\"");
 2670              		.loc 1 592 18 is_stmt 0 view .LVU602
 2671 0056 0235     		adds	r5, r5, #2
 2672              	.LVL214:
 593:Core/Src/esp32.c ****             size_t len = str2 - str1;
 2673              		.loc 1 593 13 is_stmt 1 view .LVU603
 593:Core/Src/esp32.c ****             size_t len = str2 - str1;
 2674              		.loc 1 593 26 is_stmt 0 view .LVU604
 2675 0058 2221     		movs	r1, #34
 2676 005a 2846     		mov	r0, r5
 2677 005c FFF7FEFF 		bl	strchr
 2678              	.LVL215:
 594:Core/Src/esp32.c ****             strncpy(Wifi.SSID_Connected, str1, len);
 2679              		.loc 1 594 13 is_stmt 1 view .LVU605
 594:Core/Src/esp32.c ****             strncpy(Wifi.SSID_Connected, str1, len);
 2680              		.loc 1 594 31 is_stmt 0 view .LVU606
 2681 0060 471B     		subs	r7, r0, r5
 2682              	.LVL216:
 595:Core/Src/esp32.c ****             Wifi.SSID_Connected[len] = '\0';
 2683              		.loc 1 595 13 is_stmt 1 view .LVU607
 2684 0062 174E     		ldr	r6, .L209+24
 2685 0064 3A46     		mov	r2, r7
 2686 0066 2946     		mov	r1, r5
 2687 0068 06F12100 		add	r0, r6, #33
 2688              	.LVL217:
 595:Core/Src/esp32.c ****             Wifi.SSID_Connected[len] = '\0';
 2689              		.loc 1 595 13 is_stmt 0 view .LVU608
 2690 006c FFF7FEFF 		bl	strncpy
 2691              	.LVL218:
 596:Core/Src/esp32.c ****             returnVal = true;
 2692              		.loc 1 596 13 is_stmt 1 view .LVU609
 596:Core/Src/esp32.c ****             returnVal = true;
 2693              		.loc 1 596 38 is_stmt 0 view .LVU610
 2694 0070 3E44     		add	r6, r6, r7
 2695 0072 0023     		movs	r3, #0
 2696 0074 86F82130 		strb	r3, [r6, #33]
 597:Core/Src/esp32.c ****         }
 2697              		.loc 1 597 13 is_stmt 1 view .LVU611
 2698              	.LVL219:
 597:Core/Src/esp32.c ****         }
 2699              		.loc 1 597 13 is_stmt 0 view .LVU612
 2700 0078 D0E7     		b	.L202
 2701              	.LVL220:
 2702              	.L208:
 597:Core/Src/esp32.c ****         }
 2703              		.loc 1 597 13 view .LVU613
 2704              	.LBE8:
 581:Core/Src/esp32.c ****             if (str1 == NULL)
 2705              		.loc 1 581 13 is_stmt 1 view .LVU614
 581:Core/Src/esp32.c ****             if (str1 == NULL)
 2706              		.loc 1 581 20 is_stmt 0 view .LVU615
 2707 007a 1249     		ldr	r1, .L209+28
 2708 007c 3046     		mov	r0, r6
 2709              	.LVL221:
ARM GAS  /var/folders/9y/n02fl3g16gnf7ppy14xghdy80000gn/T//ccqH5YoF.s 			page 65


 581:Core/Src/esp32.c ****             if (str1 == NULL)
 2710              		.loc 1 581 20 view .LVU616
 2711 007e FFF7FEFF 		bl	strstr
 2712              	.LVL222:
 582:Core/Src/esp32.c ****                 break;
 2713              		.loc 1 582 13 is_stmt 1 view .LVU617
 582:Core/Src/esp32.c ****                 break;
 2714              		.loc 1 582 16 is_stmt 0 view .LVU618
 2715 0082 70B1     		cbz	r0, .L205
 586:Core/Src/esp32.c ****                 returnVal = true;
 2716              		.loc 1 586 17 is_stmt 1 view .LVU619
 2717 0084 0E4B     		ldr	r3, .L209+24
 2718 0086 0022     		movs	r2, #0
 2719 0088 C3F82120 		str	r2, [r3, #33]	@ unaligned
 2720 008c C3F82520 		str	r2, [r3, #37]	@ unaligned
 2721 0090 C3F82920 		str	r2, [r3, #41]	@ unaligned
 2722 0094 C3F82D20 		str	r2, [r3, #45]	@ unaligned
 2723 0098 C3F83120 		str	r2, [r3, #49]	@ unaligned
 587:Core/Src/esp32.c ****             }
 2724              		.loc 1 587 17 view .LVU620
 2725              	.LVL223:
 587:Core/Src/esp32.c ****             }
 2726              		.loc 1 587 17 is_stmt 0 view .LVU621
 2727 009c BEE7     		b	.L202
 2728              	.LVL224:
 2729              	.L204:
 587:Core/Src/esp32.c ****             }
 2730              		.loc 1 587 17 view .LVU622
 2731              	.LBE9:
 554:Core/Src/esp32.c ****     uint8_t result;
 2732              		.loc 1 554 10 view .LVU623
 2733 009e 0024     		movs	r4, #0
 2734 00a0 BCE7     		b	.L202
 2735              	.LVL225:
 2736              	.L205:
 554:Core/Src/esp32.c ****     uint8_t result;
 2737              		.loc 1 554 10 view .LVU624
 2738 00a2 0024     		movs	r4, #0
 2739 00a4 BAE7     		b	.L202
 2740              	.L210:
 2741 00a6 00BF     		.align	2
 2742              	.L209:
 2743 00a8 140C0000 		.word	Buffs+3092
 2744 00ac 00000000 		.word	.LC24
 2745 00b0 0C000000 		.word	.LC2
 2746 00b4 08000000 		.word	.LC1
 2747 00b8 00000000 		.word	Buffs
 2748 00bc 0C000000 		.word	.LC25
 2749 00c0 00000000 		.word	.LANCHOR0
 2750 00c4 10000000 		.word	.LC26
 2751              		.cfi_endproc
 2752              	.LFE1182:
 2754              		.section	.rodata.Wifi_SoftAp_GetConnectedDevices.str1.4,"aMS",%progbits,1
 2755              		.align	2
 2756              	.LC27:
 2757 0000 41542B43 		.ascii	"AT+CWLIF\015\012\000"
 2757      574C4946 
ARM GAS  /var/folders/9y/n02fl3g16gnf7ppy14xghdy80000gn/T//ccqH5YoF.s 			page 66


 2757      0D0A00
 2758 000b 00       		.align	2
 2759              	.LC28:
 2760 000c 0A2C00   		.ascii	"\012,\000"
 2761              		.section	.text.Wifi_SoftAp_GetConnectedDevices,"ax",%progbits
 2762              		.align	1
 2763              		.global	Wifi_SoftAp_GetConnectedDevices
 2764              		.syntax unified
 2765              		.thumb
 2766              		.thumb_func
 2767              		.fpu fpv4-sp-d16
 2769              	Wifi_SoftAp_GetConnectedDevices:
 2770              	.LFB1183:
 603:Core/Src/esp32.c **** 
 604:Core/Src/esp32.c **** // ################################################################################################
 605:Core/Src/esp32.c **** bool Wifi_SoftAp_GetConnectedDevices(void)
 606:Core/Src/esp32.c **** {
 2771              		.loc 1 606 1 is_stmt 1 view -0
 2772              		.cfi_startproc
 2773              		@ args = 0, pretend = 0, frame = 8
 2774              		@ frame_needed = 0, uses_anonymous_args = 0
 2775 0000 30B5     		push	{r4, r5, lr}
 2776              		.cfi_def_cfa_offset 12
 2777              		.cfi_offset 4, -12
 2778              		.cfi_offset 5, -8
 2779              		.cfi_offset 14, -4
 2780 0002 8DB0     		sub	sp, sp, #52
 2781              		.cfi_def_cfa_offset 64
 607:Core/Src/esp32.c ****     uint8_t result;
 2782              		.loc 1 607 5 view .LVU626
 608:Core/Src/esp32.c ****     bool returnVal = false;
 2783              		.loc 1 608 5 view .LVU627
 2784              	.LVL226:
 609:Core/Src/esp32.c ****     do
 2785              		.loc 1 609 5 view .LVU628
 610:Core/Src/esp32.c ****     {
 611:Core/Src/esp32.c ****         /*
 612:Core/Src/esp32.c ****          * The ESP8266 has the possibility to have in a SoftAP (Small WiFi Network) four
 613:Core/Src/esp32.c ****          * devices connected at the same time. This function save the information about
 614:Core/Src/esp32.c ****          * the devices, which is the IP address and the MAC Address of every device
 615:Core/Src/esp32.c ****          */
 616:Core/Src/esp32.c ****         Wifi_RxClear();
 2786              		.loc 1 616 9 view .LVU629
 2787 0004 FFF7FEFF 		bl	Wifi_RxClear
 2788              	.LVL227:
 617:Core/Src/esp32.c ****         sprintf((char *)Buffs.TxBuffer, "AT+CWLIF\r\n");
 2789              		.loc 1 617 9 view .LVU630
 2790 0008 3A4C     		ldr	r4, .L221
 2791 000a 3B4A     		ldr	r2, .L221+4
 2792 000c 2346     		mov	r3, r4
 2793 000e 07CA     		ldm	r2, {r0, r1, r2}
 2794 0010 03C3     		stmia	r3!, {r0, r1}
 2795 0012 23F8022B 		strh	r2, [r3], #2	@ movhi
 2796 0016 120C     		lsrs	r2, r2, #16
 2797 0018 1A70     		strb	r2, [r3]
 618:Core/Src/esp32.c ****         if (Wifi_SendString((char *)Buffs.TxBuffer) == false)
 2798              		.loc 1 618 9 view .LVU631
ARM GAS  /var/folders/9y/n02fl3g16gnf7ppy14xghdy80000gn/T//ccqH5YoF.s 			page 67


 2799              		.loc 1 618 13 is_stmt 0 view .LVU632
 2800 001a 2046     		mov	r0, r4
 2801 001c FFF7FEFF 		bl	Wifi_SendString
 2802              	.LVL228:
 2803              		.loc 1 618 12 view .LVU633
 2804 0020 0446     		mov	r4, r0
 2805 0022 10B9     		cbnz	r0, .L219
 2806              	.L212:
 2807              	.LVL229:
 619:Core/Src/esp32.c ****             break;
 620:Core/Src/esp32.c ****         if (Wifi_WaitForString(_WIFI_WAIT_TIME_LOW, &result, 2, "OK", "ERROR") == false)
 621:Core/Src/esp32.c ****             break;       // The timeout was completed and the string was not there
 622:Core/Src/esp32.c ****         if (result == 2) // It was find the "ERROR" String in the receiving information
 623:Core/Src/esp32.c ****             break;
 624:Core/Src/esp32.c **** 
 625:Core/Src/esp32.c ****         Wifi_RemoveChar((char *)Buffs.RxBuffer.buff, '\r');
 626:Core/Src/esp32.c ****         Wifi_ReturnStrings((char *)Buffs.RxBuffer.buff, "\n,", 10, Wifi.SoftApConnectedDevicesIp[0]
 627:Core/Src/esp32.c **** 
 628:Core/Src/esp32.c ****         // Search if there is any device or it does not have any
 629:Core/Src/esp32.c ****         for (uint8_t i = 0; i < 6; i++)
 630:Core/Src/esp32.c ****         {
 631:Core/Src/esp32.c ****             if ((Wifi.SoftApConnectedDevicesIp[i][0] < '0') || (Wifi.SoftApConnectedDevicesIp[i][0]
 632:Core/Src/esp32.c ****                 Wifi.SoftApConnectedDevicesIp[i][0] = 0;
 633:Core/Src/esp32.c ****             if ((Wifi.SoftApConnectedDevicesMac[i][0] < '0') || (Wifi.SoftApConnectedDevicesMac[i][
 634:Core/Src/esp32.c ****                 Wifi.SoftApConnectedDevicesMac[i][0] = 0;
 635:Core/Src/esp32.c ****         }
 636:Core/Src/esp32.c **** 
 637:Core/Src/esp32.c ****         returnVal = true;
 638:Core/Src/esp32.c ****     } while (0);
 2808              		.loc 1 638 13 is_stmt 1 view .LVU634
 639:Core/Src/esp32.c ****     return returnVal;
 2809              		.loc 1 639 5 view .LVU635
 640:Core/Src/esp32.c **** }
 2810              		.loc 1 640 1 is_stmt 0 view .LVU636
 2811 0024 2046     		mov	r0, r4
 2812 0026 0DB0     		add	sp, sp, #52
 2813              		.cfi_remember_state
 2814              		.cfi_def_cfa_offset 12
 2815              		@ sp needed
 2816 0028 30BD     		pop	{r4, r5, pc}
 2817              	.LVL230:
 2818              	.L219:
 2819              		.cfi_restore_state
 620:Core/Src/esp32.c ****             break;       // The timeout was completed and the string was not there
 2820              		.loc 1 620 9 is_stmt 1 view .LVU637
 620:Core/Src/esp32.c ****             break;       // The timeout was completed and the string was not there
 2821              		.loc 1 620 13 is_stmt 0 view .LVU638
 2822 002a 344B     		ldr	r3, .L221+8
 2823 002c 0093     		str	r3, [sp]
 2824 002e 344B     		ldr	r3, .L221+12
 2825 0030 0222     		movs	r2, #2
 2826 0032 0DF12F01 		add	r1, sp, #47
 2827 0036 4FF47A70 		mov	r0, #1000
 2828 003a FFF7FEFF 		bl	Wifi_WaitForString
 2829              	.LVL231:
 620:Core/Src/esp32.c ****             break;       // The timeout was completed and the string was not there
 2830              		.loc 1 620 12 view .LVU639
ARM GAS  /var/folders/9y/n02fl3g16gnf7ppy14xghdy80000gn/T//ccqH5YoF.s 			page 68


 2831 003e 0446     		mov	r4, r0
 2832 0040 0028     		cmp	r0, #0
 2833 0042 EFD0     		beq	.L212
 622:Core/Src/esp32.c ****             break;
 2834              		.loc 1 622 9 is_stmt 1 view .LVU640
 622:Core/Src/esp32.c ****             break;
 2835              		.loc 1 622 20 is_stmt 0 view .LVU641
 2836 0044 9DF82F30 		ldrb	r3, [sp, #47]	@ zero_extendqisi2
 622:Core/Src/esp32.c ****             break;
 2837              		.loc 1 622 12 view .LVU642
 2838 0048 022B     		cmp	r3, #2
 2839 004a 01D1     		bne	.L220
 608:Core/Src/esp32.c ****     do
 2840              		.loc 1 608 10 view .LVU643
 2841 004c 0024     		movs	r4, #0
 2842 004e E9E7     		b	.L212
 2843              	.L220:
 625:Core/Src/esp32.c ****         Wifi_ReturnStrings((char *)Buffs.RxBuffer.buff, "\n,", 10, Wifi.SoftApConnectedDevicesIp[0]
 2844              		.loc 1 625 9 is_stmt 1 view .LVU644
 625:Core/Src/esp32.c ****         Wifi_ReturnStrings((char *)Buffs.RxBuffer.buff, "\n,", 10, Wifi.SoftApConnectedDevicesIp[0]
 2845              		.loc 1 625 47 is_stmt 0 view .LVU645
 2846 0050 2C4D     		ldr	r5, .L221+16
 625:Core/Src/esp32.c ****         Wifi_ReturnStrings((char *)Buffs.RxBuffer.buff, "\n,", 10, Wifi.SoftApConnectedDevicesIp[0]
 2847              		.loc 1 625 9 view .LVU646
 2848 0052 0D21     		movs	r1, #13
 2849 0054 D5F80008 		ldr	r0, [r5, #2048]
 2850 0058 FFF7FEFF 		bl	Wifi_RemoveChar
 2851              	.LVL232:
 626:Core/Src/esp32.c **** 
 2852              		.loc 1 626 9 is_stmt 1 view .LVU647
 2853 005c 2A4B     		ldr	r3, .L221+20
 2854 005e 03F1EF02 		add	r2, r3, #239
 2855 0062 0892     		str	r2, [sp, #32]
 2856 0064 03F18702 		add	r2, r3, #135
 2857 0068 0792     		str	r2, [sp, #28]
 2858 006a 03F1DD02 		add	r2, r3, #221
 2859 006e 0692     		str	r2, [sp, #24]
 2860 0070 03F17702 		add	r2, r3, #119
 2861 0074 0592     		str	r2, [sp, #20]
 2862 0076 03F1CB02 		add	r2, r3, #203
 2863 007a 0492     		str	r2, [sp, #16]
 2864 007c 03F16702 		add	r2, r3, #103
 2865 0080 0392     		str	r2, [sp, #12]
 2866 0082 03F1B902 		add	r2, r3, #185
 2867 0086 0292     		str	r2, [sp, #8]
 2868 0088 03F15702 		add	r2, r3, #87
 2869 008c 0192     		str	r2, [sp, #4]
 2870 008e 03F1A702 		add	r2, r3, #167
 2871 0092 0092     		str	r2, [sp]
 2872 0094 4733     		adds	r3, r3, #71
 2873 0096 0A22     		movs	r2, #10
 2874 0098 1C49     		ldr	r1, .L221+24
 2875 009a D5F80008 		ldr	r0, [r5, #2048]
 2876 009e FFF7FEFF 		bl	Wifi_ReturnStrings
 2877              	.LVL233:
 629:Core/Src/esp32.c ****         {
 2878              		.loc 1 629 9 view .LVU648
ARM GAS  /var/folders/9y/n02fl3g16gnf7ppy14xghdy80000gn/T//ccqH5YoF.s 			page 69


 2879              	.LBB10:
 629:Core/Src/esp32.c ****         {
 2880              		.loc 1 629 14 view .LVU649
 629:Core/Src/esp32.c ****         {
 2881              		.loc 1 629 22 is_stmt 0 view .LVU650
 2882 00a2 0023     		movs	r3, #0
 629:Core/Src/esp32.c ****         {
 2883              		.loc 1 629 9 view .LVU651
 2884 00a4 01E0     		b	.L213
 2885              	.LVL234:
 2886              	.L215:
 629:Core/Src/esp32.c ****         {
 2887              		.loc 1 629 36 is_stmt 1 discriminator 2 view .LVU652
 629:Core/Src/esp32.c ****         {
 2888              		.loc 1 629 37 is_stmt 0 discriminator 2 view .LVU653
 2889 00a6 0133     		adds	r3, r3, #1
 2890              	.LVL235:
 629:Core/Src/esp32.c ****         {
 2891              		.loc 1 629 37 discriminator 2 view .LVU654
 2892 00a8 DBB2     		uxtb	r3, r3
 2893              	.LVL236:
 2894              	.L213:
 629:Core/Src/esp32.c ****         {
 2895              		.loc 1 629 29 is_stmt 1 discriminator 1 view .LVU655
 629:Core/Src/esp32.c ****         {
 2896              		.loc 1 629 9 is_stmt 0 discriminator 1 view .LVU656
 2897 00aa 052B     		cmp	r3, #5
 2898 00ac BAD8     		bhi	.L212
 631:Core/Src/esp32.c ****                 Wifi.SoftApConnectedDevicesIp[i][0] = 0;
 2899              		.loc 1 631 13 is_stmt 1 view .LVU657
 631:Core/Src/esp32.c ****                 Wifi.SoftApConnectedDevicesIp[i][0] = 0;
 2900              		.loc 1 631 50 is_stmt 0 view .LVU658
 2901 00ae 1946     		mov	r1, r3
 2902 00b0 1A1D     		adds	r2, r3, #4
 2903 00b2 1548     		ldr	r0, .L221+20
 2904 00b4 00EB0212 		add	r2, r0, r2, lsl #4
 2905 00b8 D279     		ldrb	r2, [r2, #7]	@ zero_extendqisi2
 631:Core/Src/esp32.c ****                 Wifi.SoftApConnectedDevicesIp[i][0] = 0;
 2906              		.loc 1 631 61 view .LVU659
 2907 00ba 303A     		subs	r2, r2, #48
 2908 00bc D2B2     		uxtb	r2, r2
 631:Core/Src/esp32.c ****                 Wifi.SoftApConnectedDevicesIp[i][0] = 0;
 2909              		.loc 1 631 16 view .LVU660
 2910 00be 092A     		cmp	r2, #9
 2911 00c0 04D9     		bls	.L214
 632:Core/Src/esp32.c ****             if ((Wifi.SoftApConnectedDevicesMac[i][0] < '0') || (Wifi.SoftApConnectedDevicesMac[i][
 2912              		.loc 1 632 17 is_stmt 1 view .LVU661
 632:Core/Src/esp32.c ****             if ((Wifi.SoftApConnectedDevicesMac[i][0] < '0') || (Wifi.SoftApConnectedDevicesMac[i][
 2913              		.loc 1 632 53 is_stmt 0 view .LVU662
 2914 00c2 1A1D     		adds	r2, r3, #4
 2915 00c4 00EB0212 		add	r2, r0, r2, lsl #4
 2916 00c8 0020     		movs	r0, #0
 2917 00ca D071     		strb	r0, [r2, #7]
 2918              	.L214:
 633:Core/Src/esp32.c ****                 Wifi.SoftApConnectedDevicesMac[i][0] = 0;
 2919              		.loc 1 633 13 is_stmt 1 view .LVU663
 633:Core/Src/esp32.c ****                 Wifi.SoftApConnectedDevicesMac[i][0] = 0;
ARM GAS  /var/folders/9y/n02fl3g16gnf7ppy14xghdy80000gn/T//ccqH5YoF.s 			page 70


 2920              		.loc 1 633 51 is_stmt 0 view .LVU664
 2921 00cc 01EBC102 		add	r2, r1, r1, lsl #3
 2922 00d0 0D48     		ldr	r0, .L221+20
 2923 00d2 00EB4202 		add	r2, r0, r2, lsl #1
 2924 00d6 92F8A720 		ldrb	r2, [r2, #167]	@ zero_extendqisi2
 633:Core/Src/esp32.c ****                 Wifi.SoftApConnectedDevicesMac[i][0] = 0;
 2925              		.loc 1 633 62 view .LVU665
 2926 00da 303A     		subs	r2, r2, #48
 2927 00dc D2B2     		uxtb	r2, r2
 633:Core/Src/esp32.c ****                 Wifi.SoftApConnectedDevicesMac[i][0] = 0;
 2928              		.loc 1 633 16 view .LVU666
 2929 00de 092A     		cmp	r2, #9
 2930 00e0 E1D9     		bls	.L215
 634:Core/Src/esp32.c ****         }
 2931              		.loc 1 634 17 is_stmt 1 view .LVU667
 634:Core/Src/esp32.c ****         }
 2932              		.loc 1 634 54 is_stmt 0 view .LVU668
 2933 00e2 01EBC101 		add	r1, r1, r1, lsl #3
 2934 00e6 00EB4101 		add	r1, r0, r1, lsl #1
 2935 00ea 0022     		movs	r2, #0
 2936 00ec 81F8A720 		strb	r2, [r1, #167]
 2937 00f0 D9E7     		b	.L215
 2938              	.L222:
 2939 00f2 00BF     		.align	2
 2940              	.L221:
 2941 00f4 140C0000 		.word	Buffs+3092
 2942 00f8 00000000 		.word	.LC27
 2943 00fc 0C000000 		.word	.LC2
 2944 0100 08000000 		.word	.LC1
 2945 0104 00000000 		.word	Buffs
 2946 0108 00000000 		.word	.LANCHOR0
 2947 010c 0C000000 		.word	.LC28
 2948              	.LBE10:
 2949              		.cfi_endproc
 2950              	.LFE1183:
 2952              		.section	.rodata.Wifi_TcpIp_GetConnectionStatus.str1.4,"aMS",%progbits,1
 2953              		.align	2
 2954              	.LC29:
 2955 0000 41542B43 		.ascii	"AT+CIPSTATUS\015\012\000"
 2955      49505354 
 2955      41545553 
 2955      0D0A00
 2956 000f 00       		.align	2
 2957              	.LC30:
 2958 0010 0A535441 		.ascii	"\012STATUS:\000"
 2958      5455533A 
 2958      00
 2959 0019 000000   		.align	2
 2960              	.LC31:
 2961 001c 2B434950 		.ascii	"+CIPSTATUS:\000"
 2961      53544154 
 2961      55533A00 
 2962              		.align	2
 2963              	.LC32:
 2964 0028 2B434950 		.ascii	"+CIPSTATUS:%d,\"%3s\",\"%[^\"]\",%d,%d,%d\000"
 2964      53544154 
 2964      55533A25 
ARM GAS  /var/folders/9y/n02fl3g16gnf7ppy14xghdy80000gn/T//ccqH5YoF.s 			page 71


 2964      642C2225 
 2964      3373222C 
 2965              		.section	.text.Wifi_TcpIp_GetConnectionStatus,"ax",%progbits
 2966              		.align	1
 2967              		.global	Wifi_TcpIp_GetConnectionStatus
 2968              		.syntax unified
 2969              		.thumb
 2970              		.thumb_func
 2971              		.fpu fpv4-sp-d16
 2973              	Wifi_TcpIp_GetConnectionStatus:
 2974              	.LFB1184:
 641:Core/Src/esp32.c **** // ################################################################################################
 642:Core/Src/esp32.c **** // ################################################################################################
 643:Core/Src/esp32.c **** // ################################################################################################
 644:Core/Src/esp32.c **** // ################################################################################################
 645:Core/Src/esp32.c **** bool Wifi_TcpIp_GetConnectionStatus(void)
 646:Core/Src/esp32.c **** {
 2975              		.loc 1 646 1 is_stmt 1 view -0
 2976              		.cfi_startproc
 2977              		@ args = 0, pretend = 0, frame = 8
 2978              		@ frame_needed = 0, uses_anonymous_args = 0
 2979 0000 F0B5     		push	{r4, r5, r6, r7, lr}
 2980              		.cfi_def_cfa_offset 20
 2981              		.cfi_offset 4, -20
 2982              		.cfi_offset 5, -16
 2983              		.cfi_offset 6, -12
 2984              		.cfi_offset 7, -8
 2985              		.cfi_offset 14, -4
 2986 0002 87B0     		sub	sp, sp, #28
 2987              		.cfi_def_cfa_offset 48
 647:Core/Src/esp32.c ****     uint8_t result;
 2988              		.loc 1 647 5 view .LVU670
 648:Core/Src/esp32.c ****     bool returnVal = false;
 2989              		.loc 1 648 5 view .LVU671
 2990              	.LVL237:
 649:Core/Src/esp32.c ****     do
 2991              		.loc 1 649 5 view .LVU672
 2992              	.LBB11:
 650:Core/Src/esp32.c ****     {
 651:Core/Src/esp32.c ****         Wifi_RxClear();
 2993              		.loc 1 651 9 view .LVU673
 2994 0004 FFF7FEFF 		bl	Wifi_RxClear
 2995              	.LVL238:
 652:Core/Src/esp32.c ****         // Get the connections status of all the possible connection with the ESP8266
 653:Core/Src/esp32.c ****         sprintf((char *)Buffs.TxBuffer, "AT+CIPSTATUS\r\n");
 2996              		.loc 1 653 9 view .LVU674
 2997 0008 3E4C     		ldr	r4, .L233
 2998 000a 3F4B     		ldr	r3, .L233+4
 2999 000c A446     		mov	ip, r4
 3000 000e 0FCB     		ldm	r3, {r0, r1, r2, r3}
 3001 0010 ACE80700 		stmia	ip!, {r0, r1, r2}
 3002 0014 2CF8023B 		strh	r3, [ip], #2	@ movhi
 3003 0018 1B0C     		lsrs	r3, r3, #16
 3004 001a 8CF80030 		strb	r3, [ip]
 654:Core/Src/esp32.c ****         if (Wifi_SendString((char *)Buffs.TxBuffer) == false)
 3005              		.loc 1 654 9 view .LVU675
 3006              		.loc 1 654 13 is_stmt 0 view .LVU676
ARM GAS  /var/folders/9y/n02fl3g16gnf7ppy14xghdy80000gn/T//ccqH5YoF.s 			page 72


 3007 001e 2046     		mov	r0, r4
 3008 0020 FFF7FEFF 		bl	Wifi_SendString
 3009              	.LVL239:
 3010              		.loc 1 654 12 view .LVU677
 3011 0024 0546     		mov	r5, r0
 3012 0026 10B9     		cbnz	r0, .L232
 3013              	.L224:
 3014              	.LVL240:
 3015              		.loc 1 654 12 view .LVU678
 3016              	.LBE11:
 655:Core/Src/esp32.c ****             break;
 656:Core/Src/esp32.c ****         if (Wifi_WaitForString(_WIFI_WAIT_TIME_LOW, &result, 2, "OK", "ERROR") == false)
 657:Core/Src/esp32.c ****             break;       // The timeout was completed and the string was not there
 658:Core/Src/esp32.c ****         if (result == 2) // It was find the "ERROR" String in the receiving information
 659:Core/Src/esp32.c ****             break;
 660:Core/Src/esp32.c ****         /*
 661:Core/Src/esp32.c ****          * it searches for the string STATUS: to know what is the status of the connection
 662:Core/Src/esp32.c ****          * and save this information in the different variables of the structure. The ESP8266
 663:Core/Src/esp32.c ****          * has five possible connection at the same time, therefore it uses a for to save
 664:Core/Src/esp32.c ****          * all the needed information in the structure. If there are not other connection
 665:Core/Src/esp32.c ****          * the str return a NULL value and the loop is broken.
 666:Core/Src/esp32.c ****          */
 667:Core/Src/esp32.c ****         char *str = strstr((char *)Buffs.RxBuffer.buff, "\nSTATUS:");
 668:Core/Src/esp32.c ****         if (str == NULL)
 669:Core/Src/esp32.c ****             break;
 670:Core/Src/esp32.c ****         str = strchr(str, ':');
 671:Core/Src/esp32.c ****         str++;
 672:Core/Src/esp32.c ****         for (uint8_t i = 0; i < 5; i++)
 673:Core/Src/esp32.c ****             Wifi.TcpIpConnections[i].status = (WifiConnectionStatus_t)atoi(str);
 674:Core/Src/esp32.c ****         str = strstr((char *)Buffs.RxBuffer.buff, "+CIPSTATUS:");
 675:Core/Src/esp32.c ****         for (uint8_t i = 0; i < 5; i++)
 676:Core/Src/esp32.c ****         {
 677:Core/Src/esp32.c ****             sscanf(str, "+CIPSTATUS:%d,\"%3s\",\"%[^\"]\",%d,%d,%d", (int *)&Wifi.TcpIpConnections[
 678:Core/Src/esp32.c ****             str++;
 679:Core/Src/esp32.c ****             str = strstr(str, "+CIPSTATUS:");
 680:Core/Src/esp32.c ****             if (str == NULL)
 681:Core/Src/esp32.c ****                 break;
 682:Core/Src/esp32.c ****         }
 683:Core/Src/esp32.c ****         returnVal = true;
 684:Core/Src/esp32.c **** 
 685:Core/Src/esp32.c ****     } while (0);
 3017              		.loc 1 685 13 is_stmt 1 view .LVU679
 686:Core/Src/esp32.c ****     return returnVal;
 3018              		.loc 1 686 5 view .LVU680
 687:Core/Src/esp32.c **** }
 3019              		.loc 1 687 1 is_stmt 0 view .LVU681
 3020 0028 2846     		mov	r0, r5
 3021 002a 07B0     		add	sp, sp, #28
 3022              		.cfi_remember_state
 3023              		.cfi_def_cfa_offset 20
 3024              		@ sp needed
 3025 002c F0BD     		pop	{r4, r5, r6, r7, pc}
 3026              	.LVL241:
 3027              	.L232:
 3028              		.cfi_restore_state
 3029              	.LBB14:
 656:Core/Src/esp32.c ****             break;       // The timeout was completed and the string was not there
ARM GAS  /var/folders/9y/n02fl3g16gnf7ppy14xghdy80000gn/T//ccqH5YoF.s 			page 73


 3030              		.loc 1 656 9 is_stmt 1 view .LVU682
 656:Core/Src/esp32.c ****             break;       // The timeout was completed and the string was not there
 3031              		.loc 1 656 13 is_stmt 0 view .LVU683
 3032 002e 374B     		ldr	r3, .L233+8
 3033 0030 0093     		str	r3, [sp]
 3034 0032 374B     		ldr	r3, .L233+12
 3035 0034 0222     		movs	r2, #2
 3036 0036 0DF11701 		add	r1, sp, #23
 3037 003a 4FF47A70 		mov	r0, #1000
 3038 003e FFF7FEFF 		bl	Wifi_WaitForString
 3039              	.LVL242:
 656:Core/Src/esp32.c ****             break;       // The timeout was completed and the string was not there
 3040              		.loc 1 656 12 view .LVU684
 3041 0042 0546     		mov	r5, r0
 3042 0044 0028     		cmp	r0, #0
 3043 0046 EFD0     		beq	.L224
 658:Core/Src/esp32.c ****             break;
 3044              		.loc 1 658 9 is_stmt 1 view .LVU685
 658:Core/Src/esp32.c ****             break;
 3045              		.loc 1 658 20 is_stmt 0 view .LVU686
 3046 0048 9DF81730 		ldrb	r3, [sp, #23]	@ zero_extendqisi2
 658:Core/Src/esp32.c ****             break;
 3047              		.loc 1 658 12 view .LVU687
 3048 004c 022B     		cmp	r3, #2
 3049 004e 55D0     		beq	.L229
 667:Core/Src/esp32.c ****         if (str == NULL)
 3050              		.loc 1 667 9 is_stmt 1 view .LVU688
 667:Core/Src/esp32.c ****         if (str == NULL)
 3051              		.loc 1 667 21 is_stmt 0 view .LVU689
 3052 0050 3049     		ldr	r1, .L233+16
 3053 0052 A4F61443 		subw	r3, r4, #3092
 3054 0056 D3F80008 		ldr	r0, [r3, #2048]
 3055 005a FFF7FEFF 		bl	strstr
 3056              	.LVL243:
 668:Core/Src/esp32.c ****             break;
 3057              		.loc 1 668 9 is_stmt 1 view .LVU690
 668:Core/Src/esp32.c ****             break;
 3058              		.loc 1 668 12 is_stmt 0 view .LVU691
 3059 005e 0028     		cmp	r0, #0
 3060 0060 4ED0     		beq	.L230
 670:Core/Src/esp32.c ****         str++;
 3061              		.loc 1 670 9 is_stmt 1 view .LVU692
 670:Core/Src/esp32.c ****         str++;
 3062              		.loc 1 670 15 is_stmt 0 view .LVU693
 3063 0062 3A21     		movs	r1, #58
 3064 0064 FFF7FEFF 		bl	strchr
 3065              	.LVL244:
 671:Core/Src/esp32.c ****         for (uint8_t i = 0; i < 5; i++)
 3066              		.loc 1 671 9 is_stmt 1 view .LVU694
 671:Core/Src/esp32.c ****         for (uint8_t i = 0; i < 5; i++)
 3067              		.loc 1 671 12 is_stmt 0 view .LVU695
 3068 0068 461C     		adds	r6, r0, #1
 3069              	.LVL245:
 672:Core/Src/esp32.c ****             Wifi.TcpIpConnections[i].status = (WifiConnectionStatus_t)atoi(str);
 3070              		.loc 1 672 9 is_stmt 1 view .LVU696
 3071              	.LBB12:
 672:Core/Src/esp32.c ****             Wifi.TcpIpConnections[i].status = (WifiConnectionStatus_t)atoi(str);
ARM GAS  /var/folders/9y/n02fl3g16gnf7ppy14xghdy80000gn/T//ccqH5YoF.s 			page 74


 3072              		.loc 1 672 14 view .LVU697
 672:Core/Src/esp32.c ****             Wifi.TcpIpConnections[i].status = (WifiConnectionStatus_t)atoi(str);
 3073              		.loc 1 672 22 is_stmt 0 view .LVU698
 3074 006a 0024     		movs	r4, #0
 672:Core/Src/esp32.c ****             Wifi.TcpIpConnections[i].status = (WifiConnectionStatus_t)atoi(str);
 3075              		.loc 1 672 9 view .LVU699
 3076 006c 0BE0     		b	.L225
 3077              	.LVL246:
 3078              	.L226:
 673:Core/Src/esp32.c ****         str = strstr((char *)Buffs.RxBuffer.buff, "+CIPSTATUS:");
 3079              		.loc 1 673 13 is_stmt 1 discriminator 3 view .LVU700
 673:Core/Src/esp32.c ****         str = strstr((char *)Buffs.RxBuffer.buff, "+CIPSTATUS:");
 3080              		.loc 1 673 71 is_stmt 0 discriminator 3 view .LVU701
 3081 006e 3046     		mov	r0, r6
 3082 0070 FFF7FEFF 		bl	atoi
 3083              	.LVL247:
 673:Core/Src/esp32.c ****         str = strstr((char *)Buffs.RxBuffer.buff, "+CIPSTATUS:");
 3084              		.loc 1 673 45 discriminator 3 view .LVU702
 3085 0074 C4EB0412 		rsb	r2, r4, r4, lsl #4
 3086 0078 274B     		ldr	r3, .L233+20
 3087 007a 03EB4203 		add	r3, r3, r2, lsl #1
 3088 007e 83F81601 		strb	r0, [r3, #278]
 672:Core/Src/esp32.c ****             Wifi.TcpIpConnections[i].status = (WifiConnectionStatus_t)atoi(str);
 3089              		.loc 1 672 36 is_stmt 1 discriminator 3 view .LVU703
 672:Core/Src/esp32.c ****             Wifi.TcpIpConnections[i].status = (WifiConnectionStatus_t)atoi(str);
 3090              		.loc 1 672 37 is_stmt 0 discriminator 3 view .LVU704
 3091 0082 0134     		adds	r4, r4, #1
 3092              	.LVL248:
 672:Core/Src/esp32.c ****             Wifi.TcpIpConnections[i].status = (WifiConnectionStatus_t)atoi(str);
 3093              		.loc 1 672 37 discriminator 3 view .LVU705
 3094 0084 E4B2     		uxtb	r4, r4
 3095              	.LVL249:
 3096              	.L225:
 672:Core/Src/esp32.c ****             Wifi.TcpIpConnections[i].status = (WifiConnectionStatus_t)atoi(str);
 3097              		.loc 1 672 29 is_stmt 1 discriminator 1 view .LVU706
 672:Core/Src/esp32.c ****             Wifi.TcpIpConnections[i].status = (WifiConnectionStatus_t)atoi(str);
 3098              		.loc 1 672 9 is_stmt 0 discriminator 1 view .LVU707
 3099 0086 042C     		cmp	r4, #4
 3100 0088 F1D9     		bls	.L226
 3101              	.LBE12:
 674:Core/Src/esp32.c ****         for (uint8_t i = 0; i < 5; i++)
 3102              		.loc 1 674 9 is_stmt 1 view .LVU708
 674:Core/Src/esp32.c ****         for (uint8_t i = 0; i < 5; i++)
 3103              		.loc 1 674 15 is_stmt 0 view .LVU709
 3104 008a 2449     		ldr	r1, .L233+24
 3105 008c 244B     		ldr	r3, .L233+28
 3106 008e D3F80008 		ldr	r0, [r3, #2048]
 3107 0092 FFF7FEFF 		bl	strstr
 3108              	.LVL250:
 3109 0096 0646     		mov	r6, r0
 3110              	.LVL251:
 675:Core/Src/esp32.c ****         {
 3111              		.loc 1 675 9 is_stmt 1 view .LVU710
 3112              	.LBB13:
 675:Core/Src/esp32.c ****         {
 3113              		.loc 1 675 14 view .LVU711
 675:Core/Src/esp32.c ****         {
ARM GAS  /var/folders/9y/n02fl3g16gnf7ppy14xghdy80000gn/T//ccqH5YoF.s 			page 75


 3114              		.loc 1 675 22 is_stmt 0 view .LVU712
 3115 0098 0024     		movs	r4, #0
 3116              	.LVL252:
 3117              	.L227:
 675:Core/Src/esp32.c ****         {
 3118              		.loc 1 675 29 is_stmt 1 discriminator 1 view .LVU713
 675:Core/Src/esp32.c ****         {
 3119              		.loc 1 675 9 is_stmt 0 discriminator 1 view .LVU714
 3120 009a 042C     		cmp	r4, #4
 3121 009c C4D8     		bhi	.L224
 677:Core/Src/esp32.c ****             str++;
 3122              		.loc 1 677 13 is_stmt 1 view .LVU715
 677:Core/Src/esp32.c ****             str++;
 3123              		.loc 1 677 77 is_stmt 0 view .LVU716
 3124 009e 1E49     		ldr	r1, .L233+20
 3125 00a0 C4EB0412 		rsb	r2, r4, r4, lsl #4
 3126 00a4 5200     		lsls	r2, r2, #1
 3127 00a6 02F58872 		add	r2, r2, #272
 3128 00aa 0A44     		add	r2, r2, r1
 677:Core/Src/esp32.c ****             str++;
 3129              		.loc 1 677 166 view .LVU717
 3130 00ac 02F10C07 		add	r7, r2, #12
 677:Core/Src/esp32.c ****             str++;
 3131              		.loc 1 677 184 view .LVU718
 3132 00b0 C4EB0413 		rsb	r3, r4, r4, lsl #4
 3133 00b4 5B00     		lsls	r3, r3, #1
 3134 00b6 03F59473 		add	r3, r3, #296
 3135 00ba 0B44     		add	r3, r3, r1
 3136 00bc 03F1060C 		add	ip, r3, #6
 677:Core/Src/esp32.c ****             str++;
 3137              		.loc 1 677 229 view .LVU719
 3138 00c0 0833     		adds	r3, r3, #8
 677:Core/Src/esp32.c ****             str++;
 3139              		.loc 1 677 273 view .LVU720
 3140 00c2 C4EB0410 		rsb	r0, r4, r4, lsl #4
 3141              	.LVL253:
 677:Core/Src/esp32.c ****             str++;
 3142              		.loc 1 677 273 view .LVU721
 3143 00c6 4000     		lsls	r0, r0, #1
 3144 00c8 00F59470 		add	r0, r0, #296
 3145 00cc 0144     		add	r1, r1, r0
 3146 00ce 0A31     		adds	r1, r1, #10
 677:Core/Src/esp32.c ****             str++;
 3147              		.loc 1 677 13 view .LVU722
 3148 00d0 0391     		str	r1, [sp, #12]
 3149 00d2 0293     		str	r3, [sp, #8]
 3150 00d4 CDF804C0 		str	ip, [sp, #4]
 3151 00d8 0097     		str	r7, [sp]
 3152 00da 02F10803 		add	r3, r2, #8
 3153 00de 0732     		adds	r2, r2, #7
 3154 00e0 1049     		ldr	r1, .L233+32
 3155 00e2 3046     		mov	r0, r6
 3156 00e4 FFF7FEFF 		bl	sscanf
 3157              	.LVL254:
 678:Core/Src/esp32.c ****             str = strstr(str, "+CIPSTATUS:");
 3158              		.loc 1 678 13 is_stmt 1 view .LVU723
 679:Core/Src/esp32.c ****             if (str == NULL)
ARM GAS  /var/folders/9y/n02fl3g16gnf7ppy14xghdy80000gn/T//ccqH5YoF.s 			page 76


 3159              		.loc 1 679 13 view .LVU724
 679:Core/Src/esp32.c ****             if (str == NULL)
 3160              		.loc 1 679 19 is_stmt 0 view .LVU725
 3161 00e8 0C49     		ldr	r1, .L233+24
 3162 00ea 701C     		adds	r0, r6, #1
 3163              	.LVL255:
 679:Core/Src/esp32.c ****             if (str == NULL)
 3164              		.loc 1 679 19 view .LVU726
 3165 00ec FFF7FEFF 		bl	strstr
 3166              	.LVL256:
 680:Core/Src/esp32.c ****                 break;
 3167              		.loc 1 680 13 is_stmt 1 view .LVU727
 680:Core/Src/esp32.c ****                 break;
 3168              		.loc 1 680 16 is_stmt 0 view .LVU728
 3169 00f0 0646     		mov	r6, r0
 3170 00f2 0028     		cmp	r0, #0
 3171 00f4 98D0     		beq	.L224
 675:Core/Src/esp32.c ****         {
 3172              		.loc 1 675 36 is_stmt 1 discriminator 2 view .LVU729
 675:Core/Src/esp32.c ****         {
 3173              		.loc 1 675 37 is_stmt 0 discriminator 2 view .LVU730
 3174 00f6 0134     		adds	r4, r4, #1
 3175              	.LVL257:
 675:Core/Src/esp32.c ****         {
 3176              		.loc 1 675 37 discriminator 2 view .LVU731
 3177 00f8 E4B2     		uxtb	r4, r4
 3178              	.LVL258:
 675:Core/Src/esp32.c ****         {
 3179              		.loc 1 675 37 discriminator 2 view .LVU732
 3180 00fa CEE7     		b	.L227
 3181              	.LVL259:
 3182              	.L229:
 675:Core/Src/esp32.c ****         {
 3183              		.loc 1 675 37 discriminator 2 view .LVU733
 3184              	.LBE13:
 3185              	.LBE14:
 648:Core/Src/esp32.c ****     do
 3186              		.loc 1 648 10 view .LVU734
 3187 00fc 0025     		movs	r5, #0
 3188 00fe 93E7     		b	.L224
 3189              	.LVL260:
 3190              	.L230:
 648:Core/Src/esp32.c ****     do
 3191              		.loc 1 648 10 view .LVU735
 3192 0100 0025     		movs	r5, #0
 3193 0102 91E7     		b	.L224
 3194              	.L234:
 3195              		.align	2
 3196              	.L233:
 3197 0104 140C0000 		.word	Buffs+3092
 3198 0108 00000000 		.word	.LC29
 3199 010c 0C000000 		.word	.LC2
 3200 0110 08000000 		.word	.LC1
 3201 0114 10000000 		.word	.LC30
 3202 0118 00000000 		.word	.LANCHOR0
 3203 011c 1C000000 		.word	.LC31
 3204 0120 00000000 		.word	Buffs
ARM GAS  /var/folders/9y/n02fl3g16gnf7ppy14xghdy80000gn/T//ccqH5YoF.s 			page 77


 3205 0124 28000000 		.word	.LC32
 3206              		.cfi_endproc
 3207              	.LFE1184:
 3209              		.section	.rodata.Wifi_TcpIp_Ping.str1.4,"aMS",%progbits,1
 3210              		.align	2
 3211              	.LC33:
 3212 0000 41542B50 		.ascii	"AT+PING=\"%s\"\015\012\000"
 3212      494E473D 
 3212      22257322 
 3212      0D0A00
 3213 000f 00       		.align	2
 3214              	.LC34:
 3215 0010 2B00     		.ascii	"+\000"
 3216              		.section	.text.Wifi_TcpIp_Ping,"ax",%progbits
 3217              		.align	1
 3218              		.global	Wifi_TcpIp_Ping
 3219              		.syntax unified
 3220              		.thumb
 3221              		.thumb_func
 3222              		.fpu fpv4-sp-d16
 3224              	Wifi_TcpIp_Ping:
 3225              	.LVL261:
 3226              	.LFB1185:
 688:Core/Src/esp32.c **** // ################################################################################################
 689:Core/Src/esp32.c **** bool Wifi_TcpIp_Ping(char *PingTo)
 690:Core/Src/esp32.c **** {
 3227              		.loc 1 690 1 is_stmt 1 view -0
 3228              		.cfi_startproc
 3229              		@ args = 0, pretend = 0, frame = 8
 3230              		@ frame_needed = 0, uses_anonymous_args = 0
 3231              		.loc 1 690 1 is_stmt 0 view .LVU737
 3232 0000 30B5     		push	{r4, r5, lr}
 3233              		.cfi_def_cfa_offset 12
 3234              		.cfi_offset 4, -12
 3235              		.cfi_offset 5, -8
 3236              		.cfi_offset 14, -4
 3237 0002 85B0     		sub	sp, sp, #20
 3238              		.cfi_def_cfa_offset 32
 3239 0004 0446     		mov	r4, r0
 691:Core/Src/esp32.c ****     uint8_t result;
 3240              		.loc 1 691 5 is_stmt 1 view .LVU738
 692:Core/Src/esp32.c ****     bool returnVal = false;
 3241              		.loc 1 692 5 view .LVU739
 3242              	.LVL262:
 693:Core/Src/esp32.c ****     do
 3243              		.loc 1 693 5 view .LVU740
 694:Core/Src/esp32.c ****     {
 695:Core/Src/esp32.c ****         Wifi_RxClear();
 3244              		.loc 1 695 9 view .LVU741
 3245 0006 FFF7FEFF 		bl	Wifi_RxClear
 3246              	.LVL263:
 696:Core/Src/esp32.c ****         sprintf((char *)Buffs.TxBuffer, "AT+PING=\"%s\"\r\n", PingTo);
 3247              		.loc 1 696 9 view .LVU742
 3248 000a 124D     		ldr	r5, .L241
 3249 000c 2246     		mov	r2, r4
 3250 000e 1249     		ldr	r1, .L241+4
 3251 0010 2846     		mov	r0, r5
ARM GAS  /var/folders/9y/n02fl3g16gnf7ppy14xghdy80000gn/T//ccqH5YoF.s 			page 78


 3252 0012 FFF7FEFF 		bl	sprintf
 3253              	.LVL264:
 697:Core/Src/esp32.c ****         if (Wifi_SendString((char *)Buffs.TxBuffer) == false)
 3254              		.loc 1 697 9 view .LVU743
 3255              		.loc 1 697 13 is_stmt 0 view .LVU744
 3256 0016 2846     		mov	r0, r5
 3257 0018 FFF7FEFF 		bl	Wifi_SendString
 3258              	.LVL265:
 3259              		.loc 1 697 12 view .LVU745
 3260 001c 08B9     		cbnz	r0, .L239
 3261              	.L236:
 3262              	.LVL266:
 698:Core/Src/esp32.c ****             break;
 699:Core/Src/esp32.c ****         if (Wifi_WaitForString(_WIFI_WAIT_TIME_MED, &result, 3, "OK", "ERROR") == false)
 700:Core/Src/esp32.c ****             break;       // The timeout was completed and the string was not there
 701:Core/Src/esp32.c ****         if (result == 2) // It was find the "ERROR" String in the receiving information
 702:Core/Src/esp32.c ****             break;
 703:Core/Src/esp32.c ****         if (Wifi_ReturnInteger((int32_t *)&Wifi.TcpIpPingAnswer, 2, "+") == false)
 704:Core/Src/esp32.c ****             break;
 705:Core/Src/esp32.c ****         returnVal = true;
 706:Core/Src/esp32.c ****     } while (0);
 3263              		.loc 1 706 13 is_stmt 1 view .LVU746
 707:Core/Src/esp32.c ****     return returnVal;
 3264              		.loc 1 707 5 view .LVU747
 708:Core/Src/esp32.c **** }
 3265              		.loc 1 708 1 is_stmt 0 view .LVU748
 3266 001e 05B0     		add	sp, sp, #20
 3267              		.cfi_remember_state
 3268              		.cfi_def_cfa_offset 12
 3269              		@ sp needed
 3270 0020 30BD     		pop	{r4, r5, pc}
 3271              	.LVL267:
 3272              	.L239:
 3273              		.cfi_restore_state
 699:Core/Src/esp32.c ****             break;       // The timeout was completed and the string was not there
 3274              		.loc 1 699 9 is_stmt 1 view .LVU749
 699:Core/Src/esp32.c ****             break;       // The timeout was completed and the string was not there
 3275              		.loc 1 699 13 is_stmt 0 view .LVU750
 3276 0022 0E4B     		ldr	r3, .L241+8
 3277 0024 0093     		str	r3, [sp]
 3278 0026 0E4B     		ldr	r3, .L241+12
 3279 0028 0322     		movs	r2, #3
 3280 002a 0DF10F01 		add	r1, sp, #15
 3281 002e 41F28830 		movw	r0, #5000
 3282 0032 FFF7FEFF 		bl	Wifi_WaitForString
 3283              	.LVL268:
 699:Core/Src/esp32.c ****             break;       // The timeout was completed and the string was not there
 3284              		.loc 1 699 12 view .LVU751
 3285 0036 0028     		cmp	r0, #0
 3286 0038 F1D0     		beq	.L236
 701:Core/Src/esp32.c ****             break;
 3287              		.loc 1 701 9 is_stmt 1 view .LVU752
 701:Core/Src/esp32.c ****             break;
 3288              		.loc 1 701 20 is_stmt 0 view .LVU753
 3289 003a 9DF80F30 		ldrb	r3, [sp, #15]	@ zero_extendqisi2
 701:Core/Src/esp32.c ****             break;
 3290              		.loc 1 701 12 view .LVU754
ARM GAS  /var/folders/9y/n02fl3g16gnf7ppy14xghdy80000gn/T//ccqH5YoF.s 			page 79


 3291 003e 022B     		cmp	r3, #2
 3292 0040 01D1     		bne	.L240
 692:Core/Src/esp32.c ****     do
 3293              		.loc 1 692 10 view .LVU755
 3294 0042 0020     		movs	r0, #0
 3295 0044 EBE7     		b	.L236
 3296              	.L240:
 703:Core/Src/esp32.c ****             break;
 3297              		.loc 1 703 9 is_stmt 1 view .LVU756
 703:Core/Src/esp32.c ****             break;
 3298              		.loc 1 703 13 is_stmt 0 view .LVU757
 3299 0046 074A     		ldr	r2, .L241+16
 3300 0048 0221     		movs	r1, #2
 3301 004a 0748     		ldr	r0, .L241+20
 3302 004c FFF7FEFF 		bl	Wifi_ReturnInteger
 3303              	.LVL269:
 3304 0050 E5E7     		b	.L236
 3305              	.L242:
 3306 0052 00BF     		.align	2
 3307              	.L241:
 3308 0054 140C0000 		.word	Buffs+3092
 3309 0058 00000000 		.word	.LC33
 3310 005c 0C000000 		.word	.LC2
 3311 0060 08000000 		.word	.LC1
 3312 0064 10000000 		.word	.LC34
 3313 0068 14010000 		.word	.LANCHOR0+276
 3314              		.cfi_endproc
 3315              	.LFE1185:
 3317              		.section	.rodata.Wifi_TcpIp_SetMultiConnection.str1.4,"aMS",%progbits,1
 3318              		.align	2
 3319              	.LC35:
 3320 0000 41542B43 		.ascii	"AT+CIPMUX=%d\015\012\000"
 3320      49504D55 
 3320      583D2564 
 3320      0D0A00
 3321              		.section	.text.Wifi_TcpIp_SetMultiConnection,"ax",%progbits
 3322              		.align	1
 3323              		.global	Wifi_TcpIp_SetMultiConnection
 3324              		.syntax unified
 3325              		.thumb
 3326              		.thumb_func
 3327              		.fpu fpv4-sp-d16
 3329              	Wifi_TcpIp_SetMultiConnection:
 3330              	.LVL270:
 3331              	.LFB1186:
 709:Core/Src/esp32.c **** // ################################################################################################
 710:Core/Src/esp32.c **** bool Wifi_TcpIp_SetMultiConnection(bool EnableMultiConnections)
 711:Core/Src/esp32.c **** {
 3332              		.loc 1 711 1 is_stmt 1 view -0
 3333              		.cfi_startproc
 3334              		@ args = 0, pretend = 0, frame = 8
 3335              		@ frame_needed = 0, uses_anonymous_args = 0
 3336              		.loc 1 711 1 is_stmt 0 view .LVU759
 3337 0000 30B5     		push	{r4, r5, lr}
 3338              		.cfi_def_cfa_offset 12
 3339              		.cfi_offset 4, -12
 3340              		.cfi_offset 5, -8
ARM GAS  /var/folders/9y/n02fl3g16gnf7ppy14xghdy80000gn/T//ccqH5YoF.s 			page 80


 3341              		.cfi_offset 14, -4
 3342 0002 85B0     		sub	sp, sp, #20
 3343              		.cfi_def_cfa_offset 32
 3344 0004 0446     		mov	r4, r0
 712:Core/Src/esp32.c ****     uint8_t result;
 3345              		.loc 1 712 5 is_stmt 1 view .LVU760
 713:Core/Src/esp32.c ****     bool returnVal = false;
 3346              		.loc 1 713 5 view .LVU761
 3347              	.LVL271:
 714:Core/Src/esp32.c ****     do
 3348              		.loc 1 714 5 view .LVU762
 715:Core/Src/esp32.c ****     {
 716:Core/Src/esp32.c ****         // Enable or Disable the multiconnection possibility
 717:Core/Src/esp32.c ****         Wifi_RxClear();
 3349              		.loc 1 717 9 view .LVU763
 3350 0006 FFF7FEFF 		bl	Wifi_RxClear
 3351              	.LVL272:
 718:Core/Src/esp32.c ****         sprintf((char *)Buffs.TxBuffer, "AT+CIPMUX=%d\r\n", EnableMultiConnections);
 3352              		.loc 1 718 9 view .LVU764
 3353 000a 114D     		ldr	r5, .L248
 3354 000c 2246     		mov	r2, r4
 3355 000e 1149     		ldr	r1, .L248+4
 3356 0010 2846     		mov	r0, r5
 3357 0012 FFF7FEFF 		bl	sprintf
 3358              	.LVL273:
 719:Core/Src/esp32.c ****         if (Wifi_SendString((char *)Buffs.TxBuffer) == false)
 3359              		.loc 1 719 9 view .LVU765
 3360              		.loc 1 719 13 is_stmt 0 view .LVU766
 3361 0016 2846     		mov	r0, r5
 3362 0018 FFF7FEFF 		bl	Wifi_SendString
 3363              	.LVL274:
 3364              		.loc 1 719 12 view .LVU767
 3365 001c 08B9     		cbnz	r0, .L247
 3366              	.LVL275:
 3367              	.L244:
 720:Core/Src/esp32.c ****             break;
 721:Core/Src/esp32.c ****         if (Wifi_WaitForString(_WIFI_WAIT_TIME_LOW, &result, 2, "OK", "ERROR") == false)
 722:Core/Src/esp32.c ****             break;
 723:Core/Src/esp32.c ****         if (result == 2)
 724:Core/Src/esp32.c ****             break;
 725:Core/Src/esp32.c ****         Wifi.TcpIpMultiConnection = EnableMultiConnections;
 726:Core/Src/esp32.c ****         returnVal = true;
 727:Core/Src/esp32.c ****     } while (0);
 3368              		.loc 1 727 13 is_stmt 1 view .LVU768
 728:Core/Src/esp32.c ****     return returnVal;
 3369              		.loc 1 728 5 view .LVU769
 729:Core/Src/esp32.c **** }
 3370              		.loc 1 729 1 is_stmt 0 view .LVU770
 3371 001e 05B0     		add	sp, sp, #20
 3372              		.cfi_remember_state
 3373              		.cfi_def_cfa_offset 12
 3374              		@ sp needed
 3375 0020 30BD     		pop	{r4, r5, pc}
 3376              	.LVL276:
 3377              	.L247:
 3378              		.cfi_restore_state
 721:Core/Src/esp32.c ****             break;
ARM GAS  /var/folders/9y/n02fl3g16gnf7ppy14xghdy80000gn/T//ccqH5YoF.s 			page 81


 3379              		.loc 1 721 9 is_stmt 1 view .LVU771
 721:Core/Src/esp32.c ****             break;
 3380              		.loc 1 721 13 is_stmt 0 view .LVU772
 3381 0022 0D4B     		ldr	r3, .L248+8
 3382 0024 0093     		str	r3, [sp]
 3383 0026 0D4B     		ldr	r3, .L248+12
 3384 0028 0222     		movs	r2, #2
 3385 002a 0DF10F01 		add	r1, sp, #15
 3386 002e 4FF47A70 		mov	r0, #1000
 3387 0032 FFF7FEFF 		bl	Wifi_WaitForString
 3388              	.LVL277:
 721:Core/Src/esp32.c ****             break;
 3389              		.loc 1 721 12 view .LVU773
 3390 0036 0028     		cmp	r0, #0
 3391 0038 F1D0     		beq	.L244
 723:Core/Src/esp32.c ****             break;
 3392              		.loc 1 723 9 is_stmt 1 view .LVU774
 723:Core/Src/esp32.c ****             break;
 3393              		.loc 1 723 20 is_stmt 0 view .LVU775
 3394 003a 9DF80F30 		ldrb	r3, [sp, #15]	@ zero_extendqisi2
 723:Core/Src/esp32.c ****             break;
 3395              		.loc 1 723 12 view .LVU776
 3396 003e 022B     		cmp	r3, #2
 3397 0040 03D0     		beq	.L245
 725:Core/Src/esp32.c ****         returnVal = true;
 3398              		.loc 1 725 9 is_stmt 1 view .LVU777
 725:Core/Src/esp32.c ****         returnVal = true;
 3399              		.loc 1 725 35 is_stmt 0 view .LVU778
 3400 0042 074B     		ldr	r3, .L248+16
 3401 0044 83F81341 		strb	r4, [r3, #275]
 726:Core/Src/esp32.c ****     } while (0);
 3402              		.loc 1 726 9 is_stmt 1 view .LVU779
 3403              	.LVL278:
 726:Core/Src/esp32.c ****     } while (0);
 3404              		.loc 1 726 9 is_stmt 0 view .LVU780
 3405 0048 E9E7     		b	.L244
 3406              	.LVL279:
 3407              	.L245:
 713:Core/Src/esp32.c ****     do
 3408              		.loc 1 713 10 view .LVU781
 3409 004a 0020     		movs	r0, #0
 3410 004c E7E7     		b	.L244
 3411              	.L249:
 3412 004e 00BF     		.align	2
 3413              	.L248:
 3414 0050 140C0000 		.word	Buffs+3092
 3415 0054 00000000 		.word	.LC35
 3416 0058 0C000000 		.word	.LC2
 3417 005c 08000000 		.word	.LC1
 3418 0060 00000000 		.word	.LANCHOR0
 3419              		.cfi_endproc
 3420              	.LFE1186:
 3422              		.section	.rodata.Wifi_TcpIp_GetMultiConnection.str1.4,"aMS",%progbits,1
 3423              		.align	2
 3424              	.LC36:
 3425 0000 41542B43 		.ascii	"AT+CIPMUX?\015\012\000"
 3425      49504D55 
ARM GAS  /var/folders/9y/n02fl3g16gnf7ppy14xghdy80000gn/T//ccqH5YoF.s 			page 82


 3425      583F0D0A 
 3425      00
 3426              		.section	.text.Wifi_TcpIp_GetMultiConnection,"ax",%progbits
 3427              		.align	1
 3428              		.global	Wifi_TcpIp_GetMultiConnection
 3429              		.syntax unified
 3430              		.thumb
 3431              		.thumb_func
 3432              		.fpu fpv4-sp-d16
 3434              	Wifi_TcpIp_GetMultiConnection:
 3435              	.LFB1187:
 730:Core/Src/esp32.c **** // ################################################################################################
 731:Core/Src/esp32.c **** bool Wifi_TcpIp_GetMultiConnection(void)
 732:Core/Src/esp32.c **** {
 3436              		.loc 1 732 1 is_stmt 1 view -0
 3437              		.cfi_startproc
 3438              		@ args = 0, pretend = 0, frame = 8
 3439              		@ frame_needed = 0, uses_anonymous_args = 0
 3440 0000 10B5     		push	{r4, lr}
 3441              		.cfi_def_cfa_offset 8
 3442              		.cfi_offset 4, -8
 3443              		.cfi_offset 14, -4
 3444 0002 84B0     		sub	sp, sp, #16
 3445              		.cfi_def_cfa_offset 24
 733:Core/Src/esp32.c ****     uint8_t result;
 3446              		.loc 1 733 5 view .LVU783
 734:Core/Src/esp32.c ****     bool returnVal = false;
 3447              		.loc 1 734 5 view .LVU784
 3448              	.LVL280:
 735:Core/Src/esp32.c ****     do
 3449              		.loc 1 735 5 view .LVU785
 736:Core/Src/esp32.c ****     {
 737:Core/Src/esp32.c ****         Wifi_RxClear();
 3450              		.loc 1 737 9 view .LVU786
 3451 0004 FFF7FEFF 		bl	Wifi_RxClear
 3452              	.LVL281:
 738:Core/Src/esp32.c ****         sprintf((char *)Buffs.TxBuffer, "AT+CIPMUX?\r\n");
 3453              		.loc 1 738 9 view .LVU787
 3454 0008 184C     		ldr	r4, .L256
 3455 000a 194B     		ldr	r3, .L256+4
 3456 000c A446     		mov	ip, r4
 3457 000e 0FCB     		ldm	r3, {r0, r1, r2, r3}
 3458 0010 ACE80700 		stmia	ip!, {r0, r1, r2}
 3459 0014 8CF80030 		strb	r3, [ip]
 739:Core/Src/esp32.c ****         if (Wifi_SendString((char *)Buffs.TxBuffer) == false)
 3460              		.loc 1 739 9 view .LVU788
 3461              		.loc 1 739 13 is_stmt 0 view .LVU789
 3462 0018 2046     		mov	r0, r4
 3463 001a FFF7FEFF 		bl	Wifi_SendString
 3464              	.LVL282:
 3465              		.loc 1 739 12 view .LVU790
 3466 001e 08B9     		cbnz	r0, .L254
 3467              	.LVL283:
 3468              	.L251:
 740:Core/Src/esp32.c ****             break;
 741:Core/Src/esp32.c ****         if (Wifi_WaitForString(_WIFI_WAIT_TIME_LOW, &result, 2, "OK", "ERROR") == false)
 742:Core/Src/esp32.c ****             break;       // The timeout was completed and the string was not there
ARM GAS  /var/folders/9y/n02fl3g16gnf7ppy14xghdy80000gn/T//ccqH5YoF.s 			page 83


 743:Core/Src/esp32.c ****         if (result == 2) // It was find the "ERROR" String in the receiving information
 744:Core/Src/esp32.c ****             break;
 745:Core/Src/esp32.c ****         if (Wifi_ReturnInteger((int32_t *)&result, 1, ":") == false)
 746:Core/Src/esp32.c ****             break;
 747:Core/Src/esp32.c ****         Wifi.TcpIpMultiConnection = (bool)result;
 748:Core/Src/esp32.c ****         returnVal = true;
 749:Core/Src/esp32.c ****     } while (0);
 3469              		.loc 1 749 13 is_stmt 1 view .LVU791
 750:Core/Src/esp32.c ****     return returnVal;
 3470              		.loc 1 750 5 view .LVU792
 751:Core/Src/esp32.c **** }
 3471              		.loc 1 751 1 is_stmt 0 view .LVU793
 3472 0020 04B0     		add	sp, sp, #16
 3473              		.cfi_remember_state
 3474              		.cfi_def_cfa_offset 8
 3475              		@ sp needed
 3476 0022 10BD     		pop	{r4, pc}
 3477              	.LVL284:
 3478              	.L254:
 3479              		.cfi_restore_state
 741:Core/Src/esp32.c ****             break;       // The timeout was completed and the string was not there
 3480              		.loc 1 741 9 is_stmt 1 view .LVU794
 741:Core/Src/esp32.c ****             break;       // The timeout was completed and the string was not there
 3481              		.loc 1 741 13 is_stmt 0 view .LVU795
 3482 0024 134B     		ldr	r3, .L256+8
 3483 0026 0093     		str	r3, [sp]
 3484 0028 134B     		ldr	r3, .L256+12
 3485 002a 0222     		movs	r2, #2
 3486 002c 0DF10F01 		add	r1, sp, #15
 3487 0030 4FF47A70 		mov	r0, #1000
 3488 0034 FFF7FEFF 		bl	Wifi_WaitForString
 3489              	.LVL285:
 741:Core/Src/esp32.c ****             break;       // The timeout was completed and the string was not there
 3490              		.loc 1 741 12 view .LVU796
 3491 0038 0028     		cmp	r0, #0
 3492 003a F1D0     		beq	.L251
 743:Core/Src/esp32.c ****             break;
 3493              		.loc 1 743 9 is_stmt 1 view .LVU797
 743:Core/Src/esp32.c ****             break;
 3494              		.loc 1 743 20 is_stmt 0 view .LVU798
 3495 003c 9DF80F30 		ldrb	r3, [sp, #15]	@ zero_extendqisi2
 743:Core/Src/esp32.c ****             break;
 3496              		.loc 1 743 12 view .LVU799
 3497 0040 022B     		cmp	r3, #2
 3498 0042 01D1     		bne	.L255
 734:Core/Src/esp32.c ****     do
 3499              		.loc 1 734 10 view .LVU800
 3500 0044 0020     		movs	r0, #0
 3501 0046 EBE7     		b	.L251
 3502              	.L255:
 745:Core/Src/esp32.c ****             break;
 3503              		.loc 1 745 9 is_stmt 1 view .LVU801
 745:Core/Src/esp32.c ****             break;
 3504              		.loc 1 745 13 is_stmt 0 view .LVU802
 3505 0048 0C4A     		ldr	r2, .L256+16
 3506 004a 0121     		movs	r1, #1
 3507 004c 0DF10F00 		add	r0, sp, #15
ARM GAS  /var/folders/9y/n02fl3g16gnf7ppy14xghdy80000gn/T//ccqH5YoF.s 			page 84


 3508 0050 FFF7FEFF 		bl	Wifi_ReturnInteger
 3509              	.LVL286:
 745:Core/Src/esp32.c ****             break;
 3510              		.loc 1 745 12 view .LVU803
 3511 0054 0028     		cmp	r0, #0
 3512 0056 E3D0     		beq	.L251
 747:Core/Src/esp32.c ****         returnVal = true;
 3513              		.loc 1 747 9 is_stmt 1 view .LVU804
 747:Core/Src/esp32.c ****         returnVal = true;
 3514              		.loc 1 747 37 is_stmt 0 view .LVU805
 3515 0058 9DF80F30 		ldrb	r3, [sp, #15]	@ zero_extendqisi2
 3516 005c 003B     		subs	r3, r3, #0
 3517 005e 18BF     		it	ne
 3518 0060 0123     		movne	r3, #1
 747:Core/Src/esp32.c ****         returnVal = true;
 3519              		.loc 1 747 35 view .LVU806
 3520 0062 074A     		ldr	r2, .L256+20
 3521 0064 82F81331 		strb	r3, [r2, #275]
 748:Core/Src/esp32.c ****     } while (0);
 3522              		.loc 1 748 9 is_stmt 1 view .LVU807
 3523              	.LVL287:
 748:Core/Src/esp32.c ****     } while (0);
 3524              		.loc 1 748 9 is_stmt 0 view .LVU808
 3525 0068 DAE7     		b	.L251
 3526              	.L257:
 3527 006a 00BF     		.align	2
 3528              	.L256:
 3529 006c 140C0000 		.word	Buffs+3092
 3530 0070 00000000 		.word	.LC36
 3531 0074 0C000000 		.word	.LC2
 3532 0078 08000000 		.word	.LC1
 3533 007c 10000000 		.word	.LC10
 3534 0080 00000000 		.word	.LANCHOR0
 3535              		.cfi_endproc
 3536              	.LFE1187:
 3538              		.section	.rodata.Wifi_TcpIp_StartTcpConnection.str1.4,"aMS",%progbits,1
 3539              		.align	2
 3540              	.LC37:
 3541 0000 41542B43 		.ascii	"AT+CIPSERVER=1,%d\015\012\000"
 3541      49505345 
 3541      52564552 
 3541      3D312C25 
 3541      640D0A00 
 3542              		.align	2
 3543              	.LC38:
 3544 0014 41542B43 		.ascii	"AT+CIPSTART=\"TCP\",\"%s\",%d,%d\015\012\000"
 3544      49505354 
 3544      4152543D 
 3544      22544350 
 3544      222C2225 
 3545 0033 00       		.align	2
 3546              	.LC39:
 3547 0034 41542B43 		.ascii	"AT+CIPSTART=%d,\"TCP\",\"%s\",%d,%d\015\012\000"
 3547      49505354 
 3547      4152543D 
 3547      25642C22 
 3547      54435022 
ARM GAS  /var/folders/9y/n02fl3g16gnf7ppy14xghdy80000gn/T//ccqH5YoF.s 			page 85


 3548 0056 0000     		.align	2
 3549              	.LC40:
 3550 0058 434F4E4E 		.ascii	"CONNECT\000"
 3550      45435400 
 3551              		.section	.text.Wifi_TcpIp_StartTcpConnection,"ax",%progbits
 3552              		.align	1
 3553              		.global	Wifi_TcpIp_StartTcpConnection
 3554              		.syntax unified
 3555              		.thumb
 3556              		.thumb_func
 3557              		.fpu fpv4-sp-d16
 3559              	Wifi_TcpIp_StartTcpConnection:
 3560              	.LVL288:
 3561              	.LFB1188:
 752:Core/Src/esp32.c **** // ################################################################################################
 753:Core/Src/esp32.c **** bool Wifi_TcpIp_StartTcpConnection(uint8_t LinkId, char *RemoteIp, uint16_t RemotePort, uint16_t Ti
 754:Core/Src/esp32.c **** {
 3562              		.loc 1 754 1 is_stmt 1 view -0
 3563              		.cfi_startproc
 3564              		@ args = 0, pretend = 0, frame = 8
 3565              		@ frame_needed = 0, uses_anonymous_args = 0
 3566              		.loc 1 754 1 is_stmt 0 view .LVU810
 3567 0000 2DE9F041 		push	{r4, r5, r6, r7, r8, lr}
 3568              		.cfi_def_cfa_offset 24
 3569              		.cfi_offset 4, -24
 3570              		.cfi_offset 5, -20
 3571              		.cfi_offset 6, -16
 3572              		.cfi_offset 7, -12
 3573              		.cfi_offset 8, -8
 3574              		.cfi_offset 14, -4
 3575 0004 84B0     		sub	sp, sp, #16
 3576              		.cfi_def_cfa_offset 40
 3577 0006 0746     		mov	r7, r0
 3578 0008 0D46     		mov	r5, r1
 3579 000a 1446     		mov	r4, r2
 3580 000c 1E46     		mov	r6, r3
 755:Core/Src/esp32.c ****     uint8_t result;
 3581              		.loc 1 755 5 is_stmt 1 view .LVU811
 756:Core/Src/esp32.c ****     bool returnVal = false;
 3582              		.loc 1 756 5 view .LVU812
 3583              	.LVL289:
 757:Core/Src/esp32.c ****     do
 3584              		.loc 1 757 5 view .LVU813
 758:Core/Src/esp32.c ****     {
 759:Core/Src/esp32.c ****         /*
 760:Core/Src/esp32.c ****          * It makes a TCP server and then it creates a TCP Connection according to the
 761:Core/Src/esp32.c ****          * settings in the function. It uses a very high time of waiting because the
 762:Core/Src/esp32.c ****          * ESP8266 takes a lot of time to create a connection with a TCP the first time.
 763:Core/Src/esp32.c ****          */
 764:Core/Src/esp32.c ****         Wifi_RxClear();
 3585              		.loc 1 764 9 view .LVU814
 3586 000e FFF7FEFF 		bl	Wifi_RxClear
 3587              	.LVL290:
 765:Core/Src/esp32.c ****         if (Wifi.TcpIpMultiConnection == true)
 3588              		.loc 1 765 9 view .LVU815
 3589              		.loc 1 765 17 is_stmt 0 view .LVU816
 3590 0012 2B49     		ldr	r1, .L266
ARM GAS  /var/folders/9y/n02fl3g16gnf7ppy14xghdy80000gn/T//ccqH5YoF.s 			page 86


 3591 0014 91F81311 		ldrb	r1, [r1, #275]	@ zero_extendqisi2
 3592              		.loc 1 765 12 view .LVU817
 3593 0018 D9B1     		cbz	r1, .L259
 766:Core/Src/esp32.c ****         {
 767:Core/Src/esp32.c ****             sprintf((char *)Buffs.TxBuffer, "AT+CIPSERVER=1,%d\r\n", RemotePort);
 3594              		.loc 1 767 13 is_stmt 1 view .LVU818
 3595 001a DFF8B880 		ldr	r8, .L266+20
 3596 001e 2246     		mov	r2, r4
 3597 0020 2849     		ldr	r1, .L266+4
 3598 0022 4046     		mov	r0, r8
 3599 0024 FFF7FEFF 		bl	sprintf
 3600              	.LVL291:
 768:Core/Src/esp32.c ****             if (Wifi_SendString((char *)Buffs.TxBuffer) == false)
 3601              		.loc 1 768 13 view .LVU819
 3602              		.loc 1 768 17 is_stmt 0 view .LVU820
 3603 0028 4046     		mov	r0, r8
 3604 002a FFF7FEFF 		bl	Wifi_SendString
 3605              	.LVL292:
 3606              		.loc 1 768 16 view .LVU821
 3607 002e 0146     		mov	r1, r0
 3608 0030 08B3     		cbz	r0, .L260
 769:Core/Src/esp32.c ****                 break;
 770:Core/Src/esp32.c ****             if (Wifi_WaitForString(_WIFI_WAIT_TIME_LOW, &result, 2, "OK", "ERROR") == false)
 3609              		.loc 1 770 13 is_stmt 1 view .LVU822
 3610              		.loc 1 770 17 is_stmt 0 view .LVU823
 3611 0032 254B     		ldr	r3, .L266+8
 3612 0034 0093     		str	r3, [sp]
 3613 0036 254B     		ldr	r3, .L266+12
 3614 0038 0222     		movs	r2, #2
 3615 003a 0DF10F01 		add	r1, sp, #15
 3616 003e 4FF47A70 		mov	r0, #1000
 3617 0042 FFF7FEFF 		bl	Wifi_WaitForString
 3618              	.LVL293:
 3619              		.loc 1 770 16 view .LVU824
 3620 0046 0146     		mov	r1, r0
 3621 0048 A8B1     		cbz	r0, .L260
 771:Core/Src/esp32.c ****                 break;       // The timeout was completed and the string was not there
 772:Core/Src/esp32.c ****             if (result == 2) // It was find the "ERROR" String in the receiving information
 3622              		.loc 1 772 13 is_stmt 1 view .LVU825
 3623              		.loc 1 772 24 is_stmt 0 view .LVU826
 3624 004a 9DF80F30 		ldrb	r3, [sp, #15]	@ zero_extendqisi2
 3625              		.loc 1 772 16 view .LVU827
 3626 004e 022B     		cmp	r3, #2
 3627 0050 33D0     		beq	.L263
 3628              	.L259:
 773:Core/Src/esp32.c ****                 break;
 774:Core/Src/esp32.c ****         }
 775:Core/Src/esp32.c ****         Wifi_RxClear();
 3629              		.loc 1 775 9 is_stmt 1 view .LVU828
 3630 0052 FFF7FEFF 		bl	Wifi_RxClear
 3631              	.LVL294:
 776:Core/Src/esp32.c ****         if (Wifi.TcpIpMultiConnection == false)
 3632              		.loc 1 776 9 view .LVU829
 3633              		.loc 1 776 17 is_stmt 0 view .LVU830
 3634 0056 1A4B     		ldr	r3, .L266
 3635 0058 93F81331 		ldrb	r3, [r3, #275]	@ zero_extendqisi2
 3636              		.loc 1 776 12 view .LVU831
ARM GAS  /var/folders/9y/n02fl3g16gnf7ppy14xghdy80000gn/T//ccqH5YoF.s 			page 87


 3637 005c 7BB9     		cbnz	r3, .L261
 777:Core/Src/esp32.c ****             sprintf((char *)Buffs.TxBuffer, "AT+CIPSTART=\"TCP\",\"%s\",%d,%d\r\n", RemoteIp, Remot
 3638              		.loc 1 777 13 is_stmt 1 view .LVU832
 3639 005e 0096     		str	r6, [sp]
 3640 0060 2346     		mov	r3, r4
 3641 0062 2A46     		mov	r2, r5
 3642 0064 1A49     		ldr	r1, .L266+16
 3643 0066 1B48     		ldr	r0, .L266+20
 3644 0068 FFF7FEFF 		bl	sprintf
 3645              	.LVL295:
 3646              	.L262:
 778:Core/Src/esp32.c ****         else
 779:Core/Src/esp32.c ****             sprintf((char *)Buffs.TxBuffer, "AT+CIPSTART=%d,\"TCP\",\"%s\",%d,%d\r\n", LinkId, Remo
 780:Core/Src/esp32.c ****         if (Wifi_SendString((char *)Buffs.TxBuffer) == false)
 3647              		.loc 1 780 9 view .LVU833
 3648              		.loc 1 780 13 is_stmt 0 view .LVU834
 3649 006c 1948     		ldr	r0, .L266+20
 3650 006e FFF7FEFF 		bl	Wifi_SendString
 3651              	.LVL296:
 3652              		.loc 1 780 12 view .LVU835
 3653 0072 0146     		mov	r1, r0
 3654 0074 60B9     		cbnz	r0, .L265
 3655              	.L260:
 3656              	.LVL297:
 781:Core/Src/esp32.c ****             break;
 782:Core/Src/esp32.c ****         if (Wifi_WaitForString(_WIFI_WAIT_TIME_HIGH, &result, 3, "OK", "CONNECT", "ERROR") == false
 783:Core/Src/esp32.c ****             break;
 784:Core/Src/esp32.c ****         if (result == 3)
 785:Core/Src/esp32.c ****             break;
 786:Core/Src/esp32.c ****         returnVal = true;
 787:Core/Src/esp32.c ****     } while (0);
 3657              		.loc 1 787 13 is_stmt 1 view .LVU836
 788:Core/Src/esp32.c ****     return returnVal;
 3658              		.loc 1 788 5 view .LVU837
 789:Core/Src/esp32.c **** }
 3659              		.loc 1 789 1 is_stmt 0 view .LVU838
 3660 0076 0846     		mov	r0, r1
 3661 0078 04B0     		add	sp, sp, #16
 3662              		.cfi_remember_state
 3663              		.cfi_def_cfa_offset 24
 3664              		@ sp needed
 3665 007a BDE8F081 		pop	{r4, r5, r6, r7, r8, pc}
 3666              	.LVL298:
 3667              	.L261:
 3668              		.cfi_restore_state
 779:Core/Src/esp32.c ****         if (Wifi_SendString((char *)Buffs.TxBuffer) == false)
 3669              		.loc 1 779 13 is_stmt 1 view .LVU839
 3670 007e 0196     		str	r6, [sp, #4]
 3671 0080 0094     		str	r4, [sp]
 3672 0082 2B46     		mov	r3, r5
 3673 0084 3A46     		mov	r2, r7
 3674 0086 1449     		ldr	r1, .L266+24
 3675 0088 1248     		ldr	r0, .L266+20
 3676 008a FFF7FEFF 		bl	sprintf
 3677              	.LVL299:
 3678 008e EDE7     		b	.L262
 3679              	.L265:
ARM GAS  /var/folders/9y/n02fl3g16gnf7ppy14xghdy80000gn/T//ccqH5YoF.s 			page 88


 782:Core/Src/esp32.c ****             break;
 3680              		.loc 1 782 9 view .LVU840
 782:Core/Src/esp32.c ****             break;
 3681              		.loc 1 782 13 is_stmt 0 view .LVU841
 3682 0090 0D4B     		ldr	r3, .L266+8
 3683 0092 0193     		str	r3, [sp, #4]
 3684 0094 114B     		ldr	r3, .L266+28
 3685 0096 0093     		str	r3, [sp]
 3686 0098 0C4B     		ldr	r3, .L266+12
 3687 009a 0322     		movs	r2, #3
 3688 009c 0DF10F01 		add	r1, sp, #15
 3689 00a0 43F69820 		movw	r0, #15000
 3690 00a4 FFF7FEFF 		bl	Wifi_WaitForString
 3691              	.LVL300:
 782:Core/Src/esp32.c ****             break;
 3692              		.loc 1 782 12 view .LVU842
 3693 00a8 0146     		mov	r1, r0
 3694 00aa 0028     		cmp	r0, #0
 3695 00ac E3D0     		beq	.L260
 784:Core/Src/esp32.c ****             break;
 3696              		.loc 1 784 9 is_stmt 1 view .LVU843
 784:Core/Src/esp32.c ****             break;
 3697              		.loc 1 784 20 is_stmt 0 view .LVU844
 3698 00ae 9DF80F30 		ldrb	r3, [sp, #15]	@ zero_extendqisi2
 784:Core/Src/esp32.c ****             break;
 3699              		.loc 1 784 12 view .LVU845
 3700 00b2 032B     		cmp	r3, #3
 3701 00b4 DFD1     		bne	.L260
 756:Core/Src/esp32.c ****     do
 3702              		.loc 1 756 10 view .LVU846
 3703 00b6 0021     		movs	r1, #0
 3704 00b8 DDE7     		b	.L260
 3705              	.L263:
 3706 00ba 0021     		movs	r1, #0
 3707 00bc DBE7     		b	.L260
 3708              	.L267:
 3709 00be 00BF     		.align	2
 3710              	.L266:
 3711 00c0 00000000 		.word	.LANCHOR0
 3712 00c4 00000000 		.word	.LC37
 3713 00c8 0C000000 		.word	.LC2
 3714 00cc 08000000 		.word	.LC1
 3715 00d0 14000000 		.word	.LC38
 3716 00d4 140C0000 		.word	Buffs+3092
 3717 00d8 34000000 		.word	.LC39
 3718 00dc 58000000 		.word	.LC40
 3719              		.cfi_endproc
 3720              	.LFE1188:
 3722              		.section	.rodata.Wifi_TcpIp_StartUdpConnection.str1.4,"aMS",%progbits,1
 3723              		.align	2
 3724              	.LC41:
 3725 0000 41542B43 		.ascii	"AT+CIPSTART=\"UDP\",\"%s\",%d,%d\015\012\000"
 3725      49505354 
 3725      4152543D 
 3725      22554450 
 3725      222C2225 
 3726 001f 00       		.align	2
ARM GAS  /var/folders/9y/n02fl3g16gnf7ppy14xghdy80000gn/T//ccqH5YoF.s 			page 89


 3727              	.LC42:
 3728 0020 41542B43 		.ascii	"AT+CIPSTART=%d,\"UDP\",\"%s\",%d,%d\015\012\000"
 3728      49505354 
 3728      4152543D 
 3728      25642C22 
 3728      55445022 
 3729 0042 0000     		.align	2
 3730              	.LC43:
 3731 0044 414C5245 		.ascii	"ALREADY\000"
 3731      41445900 
 3732              		.section	.text.Wifi_TcpIp_StartUdpConnection,"ax",%progbits
 3733              		.align	1
 3734              		.global	Wifi_TcpIp_StartUdpConnection
 3735              		.syntax unified
 3736              		.thumb
 3737              		.thumb_func
 3738              		.fpu fpv4-sp-d16
 3740              	Wifi_TcpIp_StartUdpConnection:
 3741              	.LVL301:
 3742              	.LFB1189:
 790:Core/Src/esp32.c **** // ################################################################################################
 791:Core/Src/esp32.c **** bool Wifi_TcpIp_StartUdpConnection(uint8_t LinkId, char *RemoteIp, uint16_t RemotePort, uint16_t Lo
 792:Core/Src/esp32.c **** {
 3743              		.loc 1 792 1 is_stmt 1 view -0
 3744              		.cfi_startproc
 3745              		@ args = 0, pretend = 0, frame = 8
 3746              		@ frame_needed = 0, uses_anonymous_args = 0
 3747              		.loc 1 792 1 is_stmt 0 view .LVU848
 3748 0000 F0B5     		push	{r4, r5, r6, r7, lr}
 3749              		.cfi_def_cfa_offset 20
 3750              		.cfi_offset 4, -20
 3751              		.cfi_offset 5, -16
 3752              		.cfi_offset 6, -12
 3753              		.cfi_offset 7, -8
 3754              		.cfi_offset 14, -4
 3755 0002 85B0     		sub	sp, sp, #20
 3756              		.cfi_def_cfa_offset 40
 3757 0004 0746     		mov	r7, r0
 3758 0006 0C46     		mov	r4, r1
 3759 0008 1546     		mov	r5, r2
 3760 000a 1E46     		mov	r6, r3
 793:Core/Src/esp32.c ****     uint8_t result;
 3761              		.loc 1 793 5 is_stmt 1 view .LVU849
 794:Core/Src/esp32.c ****     bool returnVal = false;
 3762              		.loc 1 794 5 view .LVU850
 3763              	.LVL302:
 795:Core/Src/esp32.c ****     do
 3764              		.loc 1 795 5 view .LVU851
 796:Core/Src/esp32.c ****     {
 797:Core/Src/esp32.c ****         Wifi_RxClear();
 3765              		.loc 1 797 9 view .LVU852
 3766 000c FFF7FEFF 		bl	Wifi_RxClear
 3767              	.LVL303:
 798:Core/Src/esp32.c ****         if (Wifi.TcpIpMultiConnection == false)
 3768              		.loc 1 798 9 view .LVU853
 3769              		.loc 1 798 17 is_stmt 0 view .LVU854
 3770 0010 164B     		ldr	r3, .L274
ARM GAS  /var/folders/9y/n02fl3g16gnf7ppy14xghdy80000gn/T//ccqH5YoF.s 			page 90


 3771 0012 93F81331 		ldrb	r3, [r3, #275]	@ zero_extendqisi2
 3772              		.loc 1 798 12 view .LVU855
 3773 0016 63B9     		cbnz	r3, .L269
 799:Core/Src/esp32.c ****             sprintf((char *)Buffs.TxBuffer, "AT+CIPSTART=\"UDP\",\"%s\",%d,%d\r\n", RemoteIp, Remot
 3774              		.loc 1 799 13 is_stmt 1 view .LVU856
 3775 0018 0096     		str	r6, [sp]
 3776 001a 2B46     		mov	r3, r5
 3777 001c 2246     		mov	r2, r4
 3778 001e 1449     		ldr	r1, .L274+4
 3779 0020 1448     		ldr	r0, .L274+8
 3780 0022 FFF7FEFF 		bl	sprintf
 3781              	.LVL304:
 3782              	.L270:
 800:Core/Src/esp32.c ****         else
 801:Core/Src/esp32.c ****             sprintf((char *)Buffs.TxBuffer, "AT+CIPSTART=%d,\"UDP\",\"%s\",%d,%d\r\n", LinkId, Remo
 802:Core/Src/esp32.c ****         if (Wifi_SendString((char *)Buffs.TxBuffer) == false)
 3783              		.loc 1 802 9 view .LVU857
 3784              		.loc 1 802 13 is_stmt 0 view .LVU858
 3785 0026 1348     		ldr	r0, .L274+8
 3786 0028 FFF7FEFF 		bl	Wifi_SendString
 3787              	.LVL305:
 3788              		.loc 1 802 12 view .LVU859
 3789 002c 50B9     		cbnz	r0, .L273
 3790              	.L271:
 3791              	.LVL306:
 803:Core/Src/esp32.c ****             break;
 804:Core/Src/esp32.c ****         if (Wifi_WaitForString(_WIFI_WAIT_TIME_HIGH, &result, 3, "OK", "ALREADY", "ERROR") == false
 805:Core/Src/esp32.c ****             break;
 806:Core/Src/esp32.c ****         if (result == 3) // If the RX String returns a ERROR the function breaks and
 807:Core/Src/esp32.c ****             break;       // send a false
 808:Core/Src/esp32.c ****         returnVal = true;
 809:Core/Src/esp32.c ****     } while (0);
 3792              		.loc 1 809 13 is_stmt 1 view .LVU860
 810:Core/Src/esp32.c ****     return returnVal;
 3793              		.loc 1 810 5 view .LVU861
 811:Core/Src/esp32.c **** }
 3794              		.loc 1 811 1 is_stmt 0 view .LVU862
 3795 002e 05B0     		add	sp, sp, #20
 3796              		.cfi_remember_state
 3797              		.cfi_def_cfa_offset 20
 3798              		@ sp needed
 3799 0030 F0BD     		pop	{r4, r5, r6, r7, pc}
 3800              	.LVL307:
 3801              	.L269:
 3802              		.cfi_restore_state
 801:Core/Src/esp32.c ****         if (Wifi_SendString((char *)Buffs.TxBuffer) == false)
 3803              		.loc 1 801 13 is_stmt 1 view .LVU863
 3804 0032 0196     		str	r6, [sp, #4]
 3805 0034 0095     		str	r5, [sp]
 3806 0036 2346     		mov	r3, r4
 3807 0038 3A46     		mov	r2, r7
 3808 003a 0F49     		ldr	r1, .L274+12
 3809 003c 0D48     		ldr	r0, .L274+8
 3810 003e FFF7FEFF 		bl	sprintf
 3811              	.LVL308:
 3812 0042 F0E7     		b	.L270
 3813              	.L273:
ARM GAS  /var/folders/9y/n02fl3g16gnf7ppy14xghdy80000gn/T//ccqH5YoF.s 			page 91


 804:Core/Src/esp32.c ****             break;
 3814              		.loc 1 804 9 view .LVU864
 804:Core/Src/esp32.c ****             break;
 3815              		.loc 1 804 13 is_stmt 0 view .LVU865
 3816 0044 0D4B     		ldr	r3, .L274+16
 3817 0046 0193     		str	r3, [sp, #4]
 3818 0048 0D4B     		ldr	r3, .L274+20
 3819 004a 0093     		str	r3, [sp]
 3820 004c 0D4B     		ldr	r3, .L274+24
 3821 004e 0322     		movs	r2, #3
 3822 0050 0DF10F01 		add	r1, sp, #15
 3823 0054 43F69820 		movw	r0, #15000
 3824 0058 FFF7FEFF 		bl	Wifi_WaitForString
 3825              	.LVL309:
 804:Core/Src/esp32.c ****             break;
 3826              		.loc 1 804 12 view .LVU866
 3827 005c 0028     		cmp	r0, #0
 3828 005e E6D0     		beq	.L271
 806:Core/Src/esp32.c ****             break;       // send a false
 3829              		.loc 1 806 9 is_stmt 1 view .LVU867
 806:Core/Src/esp32.c ****             break;       // send a false
 3830              		.loc 1 806 20 is_stmt 0 view .LVU868
 3831 0060 9DF80F30 		ldrb	r3, [sp, #15]	@ zero_extendqisi2
 806:Core/Src/esp32.c ****             break;       // send a false
 3832              		.loc 1 806 12 view .LVU869
 3833 0064 032B     		cmp	r3, #3
 3834 0066 E2D1     		bne	.L271
 794:Core/Src/esp32.c ****     do
 3835              		.loc 1 794 10 view .LVU870
 3836 0068 0020     		movs	r0, #0
 3837 006a E0E7     		b	.L271
 3838              	.L275:
 3839              		.align	2
 3840              	.L274:
 3841 006c 00000000 		.word	.LANCHOR0
 3842 0070 00000000 		.word	.LC41
 3843 0074 140C0000 		.word	Buffs+3092
 3844 0078 20000000 		.word	.LC42
 3845 007c 0C000000 		.word	.LC2
 3846 0080 44000000 		.word	.LC43
 3847 0084 08000000 		.word	.LC1
 3848              		.cfi_endproc
 3849              	.LFE1189:
 3851              		.section	.rodata.Wifi_TcpIp_Close.str1.4,"aMS",%progbits,1
 3852              		.align	2
 3853              	.LC44:
 3854 0000 41542B43 		.ascii	"AT+CIPCLOSE\015\012\000"
 3854      4950434C 
 3854      4F53450D 
 3854      0A00
 3855 000e 0000     		.align	2
 3856              	.LC45:
 3857 0010 41542B43 		.ascii	"AT+CIPCLOSE=%d\015\012\000"
 3857      4950434C 
 3857      4F53453D 
 3857      25640D0A 
 3857      00
ARM GAS  /var/folders/9y/n02fl3g16gnf7ppy14xghdy80000gn/T//ccqH5YoF.s 			page 92


 3858              		.section	.text.Wifi_TcpIp_Close,"ax",%progbits
 3859              		.align	1
 3860              		.global	Wifi_TcpIp_Close
 3861              		.syntax unified
 3862              		.thumb
 3863              		.thumb_func
 3864              		.fpu fpv4-sp-d16
 3866              	Wifi_TcpIp_Close:
 3867              	.LVL310:
 3868              	.LFB1190:
 812:Core/Src/esp32.c **** // ################################################################################################
 813:Core/Src/esp32.c **** bool Wifi_TcpIp_Close(uint8_t LinkId)
 814:Core/Src/esp32.c **** {
 3869              		.loc 1 814 1 is_stmt 1 view -0
 3870              		.cfi_startproc
 3871              		@ args = 0, pretend = 0, frame = 8
 3872              		@ frame_needed = 0, uses_anonymous_args = 0
 3873              		.loc 1 814 1 is_stmt 0 view .LVU872
 3874 0000 10B5     		push	{r4, lr}
 3875              		.cfi_def_cfa_offset 8
 3876              		.cfi_offset 4, -8
 3877              		.cfi_offset 14, -4
 3878 0002 84B0     		sub	sp, sp, #16
 3879              		.cfi_def_cfa_offset 24
 3880 0004 0446     		mov	r4, r0
 815:Core/Src/esp32.c ****     uint8_t result;
 3881              		.loc 1 815 5 is_stmt 1 view .LVU873
 816:Core/Src/esp32.c ****     bool returnVal = false;
 3882              		.loc 1 816 5 view .LVU874
 3883              	.LVL311:
 817:Core/Src/esp32.c ****     do
 3884              		.loc 1 817 5 view .LVU875
 818:Core/Src/esp32.c ****     {
 819:Core/Src/esp32.c ****         Wifi_RxClear();
 3885              		.loc 1 819 9 view .LVU876
 3886 0006 FFF7FEFF 		bl	Wifi_RxClear
 3887              	.LVL312:
 820:Core/Src/esp32.c ****         if (Wifi.TcpIpMultiConnection == false)
 3888              		.loc 1 820 9 view .LVU877
 3889              		.loc 1 820 17 is_stmt 0 view .LVU878
 3890 000a 134B     		ldr	r3, .L282
 3891 000c 93F81331 		ldrb	r3, [r3, #275]	@ zero_extendqisi2
 3892              		.loc 1 820 12 view .LVU879
 3893 0010 53B9     		cbnz	r3, .L277
 821:Core/Src/esp32.c ****             sprintf((char *)Buffs.TxBuffer, "AT+CIPCLOSE\r\n");
 3894              		.loc 1 821 13 is_stmt 1 view .LVU880
 3895 0012 124B     		ldr	r3, .L282+4
 3896 0014 124C     		ldr	r4, .L282+8
 3897 0016 0FCB     		ldm	r3, {r0, r1, r2, r3}
 3898 0018 07C4     		stmia	r4!, {r0, r1, r2}
 3899 001a 2380     		strh	r3, [r4]	@ movhi
 3900              	.L278:
 822:Core/Src/esp32.c ****         else
 823:Core/Src/esp32.c ****             sprintf((char *)Buffs.TxBuffer, "AT+CIPCLOSE=%d\r\n", LinkId);
 824:Core/Src/esp32.c ****         if (Wifi_SendString((char *)Buffs.TxBuffer) == false)
 3901              		.loc 1 824 9 view .LVU881
 3902              		.loc 1 824 13 is_stmt 0 view .LVU882
ARM GAS  /var/folders/9y/n02fl3g16gnf7ppy14xghdy80000gn/T//ccqH5YoF.s 			page 93


 3903 001c 1048     		ldr	r0, .L282+8
 3904 001e FFF7FEFF 		bl	Wifi_SendString
 3905              	.LVL313:
 3906              		.loc 1 824 12 view .LVU883
 3907 0022 38B9     		cbnz	r0, .L281
 3908              	.L279:
 3909              	.LVL314:
 825:Core/Src/esp32.c ****             break;
 826:Core/Src/esp32.c ****         if (Wifi_WaitForString(_WIFI_WAIT_TIME_LOW, &result, 2, "OK", "ERROR") == false)
 827:Core/Src/esp32.c ****             break;       // The timeout was completed and the string was not there
 828:Core/Src/esp32.c ****         if (result == 2) // It was find the "ERROR" String in the receiving information
 829:Core/Src/esp32.c ****             break;
 830:Core/Src/esp32.c ****         returnVal = true;
 831:Core/Src/esp32.c ****     } while (0);
 3910              		.loc 1 831 13 is_stmt 1 view .LVU884
 832:Core/Src/esp32.c ****     return returnVal;
 3911              		.loc 1 832 5 view .LVU885
 833:Core/Src/esp32.c **** }
 3912              		.loc 1 833 1 is_stmt 0 view .LVU886
 3913 0024 04B0     		add	sp, sp, #16
 3914              		.cfi_remember_state
 3915              		.cfi_def_cfa_offset 8
 3916              		@ sp needed
 3917 0026 10BD     		pop	{r4, pc}
 3918              	.LVL315:
 3919              	.L277:
 3920              		.cfi_restore_state
 823:Core/Src/esp32.c ****         if (Wifi_SendString((char *)Buffs.TxBuffer) == false)
 3921              		.loc 1 823 13 is_stmt 1 view .LVU887
 3922 0028 2246     		mov	r2, r4
 3923 002a 0E49     		ldr	r1, .L282+12
 3924 002c 0C48     		ldr	r0, .L282+8
 3925 002e FFF7FEFF 		bl	sprintf
 3926              	.LVL316:
 3927 0032 F3E7     		b	.L278
 3928              	.L281:
 826:Core/Src/esp32.c ****             break;       // The timeout was completed and the string was not there
 3929              		.loc 1 826 9 view .LVU888
 826:Core/Src/esp32.c ****             break;       // The timeout was completed and the string was not there
 3930              		.loc 1 826 13 is_stmt 0 view .LVU889
 3931 0034 0C4B     		ldr	r3, .L282+16
 3932 0036 0093     		str	r3, [sp]
 3933 0038 0C4B     		ldr	r3, .L282+20
 3934 003a 0222     		movs	r2, #2
 3935 003c 0DF10F01 		add	r1, sp, #15
 3936 0040 4FF47A70 		mov	r0, #1000
 3937 0044 FFF7FEFF 		bl	Wifi_WaitForString
 3938              	.LVL317:
 826:Core/Src/esp32.c ****             break;       // The timeout was completed and the string was not there
 3939              		.loc 1 826 12 view .LVU890
 3940 0048 0028     		cmp	r0, #0
 3941 004a EBD0     		beq	.L279
 828:Core/Src/esp32.c ****             break;
 3942              		.loc 1 828 9 is_stmt 1 view .LVU891
 828:Core/Src/esp32.c ****             break;
 3943              		.loc 1 828 20 is_stmt 0 view .LVU892
 3944 004c 9DF80F30 		ldrb	r3, [sp, #15]	@ zero_extendqisi2
ARM GAS  /var/folders/9y/n02fl3g16gnf7ppy14xghdy80000gn/T//ccqH5YoF.s 			page 94


 828:Core/Src/esp32.c ****             break;
 3945              		.loc 1 828 12 view .LVU893
 3946 0050 022B     		cmp	r3, #2
 3947 0052 E7D1     		bne	.L279
 816:Core/Src/esp32.c ****     do
 3948              		.loc 1 816 10 view .LVU894
 3949 0054 0020     		movs	r0, #0
 3950 0056 E5E7     		b	.L279
 3951              	.L283:
 3952              		.align	2
 3953              	.L282:
 3954 0058 00000000 		.word	.LANCHOR0
 3955 005c 00000000 		.word	.LC44
 3956 0060 140C0000 		.word	Buffs+3092
 3957 0064 10000000 		.word	.LC45
 3958 0068 0C000000 		.word	.LC2
 3959 006c 08000000 		.word	.LC1
 3960              		.cfi_endproc
 3961              	.LFE1190:
 3963              		.section	.rodata.Wifi_TcpIp_SetEnableTcpServer.str1.4,"aMS",%progbits,1
 3964              		.align	2
 3965              	.LC46:
 3966 0000 41542B43 		.ascii	"AT+CIPMUX=1\015\012\000"
 3966      49504D55 
 3966      583D310D 
 3966      0A00
 3967              		.section	.text.Wifi_TcpIp_SetEnableTcpServer,"ax",%progbits
 3968              		.align	1
 3969              		.global	Wifi_TcpIp_SetEnableTcpServer
 3970              		.syntax unified
 3971              		.thumb
 3972              		.thumb_func
 3973              		.fpu fpv4-sp-d16
 3975              	Wifi_TcpIp_SetEnableTcpServer:
 3976              	.LVL318:
 3977              	.LFB1191:
 834:Core/Src/esp32.c **** // ################################################################################################
 835:Core/Src/esp32.c **** bool Wifi_TcpIp_SetEnableTcpServer(uint16_t PortNumber)
 836:Core/Src/esp32.c **** {
 3978              		.loc 1 836 1 is_stmt 1 view -0
 3979              		.cfi_startproc
 3980              		@ args = 0, pretend = 0, frame = 8
 3981              		@ frame_needed = 0, uses_anonymous_args = 0
 3982              		.loc 1 836 1 is_stmt 0 view .LVU896
 3983 0000 70B5     		push	{r4, r5, r6, lr}
 3984              		.cfi_def_cfa_offset 16
 3985              		.cfi_offset 4, -16
 3986              		.cfi_offset 5, -12
 3987              		.cfi_offset 6, -8
 3988              		.cfi_offset 14, -4
 3989 0002 84B0     		sub	sp, sp, #16
 3990              		.cfi_def_cfa_offset 32
 3991 0004 0446     		mov	r4, r0
 837:Core/Src/esp32.c ****     uint8_t result;
 3992              		.loc 1 837 5 is_stmt 1 view .LVU897
 838:Core/Src/esp32.c ****     bool returnVal = false;
 3993              		.loc 1 838 5 view .LVU898
ARM GAS  /var/folders/9y/n02fl3g16gnf7ppy14xghdy80000gn/T//ccqH5YoF.s 			page 95


 3994              	.LVL319:
 839:Core/Src/esp32.c ****     do
 3995              		.loc 1 839 5 view .LVU899
 840:Core/Src/esp32.c ****     {
 841:Core/Src/esp32.c ****         Wifi_RxClear();
 3996              		.loc 1 841 9 view .LVU900
 3997 0006 FFF7FEFF 		bl	Wifi_RxClear
 3998              	.LVL320:
 842:Core/Src/esp32.c ****         if (Wifi.TcpIpMultiConnection == false)
 3999              		.loc 1 842 9 view .LVU901
 4000              		.loc 1 842 17 is_stmt 0 view .LVU902
 4001 000a 244B     		ldr	r3, .L292
 4002 000c 93F81351 		ldrb	r5, [r3, #275]	@ zero_extendqisi2
 4003              		.loc 1 842 12 view .LVU903
 4004 0010 1DBB     		cbnz	r5, .L285
 843:Core/Src/esp32.c ****         {
 844:Core/Src/esp32.c ****             // it actives the Multiconnection first to make a TCP Server
 845:Core/Src/esp32.c ****             sprintf((char *)Buffs.TxBuffer, "AT+CIPMUX=1\r\n");
 4005              		.loc 1 845 13 is_stmt 1 view .LVU904
 4006 0012 234E     		ldr	r6, .L292+4
 4007 0014 234B     		ldr	r3, .L292+8
 4008 0016 3446     		mov	r4, r6
 4009 0018 0FCB     		ldm	r3, {r0, r1, r2, r3}
 4010 001a 07C4     		stmia	r4!, {r0, r1, r2}
 4011 001c 2380     		strh	r3, [r4]	@ movhi
 846:Core/Src/esp32.c ****             if (Wifi_SendString((char *)Buffs.TxBuffer) == false)
 4012              		.loc 1 846 13 view .LVU905
 4013              		.loc 1 846 17 is_stmt 0 view .LVU906
 4014 001e 3046     		mov	r0, r6
 4015 0020 FFF7FEFF 		bl	Wifi_SendString
 4016              	.LVL321:
 4017              		.loc 1 846 16 view .LVU907
 4018 0024 0346     		mov	r3, r0
 4019 0026 10B3     		cbz	r0, .L286
 847:Core/Src/esp32.c ****                 break;
 848:Core/Src/esp32.c ****             if (Wifi_WaitForString(_WIFI_WAIT_TIME_LOW, &result, 2, "OK", "ERROR") == false)
 4020              		.loc 1 848 13 is_stmt 1 view .LVU908
 4021              		.loc 1 848 17 is_stmt 0 view .LVU909
 4022 0028 1F4B     		ldr	r3, .L292+12
 4023 002a 0093     		str	r3, [sp]
 4024 002c 1F4B     		ldr	r3, .L292+16
 4025 002e 0222     		movs	r2, #2
 4026 0030 0DF10F01 		add	r1, sp, #15
 4027 0034 4FF47A70 		mov	r0, #1000
 4028 0038 FFF7FEFF 		bl	Wifi_WaitForString
 4029              	.LVL322:
 4030              		.loc 1 848 16 view .LVU910
 4031 003c 0346     		mov	r3, r0
 4032 003e B0B1     		cbz	r0, .L286
 849:Core/Src/esp32.c ****                 break;       // The timeout was completed and the string was not there
 850:Core/Src/esp32.c ****             if (result == 2) // It was find the "ERROR" String in the receiving information
 4033              		.loc 1 850 13 is_stmt 1 view .LVU911
 4034              		.loc 1 850 24 is_stmt 0 view .LVU912
 4035 0040 9DF80F30 		ldrb	r3, [sp, #15]	@ zero_extendqisi2
 4036              		.loc 1 850 16 view .LVU913
 4037 0044 022B     		cmp	r3, #2
 4038 0046 01D1     		bne	.L290
ARM GAS  /var/folders/9y/n02fl3g16gnf7ppy14xghdy80000gn/T//ccqH5YoF.s 			page 96


 838:Core/Src/esp32.c ****     do
 4039              		.loc 1 838 10 view .LVU914
 4040 0048 2B46     		mov	r3, r5
 4041 004a 10E0     		b	.L286
 4042              	.L290:
 851:Core/Src/esp32.c ****                 break;
 852:Core/Src/esp32.c ****             Wifi.TcpIpMultiConnection = true;
 4043              		.loc 1 852 13 is_stmt 1 view .LVU915
 4044              		.loc 1 852 39 is_stmt 0 view .LVU916
 4045 004c 134B     		ldr	r3, .L292
 4046 004e 0122     		movs	r2, #1
 4047 0050 83F81321 		strb	r2, [r3, #275]
 853:Core/Src/esp32.c ****             Wifi_RxClear();
 4048              		.loc 1 853 13 is_stmt 1 view .LVU917
 4049 0054 FFF7FEFF 		bl	Wifi_RxClear
 4050              	.LVL323:
 4051 0058 04E0     		b	.L287
 4052              	.L285:
 854:Core/Src/esp32.c ****         }
 855:Core/Src/esp32.c ****         else
 856:Core/Src/esp32.c ****             sprintf((char *)Buffs.TxBuffer, "AT+CIPSERVER=1,%d\r\n", PortNumber);
 4053              		.loc 1 856 13 view .LVU918
 4054 005a 2246     		mov	r2, r4
 4055 005c 1449     		ldr	r1, .L292+20
 4056 005e 1048     		ldr	r0, .L292+4
 4057 0060 FFF7FEFF 		bl	sprintf
 4058              	.LVL324:
 4059              	.L287:
 857:Core/Src/esp32.c ****         if (Wifi_SendString((char *)Buffs.TxBuffer) == false)
 4060              		.loc 1 857 9 view .LVU919
 4061              		.loc 1 857 13 is_stmt 0 view .LVU920
 4062 0064 0E48     		ldr	r0, .L292+4
 4063 0066 FFF7FEFF 		bl	Wifi_SendString
 4064              	.LVL325:
 4065              		.loc 1 857 12 view .LVU921
 4066 006a 0346     		mov	r3, r0
 4067 006c 10B9     		cbnz	r0, .L291
 4068              	.L286:
 4069              	.LVL326:
 858:Core/Src/esp32.c ****             break;
 859:Core/Src/esp32.c ****         if (Wifi_WaitForString(_WIFI_WAIT_TIME_LOW, &result, 2, "OK", "ERROR") == false)
 860:Core/Src/esp32.c ****             break;       // The timeout was completed and the string was not there
 861:Core/Src/esp32.c ****         if (result == 2) // It was find the "ERROR" String in the receiving information
 862:Core/Src/esp32.c ****             break;
 863:Core/Src/esp32.c ****         returnVal = true;
 864:Core/Src/esp32.c ****     } while (0);
 4070              		.loc 1 864 13 is_stmt 1 view .LVU922
 865:Core/Src/esp32.c ****     return returnVal;
 4071              		.loc 1 865 5 view .LVU923
 866:Core/Src/esp32.c **** }
 4072              		.loc 1 866 1 is_stmt 0 view .LVU924
 4073 006e 1846     		mov	r0, r3
 4074 0070 04B0     		add	sp, sp, #16
 4075              		.cfi_remember_state
 4076              		.cfi_def_cfa_offset 16
 4077              		@ sp needed
 4078 0072 70BD     		pop	{r4, r5, r6, pc}
ARM GAS  /var/folders/9y/n02fl3g16gnf7ppy14xghdy80000gn/T//ccqH5YoF.s 			page 97


 4079              	.LVL327:
 4080              	.L291:
 4081              		.cfi_restore_state
 859:Core/Src/esp32.c ****             break;       // The timeout was completed and the string was not there
 4082              		.loc 1 859 9 is_stmt 1 view .LVU925
 859:Core/Src/esp32.c ****             break;       // The timeout was completed and the string was not there
 4083              		.loc 1 859 13 is_stmt 0 view .LVU926
 4084 0074 0C4B     		ldr	r3, .L292+12
 4085 0076 0093     		str	r3, [sp]
 4086 0078 0C4B     		ldr	r3, .L292+16
 4087 007a 0222     		movs	r2, #2
 4088 007c 0DF10F01 		add	r1, sp, #15
 4089 0080 4FF47A70 		mov	r0, #1000
 4090 0084 FFF7FEFF 		bl	Wifi_WaitForString
 4091              	.LVL328:
 859:Core/Src/esp32.c ****             break;       // The timeout was completed and the string was not there
 4092              		.loc 1 859 12 view .LVU927
 4093 0088 0346     		mov	r3, r0
 4094 008a 0028     		cmp	r0, #0
 4095 008c EFD0     		beq	.L286
 861:Core/Src/esp32.c ****             break;
 4096              		.loc 1 861 9 is_stmt 1 view .LVU928
 861:Core/Src/esp32.c ****             break;
 4097              		.loc 1 861 20 is_stmt 0 view .LVU929
 4098 008e 9DF80F20 		ldrb	r2, [sp, #15]	@ zero_extendqisi2
 861:Core/Src/esp32.c ****             break;
 4099              		.loc 1 861 12 view .LVU930
 4100 0092 022A     		cmp	r2, #2
 4101 0094 EBD1     		bne	.L286
 838:Core/Src/esp32.c ****     do
 4102              		.loc 1 838 10 view .LVU931
 4103 0096 0023     		movs	r3, #0
 4104 0098 E9E7     		b	.L286
 4105              	.L293:
 4106 009a 00BF     		.align	2
 4107              	.L292:
 4108 009c 00000000 		.word	.LANCHOR0
 4109 00a0 140C0000 		.word	Buffs+3092
 4110 00a4 00000000 		.word	.LC46
 4111 00a8 0C000000 		.word	.LC2
 4112 00ac 08000000 		.word	.LC1
 4113 00b0 00000000 		.word	.LC37
 4114              		.cfi_endproc
 4115              	.LFE1191:
 4117              		.section	.rodata.Wifi_TcpIp_SetDisableTcpServer.str1.4,"aMS",%progbits,1
 4118              		.align	2
 4119              	.LC47:
 4120 0000 41542B43 		.ascii	"AT+CIPSERVER=0,%d\015\012\000"
 4120      49505345 
 4120      52564552 
 4120      3D302C25 
 4120      640D0A00 
 4121              		.section	.text.Wifi_TcpIp_SetDisableTcpServer,"ax",%progbits
 4122              		.align	1
 4123              		.global	Wifi_TcpIp_SetDisableTcpServer
 4124              		.syntax unified
 4125              		.thumb
ARM GAS  /var/folders/9y/n02fl3g16gnf7ppy14xghdy80000gn/T//ccqH5YoF.s 			page 98


 4126              		.thumb_func
 4127              		.fpu fpv4-sp-d16
 4129              	Wifi_TcpIp_SetDisableTcpServer:
 4130              	.LVL329:
 4131              	.LFB1192:
 867:Core/Src/esp32.c **** // ################################################################################################
 868:Core/Src/esp32.c **** bool Wifi_TcpIp_SetDisableTcpServer(uint16_t PortNumber)
 869:Core/Src/esp32.c **** {
 4132              		.loc 1 869 1 is_stmt 1 view -0
 4133              		.cfi_startproc
 4134              		@ args = 0, pretend = 0, frame = 8
 4135              		@ frame_needed = 0, uses_anonymous_args = 0
 4136              		.loc 1 869 1 is_stmt 0 view .LVU933
 4137 0000 30B5     		push	{r4, r5, lr}
 4138              		.cfi_def_cfa_offset 12
 4139              		.cfi_offset 4, -12
 4140              		.cfi_offset 5, -8
 4141              		.cfi_offset 14, -4
 4142 0002 85B0     		sub	sp, sp, #20
 4143              		.cfi_def_cfa_offset 32
 4144 0004 0446     		mov	r4, r0
 870:Core/Src/esp32.c ****     uint8_t result;
 4145              		.loc 1 870 5 is_stmt 1 view .LVU934
 871:Core/Src/esp32.c ****     bool returnVal = false;
 4146              		.loc 1 871 5 view .LVU935
 4147              	.LVL330:
 872:Core/Src/esp32.c ****     do
 4148              		.loc 1 872 5 view .LVU936
 873:Core/Src/esp32.c ****     {
 874:Core/Src/esp32.c ****         Wifi_RxClear();
 4149              		.loc 1 874 9 view .LVU937
 4150 0006 FFF7FEFF 		bl	Wifi_RxClear
 4151              	.LVL331:
 875:Core/Src/esp32.c ****         sprintf((char *)Buffs.TxBuffer, "AT+CIPSERVER=0,%d\r\n", PortNumber);
 4152              		.loc 1 875 9 view .LVU938
 4153 000a 0F4D     		ldr	r5, .L298
 4154 000c 2246     		mov	r2, r4
 4155 000e 0F49     		ldr	r1, .L298+4
 4156 0010 2846     		mov	r0, r5
 4157 0012 FFF7FEFF 		bl	sprintf
 4158              	.LVL332:
 876:Core/Src/esp32.c ****         if (Wifi_SendString((char *)Buffs.TxBuffer) == false)
 4159              		.loc 1 876 9 view .LVU939
 4160              		.loc 1 876 13 is_stmt 0 view .LVU940
 4161 0016 2846     		mov	r0, r5
 4162 0018 FFF7FEFF 		bl	Wifi_SendString
 4163              	.LVL333:
 4164              		.loc 1 876 12 view .LVU941
 4165 001c 08B9     		cbnz	r0, .L297
 4166              	.L295:
 4167              	.LVL334:
 877:Core/Src/esp32.c ****             break;
 878:Core/Src/esp32.c ****         if (Wifi_WaitForString(_WIFI_WAIT_TIME_LOW, &result, 2, "OK", "ERROR") == false)
 879:Core/Src/esp32.c ****             break;       // The timeout was completed and the string was not there
 880:Core/Src/esp32.c ****         if (result == 2) // It was find the "ERROR" String in the receiving information
 881:Core/Src/esp32.c ****             break;
 882:Core/Src/esp32.c ****         returnVal = true;
ARM GAS  /var/folders/9y/n02fl3g16gnf7ppy14xghdy80000gn/T//ccqH5YoF.s 			page 99


 883:Core/Src/esp32.c ****     } while (0);
 4168              		.loc 1 883 13 is_stmt 1 view .LVU942
 884:Core/Src/esp32.c ****     return returnVal;
 4169              		.loc 1 884 5 view .LVU943
 885:Core/Src/esp32.c **** }
 4170              		.loc 1 885 1 is_stmt 0 view .LVU944
 4171 001e 05B0     		add	sp, sp, #20
 4172              		.cfi_remember_state
 4173              		.cfi_def_cfa_offset 12
 4174              		@ sp needed
 4175 0020 30BD     		pop	{r4, r5, pc}
 4176              	.LVL335:
 4177              	.L297:
 4178              		.cfi_restore_state
 878:Core/Src/esp32.c ****             break;       // The timeout was completed and the string was not there
 4179              		.loc 1 878 9 is_stmt 1 view .LVU945
 878:Core/Src/esp32.c ****             break;       // The timeout was completed and the string was not there
 4180              		.loc 1 878 13 is_stmt 0 view .LVU946
 4181 0022 0B4B     		ldr	r3, .L298+8
 4182 0024 0093     		str	r3, [sp]
 4183 0026 0B4B     		ldr	r3, .L298+12
 4184 0028 0222     		movs	r2, #2
 4185 002a 0DF10F01 		add	r1, sp, #15
 4186 002e 4FF47A70 		mov	r0, #1000
 4187 0032 FFF7FEFF 		bl	Wifi_WaitForString
 4188              	.LVL336:
 878:Core/Src/esp32.c ****             break;       // The timeout was completed and the string was not there
 4189              		.loc 1 878 12 view .LVU947
 4190 0036 0028     		cmp	r0, #0
 4191 0038 F1D0     		beq	.L295
 880:Core/Src/esp32.c ****             break;
 4192              		.loc 1 880 9 is_stmt 1 view .LVU948
 880:Core/Src/esp32.c ****             break;
 4193              		.loc 1 880 20 is_stmt 0 view .LVU949
 4194 003a 9DF80F30 		ldrb	r3, [sp, #15]	@ zero_extendqisi2
 880:Core/Src/esp32.c ****             break;
 4195              		.loc 1 880 12 view .LVU950
 4196 003e 022B     		cmp	r3, #2
 4197 0040 EDD1     		bne	.L295
 871:Core/Src/esp32.c ****     do
 4198              		.loc 1 871 10 view .LVU951
 4199 0042 0020     		movs	r0, #0
 4200 0044 EBE7     		b	.L295
 4201              	.L299:
 4202 0046 00BF     		.align	2
 4203              	.L298:
 4204 0048 140C0000 		.word	Buffs+3092
 4205 004c 00000000 		.word	.LC47
 4206 0050 0C000000 		.word	.LC2
 4207 0054 08000000 		.word	.LC1
 4208              		.cfi_endproc
 4209              	.LFE1192:
 4211              		.section	.rodata.Wifi_TcpIp_SendDataUdp.str1.4,"aMS",%progbits,1
 4212              		.align	2
 4213              	.LC48:
 4214 0000 41542B43 		.ascii	"AT+CIPSEND=%d\015\012\000"
 4214      49505345 
ARM GAS  /var/folders/9y/n02fl3g16gnf7ppy14xghdy80000gn/T//ccqH5YoF.s 			page 100


 4214      4E443D25 
 4214      640D0A00 
 4215              		.align	2
 4216              	.LC49:
 4217 0010 41542B43 		.ascii	"AT+CIPSEND=%d,%d\015\012\000"
 4217      49505345 
 4217      4E443D25 
 4217      642C2564 
 4217      0D0A00
 4218 0023 00       		.align	2
 4219              	.LC50:
 4220 0024 3E00     		.ascii	">\000"
 4221              		.section	.text.Wifi_TcpIp_SendDataUdp,"ax",%progbits
 4222              		.align	1
 4223              		.global	Wifi_TcpIp_SendDataUdp
 4224              		.syntax unified
 4225              		.thumb
 4226              		.thumb_func
 4227              		.fpu fpv4-sp-d16
 4229              	Wifi_TcpIp_SendDataUdp:
 4230              	.LVL337:
 4231              	.LFB1193:
 886:Core/Src/esp32.c **** // ################################################################################################
 887:Core/Src/esp32.c **** bool Wifi_TcpIp_SendDataUdp(uint8_t LinkId, uint16_t dataLen, uint8_t *data)
 888:Core/Src/esp32.c **** {
 4232              		.loc 1 888 1 is_stmt 1 view -0
 4233              		.cfi_startproc
 4234              		@ args = 0, pretend = 0, frame = 8
 4235              		@ frame_needed = 0, uses_anonymous_args = 0
 4236              		.loc 1 888 1 is_stmt 0 view .LVU953
 4237 0000 70B5     		push	{r4, r5, r6, lr}
 4238              		.cfi_def_cfa_offset 16
 4239              		.cfi_offset 4, -16
 4240              		.cfi_offset 5, -12
 4241              		.cfi_offset 6, -8
 4242              		.cfi_offset 14, -4
 4243 0002 84B0     		sub	sp, sp, #16
 4244              		.cfi_def_cfa_offset 32
 4245 0004 0546     		mov	r5, r0
 4246 0006 0C46     		mov	r4, r1
 4247 0008 1646     		mov	r6, r2
 889:Core/Src/esp32.c ****     uint8_t result;
 4248              		.loc 1 889 5 is_stmt 1 view .LVU954
 890:Core/Src/esp32.c ****     bool returnVal = false;
 4249              		.loc 1 890 5 view .LVU955
 4250              	.LVL338:
 891:Core/Src/esp32.c ****     do
 4251              		.loc 1 891 5 view .LVU956
 892:Core/Src/esp32.c ****     {
 893:Core/Src/esp32.c ****         Wifi_RxClear();
 4252              		.loc 1 893 9 view .LVU957
 4253 000a FFF7FEFF 		bl	Wifi_RxClear
 4254              	.LVL339:
 894:Core/Src/esp32.c ****         if (Wifi.TcpIpMultiConnection == false)
 4255              		.loc 1 894 9 view .LVU958
 4256              		.loc 1 894 17 is_stmt 0 view .LVU959
 4257 000e 204B     		ldr	r3, .L308
ARM GAS  /var/folders/9y/n02fl3g16gnf7ppy14xghdy80000gn/T//ccqH5YoF.s 			page 101


 4258 0010 93F81331 		ldrb	r3, [r3, #275]	@ zero_extendqisi2
 4259              		.loc 1 894 12 view .LVU960
 4260 0014 53B9     		cbnz	r3, .L301
 895:Core/Src/esp32.c ****             sprintf((char *)Buffs.TxBuffer, "AT+CIPSEND=%d\r\n", dataLen);
 4261              		.loc 1 895 13 is_stmt 1 view .LVU961
 4262 0016 2246     		mov	r2, r4
 4263 0018 1E49     		ldr	r1, .L308+4
 4264 001a 1F48     		ldr	r0, .L308+8
 4265 001c FFF7FEFF 		bl	sprintf
 4266              	.LVL340:
 4267              	.L302:
 896:Core/Src/esp32.c ****         else
 897:Core/Src/esp32.c ****             sprintf((char *)Buffs.TxBuffer, "AT+CIPSEND=%d,%d\r\n", LinkId, dataLen);
 898:Core/Src/esp32.c ****         if (Wifi_SendString((char *)Buffs.TxBuffer) == false)
 4268              		.loc 1 898 9 view .LVU962
 4269              		.loc 1 898 13 is_stmt 0 view .LVU963
 4270 0020 1D48     		ldr	r0, .L308+8
 4271 0022 FFF7FEFF 		bl	Wifi_SendString
 4272              	.LVL341:
 4273              		.loc 1 898 12 view .LVU964
 4274 0026 40B9     		cbnz	r0, .L306
 4275              	.L303:
 4276              	.LVL342:
 899:Core/Src/esp32.c ****             break;
 900:Core/Src/esp32.c ****         if (Wifi_WaitForString(_WIFI_WAIT_TIME_LOW, &result, 2, ">", "ERROR") == false)
 901:Core/Src/esp32.c ****             break;       // The timeout was completed and the string was not there
 902:Core/Src/esp32.c ****         if (result == 2) // It was find the "ERROR" String in the receiving information
 903:Core/Src/esp32.c ****             break;
 904:Core/Src/esp32.c ****         Wifi_RxClear();
 905:Core/Src/esp32.c ****         // Send in this time the information through the connection
 906:Core/Src/esp32.c ****         Wifi_SendRaw(data, dataLen);
 907:Core/Src/esp32.c ****         if (Wifi_WaitForString(_WIFI_WAIT_TIME_LOW, &result, 2, "OK", "ERROR") == false)
 908:Core/Src/esp32.c ****             break;       // The timeout was completed and the string was not there
 909:Core/Src/esp32.c ****         if (result == 2) // It was find the "ERROR" String in the receiving information
 910:Core/Src/esp32.c ****             break;
 911:Core/Src/esp32.c ****         returnVal = true;
 912:Core/Src/esp32.c ****     } while (0);
 4277              		.loc 1 912 13 is_stmt 1 view .LVU965
 913:Core/Src/esp32.c ****     return returnVal;
 4278              		.loc 1 913 5 view .LVU966
 914:Core/Src/esp32.c **** }
 4279              		.loc 1 914 1 is_stmt 0 view .LVU967
 4280 0028 04B0     		add	sp, sp, #16
 4281              		.cfi_remember_state
 4282              		.cfi_def_cfa_offset 16
 4283              		@ sp needed
 4284 002a 70BD     		pop	{r4, r5, r6, pc}
 4285              	.LVL343:
 4286              	.L301:
 4287              		.cfi_restore_state
 897:Core/Src/esp32.c ****         if (Wifi_SendString((char *)Buffs.TxBuffer) == false)
 4288              		.loc 1 897 13 is_stmt 1 view .LVU968
 4289 002c 2346     		mov	r3, r4
 4290 002e 2A46     		mov	r2, r5
 4291 0030 1A49     		ldr	r1, .L308+12
 4292 0032 1948     		ldr	r0, .L308+8
 4293 0034 FFF7FEFF 		bl	sprintf
ARM GAS  /var/folders/9y/n02fl3g16gnf7ppy14xghdy80000gn/T//ccqH5YoF.s 			page 102


 4294              	.LVL344:
 4295 0038 F2E7     		b	.L302
 4296              	.L306:
 900:Core/Src/esp32.c ****             break;       // The timeout was completed and the string was not there
 4297              		.loc 1 900 9 view .LVU969
 900:Core/Src/esp32.c ****             break;       // The timeout was completed and the string was not there
 4298              		.loc 1 900 13 is_stmt 0 view .LVU970
 4299 003a 194B     		ldr	r3, .L308+16
 4300 003c 0093     		str	r3, [sp]
 4301 003e 194B     		ldr	r3, .L308+20
 4302 0040 0222     		movs	r2, #2
 4303 0042 0DF10F01 		add	r1, sp, #15
 4304 0046 4FF47A70 		mov	r0, #1000
 4305 004a FFF7FEFF 		bl	Wifi_WaitForString
 4306              	.LVL345:
 900:Core/Src/esp32.c ****             break;       // The timeout was completed and the string was not there
 4307              		.loc 1 900 12 view .LVU971
 4308 004e 0028     		cmp	r0, #0
 4309 0050 EAD0     		beq	.L303
 902:Core/Src/esp32.c ****             break;
 4310              		.loc 1 902 9 is_stmt 1 view .LVU972
 902:Core/Src/esp32.c ****             break;
 4311              		.loc 1 902 20 is_stmt 0 view .LVU973
 4312 0052 9DF80F30 		ldrb	r3, [sp, #15]	@ zero_extendqisi2
 902:Core/Src/esp32.c ****             break;
 4313              		.loc 1 902 12 view .LVU974
 4314 0056 022B     		cmp	r3, #2
 4315 0058 01D1     		bne	.L307
 890:Core/Src/esp32.c ****     do
 4316              		.loc 1 890 10 view .LVU975
 4317 005a 0020     		movs	r0, #0
 4318 005c E4E7     		b	.L303
 4319              	.L307:
 904:Core/Src/esp32.c ****         // Send in this time the information through the connection
 4320              		.loc 1 904 9 is_stmt 1 view .LVU976
 4321 005e FFF7FEFF 		bl	Wifi_RxClear
 4322              	.LVL346:
 906:Core/Src/esp32.c ****         if (Wifi_WaitForString(_WIFI_WAIT_TIME_LOW, &result, 2, "OK", "ERROR") == false)
 4323              		.loc 1 906 9 view .LVU977
 4324 0062 2146     		mov	r1, r4
 4325 0064 3046     		mov	r0, r6
 4326 0066 FFF7FEFF 		bl	Wifi_SendRaw
 4327              	.LVL347:
 907:Core/Src/esp32.c ****             break;       // The timeout was completed and the string was not there
 4328              		.loc 1 907 9 view .LVU978
 907:Core/Src/esp32.c ****             break;       // The timeout was completed and the string was not there
 4329              		.loc 1 907 13 is_stmt 0 view .LVU979
 4330 006a 0D4B     		ldr	r3, .L308+16
 4331 006c 0093     		str	r3, [sp]
 4332 006e 0E4B     		ldr	r3, .L308+24
 4333 0070 0222     		movs	r2, #2
 4334 0072 0DF10F01 		add	r1, sp, #15
 4335 0076 4FF47A70 		mov	r0, #1000
 4336 007a FFF7FEFF 		bl	Wifi_WaitForString
 4337              	.LVL348:
 907:Core/Src/esp32.c ****             break;       // The timeout was completed and the string was not there
 4338              		.loc 1 907 12 view .LVU980
ARM GAS  /var/folders/9y/n02fl3g16gnf7ppy14xghdy80000gn/T//ccqH5YoF.s 			page 103


 4339 007e 0028     		cmp	r0, #0
 4340 0080 D2D0     		beq	.L303
 909:Core/Src/esp32.c ****             break;
 4341              		.loc 1 909 9 is_stmt 1 view .LVU981
 909:Core/Src/esp32.c ****             break;
 4342              		.loc 1 909 20 is_stmt 0 view .LVU982
 4343 0082 9DF80F30 		ldrb	r3, [sp, #15]	@ zero_extendqisi2
 909:Core/Src/esp32.c ****             break;
 4344              		.loc 1 909 12 view .LVU983
 4345 0086 022B     		cmp	r3, #2
 4346 0088 CED1     		bne	.L303
 890:Core/Src/esp32.c ****     do
 4347              		.loc 1 890 10 view .LVU984
 4348 008a 0020     		movs	r0, #0
 4349 008c CCE7     		b	.L303
 4350              	.L309:
 4351 008e 00BF     		.align	2
 4352              	.L308:
 4353 0090 00000000 		.word	.LANCHOR0
 4354 0094 00000000 		.word	.LC48
 4355 0098 140C0000 		.word	Buffs+3092
 4356 009c 10000000 		.word	.LC49
 4357 00a0 0C000000 		.word	.LC2
 4358 00a4 24000000 		.word	.LC50
 4359 00a8 08000000 		.word	.LC1
 4360              		.cfi_endproc
 4361              	.LFE1193:
 4363              		.section	.rodata.Wifi_TcpIp_SendDataTcp.str1.4,"aMS",%progbits,1
 4364              		.align	2
 4365              	.LC51:
 4366 0000 41542B43 		.ascii	"AT+CIPSENDBUF=%d\015\012\000"
 4366      49505345 
 4366      4E444255 
 4366      463D2564 
 4366      0D0A00
 4367 0013 00       		.align	2
 4368              	.LC52:
 4369 0014 41542B43 		.ascii	"AT+CIPSENDBUF=%d,%d\015\012\000"
 4369      49505345 
 4369      4E444255 
 4369      463D2564 
 4369      2C25640D 
 4370 002a 0000     		.align	2
 4371              	.LC53:
 4372 002c 62757379 		.ascii	"busy\000"
 4372      00
 4373              		.section	.text.Wifi_TcpIp_SendDataTcp,"ax",%progbits
 4374              		.align	1
 4375              		.global	Wifi_TcpIp_SendDataTcp
 4376              		.syntax unified
 4377              		.thumb
 4378              		.thumb_func
 4379              		.fpu fpv4-sp-d16
 4381              	Wifi_TcpIp_SendDataTcp:
 4382              	.LVL349:
 4383              	.LFB1194:
 915:Core/Src/esp32.c **** // ################################################################################################
ARM GAS  /var/folders/9y/n02fl3g16gnf7ppy14xghdy80000gn/T//ccqH5YoF.s 			page 104


 916:Core/Src/esp32.c **** bool Wifi_TcpIp_SendDataTcp(uint8_t LinkId, uint16_t dataLen, uint8_t *data)
 917:Core/Src/esp32.c **** {
 4384              		.loc 1 917 1 is_stmt 1 view -0
 4385              		.cfi_startproc
 4386              		@ args = 0, pretend = 0, frame = 8
 4387              		@ frame_needed = 0, uses_anonymous_args = 0
 4388              		.loc 1 917 1 is_stmt 0 view .LVU986
 4389 0000 70B5     		push	{r4, r5, r6, lr}
 4390              		.cfi_def_cfa_offset 16
 4391              		.cfi_offset 4, -16
 4392              		.cfi_offset 5, -12
 4393              		.cfi_offset 6, -8
 4394              		.cfi_offset 14, -4
 4395 0002 84B0     		sub	sp, sp, #16
 4396              		.cfi_def_cfa_offset 32
 4397 0004 0546     		mov	r5, r0
 4398 0006 0C46     		mov	r4, r1
 4399 0008 1646     		mov	r6, r2
 918:Core/Src/esp32.c ****     uint8_t result;
 4400              		.loc 1 918 5 is_stmt 1 view .LVU987
 919:Core/Src/esp32.c ****     bool returnVal = false;
 4401              		.loc 1 919 5 view .LVU988
 4402              	.LVL350:
 920:Core/Src/esp32.c ****     do
 4403              		.loc 1 920 5 view .LVU989
 921:Core/Src/esp32.c ****     {
 922:Core/Src/esp32.c ****         Wifi_RxClear();
 4404              		.loc 1 922 9 view .LVU990
 4405 000a FFF7FEFF 		bl	Wifi_RxClear
 4406              	.LVL351:
 923:Core/Src/esp32.c ****         if (Wifi.TcpIpMultiConnection == false)
 4407              		.loc 1 923 9 view .LVU991
 4408              		.loc 1 923 17 is_stmt 0 view .LVU992
 4409 000e 234B     		ldr	r3, .L318
 4410 0010 93F81331 		ldrb	r3, [r3, #275]	@ zero_extendqisi2
 4411              		.loc 1 923 12 view .LVU993
 4412 0014 53B9     		cbnz	r3, .L311
 924:Core/Src/esp32.c ****             sprintf((char *)Buffs.TxBuffer, "AT+CIPSENDBUF=%d\r\n", dataLen);
 4413              		.loc 1 924 13 is_stmt 1 view .LVU994
 4414 0016 2246     		mov	r2, r4
 4415 0018 2149     		ldr	r1, .L318+4
 4416 001a 2248     		ldr	r0, .L318+8
 4417 001c FFF7FEFF 		bl	sprintf
 4418              	.LVL352:
 4419              	.L312:
 925:Core/Src/esp32.c ****         else
 926:Core/Src/esp32.c ****             sprintf((char *)Buffs.TxBuffer, "AT+CIPSENDBUF=%d,%d\r\n", LinkId, dataLen);
 927:Core/Src/esp32.c ****         if (Wifi_SendString((char *)Buffs.TxBuffer) == false)
 4420              		.loc 1 927 9 view .LVU995
 4421              		.loc 1 927 13 is_stmt 0 view .LVU996
 4422 0020 2048     		ldr	r0, .L318+8
 4423 0022 FFF7FEFF 		bl	Wifi_SendString
 4424              	.LVL353:
 4425              		.loc 1 927 12 view .LVU997
 4426 0026 40B9     		cbnz	r0, .L316
 4427              	.L313:
 4428              	.LVL354:
ARM GAS  /var/folders/9y/n02fl3g16gnf7ppy14xghdy80000gn/T//ccqH5YoF.s 			page 105


 928:Core/Src/esp32.c ****             break;
 929:Core/Src/esp32.c ****         if (Wifi_WaitForString(_WIFI_WAIT_TIME_LOW, &result, 2, "OK", "ERROR") == false)
 930:Core/Src/esp32.c ****             break;
 931:Core/Src/esp32.c ****         if (Wifi_WaitForString(_WIFI_WAIT_TIME_LOW, &result, 3, ">", "ERROR", "busy") == false)
 932:Core/Src/esp32.c ****             break;
 933:Core/Src/esp32.c ****         if (result > 1)
 934:Core/Src/esp32.c ****             break;
 935:Core/Src/esp32.c ****         Wifi_RxClear();
 936:Core/Src/esp32.c ****         Wifi_SendRaw(data, dataLen);
 937:Core/Src/esp32.c ****         if (Wifi_WaitForString(_WIFI_WAIT_TIME_LOW, &result, 2, "OK", "ERROR") == false)
 938:Core/Src/esp32.c ****             break;
 939:Core/Src/esp32.c ****         returnVal = true;
 940:Core/Src/esp32.c ****     } while (0);
 4429              		.loc 1 940 13 is_stmt 1 view .LVU998
 941:Core/Src/esp32.c ****     return returnVal;
 4430              		.loc 1 941 5 view .LVU999
 942:Core/Src/esp32.c **** }
 4431              		.loc 1 942 1 is_stmt 0 view .LVU1000
 4432 0028 04B0     		add	sp, sp, #16
 4433              		.cfi_remember_state
 4434              		.cfi_def_cfa_offset 16
 4435              		@ sp needed
 4436 002a 70BD     		pop	{r4, r5, r6, pc}
 4437              	.LVL355:
 4438              	.L311:
 4439              		.cfi_restore_state
 926:Core/Src/esp32.c ****         if (Wifi_SendString((char *)Buffs.TxBuffer) == false)
 4440              		.loc 1 926 13 is_stmt 1 view .LVU1001
 4441 002c 2346     		mov	r3, r4
 4442 002e 2A46     		mov	r2, r5
 4443 0030 1D49     		ldr	r1, .L318+12
 4444 0032 1C48     		ldr	r0, .L318+8
 4445 0034 FFF7FEFF 		bl	sprintf
 4446              	.LVL356:
 4447 0038 F2E7     		b	.L312
 4448              	.L316:
 929:Core/Src/esp32.c ****             break;
 4449              		.loc 1 929 9 view .LVU1002
 929:Core/Src/esp32.c ****             break;
 4450              		.loc 1 929 13 is_stmt 0 view .LVU1003
 4451 003a 1C4B     		ldr	r3, .L318+16
 4452 003c 0093     		str	r3, [sp]
 4453 003e 1C4B     		ldr	r3, .L318+20
 4454 0040 0222     		movs	r2, #2
 4455 0042 0DF10F01 		add	r1, sp, #15
 4456 0046 4FF47A70 		mov	r0, #1000
 4457 004a FFF7FEFF 		bl	Wifi_WaitForString
 4458              	.LVL357:
 929:Core/Src/esp32.c ****             break;
 4459              		.loc 1 929 12 view .LVU1004
 4460 004e 0028     		cmp	r0, #0
 4461 0050 EAD0     		beq	.L313
 931:Core/Src/esp32.c ****             break;
 4462              		.loc 1 931 9 is_stmt 1 view .LVU1005
 931:Core/Src/esp32.c ****             break;
 4463              		.loc 1 931 13 is_stmt 0 view .LVU1006
 4464 0052 184B     		ldr	r3, .L318+24
ARM GAS  /var/folders/9y/n02fl3g16gnf7ppy14xghdy80000gn/T//ccqH5YoF.s 			page 106


 4465 0054 0193     		str	r3, [sp, #4]
 4466 0056 154B     		ldr	r3, .L318+16
 4467 0058 0093     		str	r3, [sp]
 4468 005a 174B     		ldr	r3, .L318+28
 4469 005c 0322     		movs	r2, #3
 4470 005e 0DF10F01 		add	r1, sp, #15
 4471 0062 4FF47A70 		mov	r0, #1000
 4472 0066 FFF7FEFF 		bl	Wifi_WaitForString
 4473              	.LVL358:
 931:Core/Src/esp32.c ****             break;
 4474              		.loc 1 931 12 view .LVU1007
 4475 006a 0028     		cmp	r0, #0
 4476 006c DCD0     		beq	.L313
 933:Core/Src/esp32.c ****             break;
 4477              		.loc 1 933 9 is_stmt 1 view .LVU1008
 933:Core/Src/esp32.c ****             break;
 4478              		.loc 1 933 20 is_stmt 0 view .LVU1009
 4479 006e 9DF80F30 		ldrb	r3, [sp, #15]	@ zero_extendqisi2
 933:Core/Src/esp32.c ****             break;
 4480              		.loc 1 933 12 view .LVU1010
 4481 0072 012B     		cmp	r3, #1
 4482 0074 01D9     		bls	.L317
 919:Core/Src/esp32.c ****     do
 4483              		.loc 1 919 10 view .LVU1011
 4484 0076 0020     		movs	r0, #0
 4485 0078 D6E7     		b	.L313
 4486              	.L317:
 935:Core/Src/esp32.c ****         Wifi_SendRaw(data, dataLen);
 4487              		.loc 1 935 9 is_stmt 1 view .LVU1012
 4488 007a FFF7FEFF 		bl	Wifi_RxClear
 4489              	.LVL359:
 936:Core/Src/esp32.c ****         if (Wifi_WaitForString(_WIFI_WAIT_TIME_LOW, &result, 2, "OK", "ERROR") == false)
 4490              		.loc 1 936 9 view .LVU1013
 4491 007e 2146     		mov	r1, r4
 4492 0080 3046     		mov	r0, r6
 4493 0082 FFF7FEFF 		bl	Wifi_SendRaw
 4494              	.LVL360:
 937:Core/Src/esp32.c ****             break;
 4495              		.loc 1 937 9 view .LVU1014
 937:Core/Src/esp32.c ****             break;
 4496              		.loc 1 937 13 is_stmt 0 view .LVU1015
 4497 0086 094B     		ldr	r3, .L318+16
 4498 0088 0093     		str	r3, [sp]
 4499 008a 094B     		ldr	r3, .L318+20
 4500 008c 0222     		movs	r2, #2
 4501 008e 0DF10F01 		add	r1, sp, #15
 4502 0092 4FF47A70 		mov	r0, #1000
 4503 0096 FFF7FEFF 		bl	Wifi_WaitForString
 4504              	.LVL361:
 4505 009a C5E7     		b	.L313
 4506              	.L319:
 4507              		.align	2
 4508              	.L318:
 4509 009c 00000000 		.word	.LANCHOR0
 4510 00a0 00000000 		.word	.LC51
 4511 00a4 140C0000 		.word	Buffs+3092
 4512 00a8 14000000 		.word	.LC52
ARM GAS  /var/folders/9y/n02fl3g16gnf7ppy14xghdy80000gn/T//ccqH5YoF.s 			page 107


 4513 00ac 0C000000 		.word	.LC2
 4514 00b0 08000000 		.word	.LC1
 4515 00b4 2C000000 		.word	.LC53
 4516 00b8 24000000 		.word	.LC50
 4517              		.cfi_endproc
 4518              	.LFE1194:
 4520              		.section	.rodata.SNTP_SetTimeZone.str1.4,"aMS",%progbits,1
 4521              		.align	2
 4522              	.LC54:
 4523 0000 41542B43 		.ascii	"AT+CIPSNTPCFG=%d,%d,\"%s\",\"%s\",\"%s\"\015\012\000"
 4523      4950534E 
 4523      54504346 
 4523      473D2564 
 4523      2C25642C 
 4524 0025 000000   		.align	2
 4525              	.LC55:
 4526 0028 41542B43 		.ascii	"AT+CIPSNTPCFG=%d,%d,\"%s\",\"%s\"\015\012\000"
 4526      4950534E 
 4526      54504346 
 4526      473D2564 
 4526      2C25642C 
 4527              		.align	2
 4528              	.LC56:
 4529 0048 41542B43 		.ascii	"AT+CIPSNTPCFG=%d,%d,\"%s\"\015\012\000"
 4529      4950534E 
 4529      54504346 
 4529      473D2564 
 4529      2C25642C 
 4530 0063 00       		.align	2
 4531              	.LC57:
 4532 0064 2B54494D 		.ascii	"+TIME_UPDATED\000"
 4532      455F5550 
 4532      44415445 
 4532      4400
 4533              		.section	.text.SNTP_SetTimeZone,"ax",%progbits
 4534              		.align	1
 4535              		.global	SNTP_SetTimeZone
 4536              		.syntax unified
 4537              		.thumb
 4538              		.thumb_func
 4539              		.fpu fpv4-sp-d16
 4541              	SNTP_SetTimeZone:
 4542              	.LVL362:
 4543              	.LFB1196:
 943:Core/Src/esp32.c **** // ################################################################################################
 944:Core/Src/esp32.c **** /* MQTT Commands */
 945:Core/Src/esp32.c **** // ################################################################################################
 946:Core/Src/esp32.c **** bool SNTP_Init(void)
 947:Core/Src/esp32.c **** {
 948:Core/Src/esp32.c ****     SNTP.enable = 1;
 949:Core/Src/esp32.c ****     SNTP.timezone = -7;
 950:Core/Src/esp32.c ****     SNTP.server1 = "pool.ntp.org";
 951:Core/Src/esp32.c **** 
 952:Core/Src/esp32.c ****     SNTP.time_updated = false;
 953:Core/Src/esp32.c ****     while (!SNTP_TimeUpdated())
 954:Core/Src/esp32.c ****         SNTP_SetTimeZone(1);
 955:Core/Src/esp32.c ****     return true;
ARM GAS  /var/folders/9y/n02fl3g16gnf7ppy14xghdy80000gn/T//ccqH5YoF.s 			page 108


 956:Core/Src/esp32.c **** }
 957:Core/Src/esp32.c **** // ################################################################################################
 958:Core/Src/esp32.c **** bool SNTP_SetTimeZone(size_t numServers)
 959:Core/Src/esp32.c **** {
 4544              		.loc 1 959 1 is_stmt 1 view -0
 4545              		.cfi_startproc
 4546              		@ args = 0, pretend = 0, frame = 8
 4547              		@ frame_needed = 0, uses_anonymous_args = 0
 4548              		.loc 1 959 1 is_stmt 0 view .LVU1017
 4549 0000 10B5     		push	{r4, lr}
 4550              		.cfi_def_cfa_offset 8
 4551              		.cfi_offset 4, -8
 4552              		.cfi_offset 14, -4
 4553 0002 86B0     		sub	sp, sp, #24
 4554              		.cfi_def_cfa_offset 32
 4555 0004 0446     		mov	r4, r0
 960:Core/Src/esp32.c ****     uint8_t result;
 4556              		.loc 1 960 5 is_stmt 1 view .LVU1018
 961:Core/Src/esp32.c ****     bool returnVal = false;
 4557              		.loc 1 961 5 view .LVU1019
 4558              	.LVL363:
 962:Core/Src/esp32.c ****     do
 4559              		.loc 1 962 5 view .LVU1020
 963:Core/Src/esp32.c ****     {
 964:Core/Src/esp32.c ****         Wifi_RxClear();
 4560              		.loc 1 964 9 view .LVU1021
 4561 0006 FFF7FEFF 		bl	Wifi_RxClear
 4562              	.LVL364:
 965:Core/Src/esp32.c ****         switch (numServers)
 4563              		.loc 1 965 9 view .LVU1022
 4564 000a 022C     		cmp	r4, #2
 4565 000c 15D0     		beq	.L321
 4566 000e 032C     		cmp	r4, #3
 4567 0010 20D1     		bne	.L322
 966:Core/Src/esp32.c ****         {
 967:Core/Src/esp32.c ****         case 3:
 968:Core/Src/esp32.c ****             sprintf((char *)Buffs.TxBuffer, "AT+CIPSNTPCFG=%d,%d,\"%s\",\"%s\",\"%s\"\r\n", SNTP.en
 4568              		.loc 1 968 13 view .LVU1023
 4569              		.loc 1 968 97 is_stmt 0 view .LVU1024
 4570 0012 274A     		ldr	r2, .L330
 4571              		.loc 1 968 13 view .LVU1025
 4572 0014 D368     		ldr	r3, [r2, #12]
 4573 0016 0293     		str	r3, [sp, #8]
 4574 0018 9368     		ldr	r3, [r2, #8]
 4575 001a 0193     		str	r3, [sp, #4]
 4576 001c 5368     		ldr	r3, [r2, #4]
 4577 001e 0093     		str	r3, [sp]
 4578 0020 92F90230 		ldrsb	r3, [r2, #2]
 4579 0024 1278     		ldrb	r2, [r2]	@ zero_extendqisi2
 4580 0026 2349     		ldr	r1, .L330+4
 4581 0028 2348     		ldr	r0, .L330+8
 4582 002a FFF7FEFF 		bl	sprintf
 4583              	.LVL365:
 969:Core/Src/esp32.c ****             break;
 4584              		.loc 1 969 13 is_stmt 1 view .LVU1026
 4585              	.L323:
 970:Core/Src/esp32.c ****         case 2:
ARM GAS  /var/folders/9y/n02fl3g16gnf7ppy14xghdy80000gn/T//ccqH5YoF.s 			page 109


 971:Core/Src/esp32.c ****             sprintf((char *)Buffs.TxBuffer, "AT+CIPSNTPCFG=%d,%d,\"%s\",\"%s\"\r\n", SNTP.enable, S
 972:Core/Src/esp32.c ****             break;
 973:Core/Src/esp32.c ****         default:
 974:Core/Src/esp32.c ****             sprintf((char *)Buffs.TxBuffer, "AT+CIPSNTPCFG=%d,%d,\"%s\"\r\n", SNTP.enable, SNTP.tim
 975:Core/Src/esp32.c ****             break;
 976:Core/Src/esp32.c ****         }
 977:Core/Src/esp32.c ****         if (Wifi_SendString((char *)Buffs.TxBuffer) == false)
 4586              		.loc 1 977 9 view .LVU1027
 4587              		.loc 1 977 13 is_stmt 0 view .LVU1028
 4588 002e 2248     		ldr	r0, .L330+8
 4589 0030 FFF7FEFF 		bl	Wifi_SendString
 4590              	.LVL366:
 4591              		.loc 1 977 12 view .LVU1029
 4592 0034 C8B9     		cbnz	r0, .L328
 4593              	.LVL367:
 4594              	.L324:
 978:Core/Src/esp32.c ****             break;
 979:Core/Src/esp32.c ****         if (Wifi_WaitForString(_WIFI_WAIT_TIME_LOW, &result, 2, "OK", "ERROR") == false)
 980:Core/Src/esp32.c ****             break;       // The timeout was completed and the string was not there
 981:Core/Src/esp32.c ****         if (result == 2) // It was find the "ERROR" String in the receiving information
 982:Core/Src/esp32.c ****             break;
 983:Core/Src/esp32.c **** 
 984:Core/Src/esp32.c ****         if (Wifi_WaitForString(_WIFI_WAIT_TIME_ULTRAHIGH, &result, 1, "+TIME_UPDATED") == false)
 985:Core/Src/esp32.c ****         {
 986:Core/Src/esp32.c ****             SNTP.time_updated = false;
 987:Core/Src/esp32.c ****             break;
 988:Core/Src/esp32.c ****         }
 989:Core/Src/esp32.c ****         else
 990:Core/Src/esp32.c ****             SNTP.time_updated = true;
 991:Core/Src/esp32.c **** 
 992:Core/Src/esp32.c ****         returnVal = true;
 993:Core/Src/esp32.c ****     } while (0);
 4595              		.loc 1 993 13 is_stmt 1 view .LVU1030
 994:Core/Src/esp32.c ****     return returnVal;
 4596              		.loc 1 994 5 view .LVU1031
 995:Core/Src/esp32.c **** }
 4597              		.loc 1 995 1 is_stmt 0 view .LVU1032
 4598 0036 06B0     		add	sp, sp, #24
 4599              		.cfi_remember_state
 4600              		.cfi_def_cfa_offset 8
 4601              		@ sp needed
 4602 0038 10BD     		pop	{r4, pc}
 4603              	.LVL368:
 4604              	.L321:
 4605              		.cfi_restore_state
 971:Core/Src/esp32.c ****             break;
 4606              		.loc 1 971 13 is_stmt 1 view .LVU1033
 971:Core/Src/esp32.c ****             break;
 4607              		.loc 1 971 90 is_stmt 0 view .LVU1034
 4608 003a 1D4A     		ldr	r2, .L330
 971:Core/Src/esp32.c ****             break;
 4609              		.loc 1 971 13 view .LVU1035
 4610 003c 9368     		ldr	r3, [r2, #8]
 4611 003e 0193     		str	r3, [sp, #4]
 4612 0040 5368     		ldr	r3, [r2, #4]
 4613 0042 0093     		str	r3, [sp]
 4614 0044 92F90230 		ldrsb	r3, [r2, #2]
ARM GAS  /var/folders/9y/n02fl3g16gnf7ppy14xghdy80000gn/T//ccqH5YoF.s 			page 110


 4615 0048 1278     		ldrb	r2, [r2]	@ zero_extendqisi2
 4616 004a 1C49     		ldr	r1, .L330+12
 4617 004c 1A48     		ldr	r0, .L330+8
 4618 004e FFF7FEFF 		bl	sprintf
 4619              	.LVL369:
 972:Core/Src/esp32.c ****         default:
 4620              		.loc 1 972 13 is_stmt 1 view .LVU1036
 4621 0052 ECE7     		b	.L323
 4622              	.L322:
 974:Core/Src/esp32.c ****             break;
 4623              		.loc 1 974 13 view .LVU1037
 974:Core/Src/esp32.c ****             break;
 4624              		.loc 1 974 83 is_stmt 0 view .LVU1038
 4625 0054 164A     		ldr	r2, .L330
 974:Core/Src/esp32.c ****             break;
 4626              		.loc 1 974 13 view .LVU1039
 4627 0056 5368     		ldr	r3, [r2, #4]
 4628 0058 0093     		str	r3, [sp]
 4629 005a 92F90230 		ldrsb	r3, [r2, #2]
 4630 005e 1278     		ldrb	r2, [r2]	@ zero_extendqisi2
 4631 0060 1749     		ldr	r1, .L330+16
 4632 0062 1548     		ldr	r0, .L330+8
 4633 0064 FFF7FEFF 		bl	sprintf
 4634              	.LVL370:
 975:Core/Src/esp32.c ****         }
 4635              		.loc 1 975 13 is_stmt 1 view .LVU1040
 4636 0068 E1E7     		b	.L323
 4637              	.L328:
 979:Core/Src/esp32.c ****             break;       // The timeout was completed and the string was not there
 4638              		.loc 1 979 9 view .LVU1041
 979:Core/Src/esp32.c ****             break;       // The timeout was completed and the string was not there
 4639              		.loc 1 979 13 is_stmt 0 view .LVU1042
 4640 006a 164B     		ldr	r3, .L330+20
 4641 006c 0093     		str	r3, [sp]
 4642 006e 164B     		ldr	r3, .L330+24
 4643 0070 0222     		movs	r2, #2
 4644 0072 0DF11701 		add	r1, sp, #23
 4645 0076 4FF47A70 		mov	r0, #1000
 4646 007a FFF7FEFF 		bl	Wifi_WaitForString
 4647              	.LVL371:
 979:Core/Src/esp32.c ****             break;       // The timeout was completed and the string was not there
 4648              		.loc 1 979 12 view .LVU1043
 4649 007e 0028     		cmp	r0, #0
 4650 0080 D9D0     		beq	.L324
 981:Core/Src/esp32.c ****             break;
 4651              		.loc 1 981 9 is_stmt 1 view .LVU1044
 981:Core/Src/esp32.c ****             break;
 4652              		.loc 1 981 20 is_stmt 0 view .LVU1045
 4653 0082 9DF81730 		ldrb	r3, [sp, #23]	@ zero_extendqisi2
 981:Core/Src/esp32.c ****             break;
 4654              		.loc 1 981 12 view .LVU1046
 4655 0086 022B     		cmp	r3, #2
 4656 0088 01D1     		bne	.L329
 961:Core/Src/esp32.c ****     do
 4657              		.loc 1 961 10 view .LVU1047
 4658 008a 0020     		movs	r0, #0
 4659 008c D3E7     		b	.L324
ARM GAS  /var/folders/9y/n02fl3g16gnf7ppy14xghdy80000gn/T//ccqH5YoF.s 			page 111


 4660              	.L329:
 984:Core/Src/esp32.c ****         {
 4661              		.loc 1 984 9 is_stmt 1 view .LVU1048
 984:Core/Src/esp32.c ****         {
 4662              		.loc 1 984 13 is_stmt 0 view .LVU1049
 4663 008e 0F4B     		ldr	r3, .L330+28
 4664 0090 0122     		movs	r2, #1
 4665 0092 0DF11701 		add	r1, sp, #23
 4666 0096 0E48     		ldr	r0, .L330+32
 4667 0098 FFF7FEFF 		bl	Wifi_WaitForString
 4668              	.LVL372:
 984:Core/Src/esp32.c ****         {
 4669              		.loc 1 984 12 view .LVU1050
 4670 009c 18B9     		cbnz	r0, .L325
 986:Core/Src/esp32.c ****             break;
 4671              		.loc 1 986 13 is_stmt 1 view .LVU1051
 986:Core/Src/esp32.c ****             break;
 4672              		.loc 1 986 31 is_stmt 0 view .LVU1052
 4673 009e 044B     		ldr	r3, .L330
 4674 00a0 0022     		movs	r2, #0
 4675 00a2 5A70     		strb	r2, [r3, #1]
 987:Core/Src/esp32.c ****         }
 4676              		.loc 1 987 13 is_stmt 1 view .LVU1053
 4677 00a4 C7E7     		b	.L324
 4678              	.L325:
 990:Core/Src/esp32.c **** 
 4679              		.loc 1 990 13 view .LVU1054
 990:Core/Src/esp32.c **** 
 4680              		.loc 1 990 31 is_stmt 0 view .LVU1055
 4681 00a6 024B     		ldr	r3, .L330
 4682 00a8 0122     		movs	r2, #1
 4683 00aa 5A70     		strb	r2, [r3, #1]
 992:Core/Src/esp32.c ****     } while (0);
 4684              		.loc 1 992 9 is_stmt 1 view .LVU1056
 4685              	.LVL373:
 992:Core/Src/esp32.c ****     } while (0);
 4686              		.loc 1 992 9 is_stmt 0 view .LVU1057
 4687 00ac C3E7     		b	.L324
 4688              	.L331:
 4689 00ae 00BF     		.align	2
 4690              	.L330:
 4691 00b0 00000000 		.word	.LANCHOR1
 4692 00b4 00000000 		.word	.LC54
 4693 00b8 140C0000 		.word	Buffs+3092
 4694 00bc 28000000 		.word	.LC55
 4695 00c0 48000000 		.word	.LC56
 4696 00c4 0C000000 		.word	.LC2
 4697 00c8 08000000 		.word	.LC1
 4698 00cc 64000000 		.word	.LC57
 4699 00d0 C0D40100 		.word	120000
 4700              		.cfi_endproc
 4701              	.LFE1196:
 4703              		.section	.rodata.SNTP_TimeUpdated.str1.4,"aMS",%progbits,1
 4704              		.align	2
 4705              	.LC58:
 4706 0000 41542B43 		.ascii	"AT+CIPSNTPTIME?\015\012\000"
 4706      4950534E 
ARM GAS  /var/folders/9y/n02fl3g16gnf7ppy14xghdy80000gn/T//ccqH5YoF.s 			page 112


 4706      54505449 
 4706      4D453F0D 
 4706      0A00
 4707 0012 0000     		.align	2
 4708              	.LC59:
 4709 0014 2B434950 		.ascii	"+CIPSNTPTIME:\000"
 4709      534E5450 
 4709      54494D45 
 4709      3A00
 4710 0022 0000     		.align	2
 4711              	.LC60:
 4712 0024 32303233 		.ascii	"2023\000"
 4712      00
 4713              		.section	.text.SNTP_TimeUpdated,"ax",%progbits
 4714              		.align	1
 4715              		.global	SNTP_TimeUpdated
 4716              		.syntax unified
 4717              		.thumb
 4718              		.thumb_func
 4719              		.fpu fpv4-sp-d16
 4721              	SNTP_TimeUpdated:
 4722              	.LFB1197:
 996:Core/Src/esp32.c **** // ################################################################################################
 997:Core/Src/esp32.c **** bool SNTP_TimeUpdated(void)
 998:Core/Src/esp32.c **** {
 4723              		.loc 1 998 1 is_stmt 1 view -0
 4724              		.cfi_startproc
 4725              		@ args = 0, pretend = 0, frame = 8
 4726              		@ frame_needed = 0, uses_anonymous_args = 0
 4727 0000 70B5     		push	{r4, r5, r6, lr}
 4728              		.cfi_def_cfa_offset 16
 4729              		.cfi_offset 4, -16
 4730              		.cfi_offset 5, -12
 4731              		.cfi_offset 6, -8
 4732              		.cfi_offset 14, -4
 4733 0002 84B0     		sub	sp, sp, #16
 4734              		.cfi_def_cfa_offset 32
 999:Core/Src/esp32.c ****     uint8_t result;
 4735              		.loc 1 999 5 view .LVU1059
1000:Core/Src/esp32.c ****     bool returnVal = false;
 4736              		.loc 1 1000 5 view .LVU1060
 4737              	.LVL374:
1001:Core/Src/esp32.c ****     do
 4738              		.loc 1 1001 5 view .LVU1061
 4739              	.LBB15:
1002:Core/Src/esp32.c ****     {
1003:Core/Src/esp32.c ****         Wifi_RxClear();
 4740              		.loc 1 1003 9 view .LVU1062
 4741 0004 FFF7FEFF 		bl	Wifi_RxClear
 4742              	.LVL375:
1004:Core/Src/esp32.c **** 
1005:Core/Src/esp32.c ****         sprintf((char *)Buffs.TxBuffer, "AT+CIPSNTPTIME?\r\n");
 4743              		.loc 1 1005 9 view .LVU1063
 4744 0008 1B4D     		ldr	r5, .L337
 4745 000a AC46     		mov	ip, r5
 4746 000c 1B4C     		ldr	r4, .L337+4
 4747 000e 0FCC     		ldmia	r4!, {r0, r1, r2, r3}
ARM GAS  /var/folders/9y/n02fl3g16gnf7ppy14xghdy80000gn/T//ccqH5YoF.s 			page 113


 4748 0010 ACE80F00 		stmia	ip!, {r0, r1, r2, r3}
 4749 0014 2368     		ldr	r3, [r4]
 4750 0016 ACF80030 		strh	r3, [ip]	@ movhi
1006:Core/Src/esp32.c ****         if (Wifi_SendString((char *)Buffs.TxBuffer) == false)
 4751              		.loc 1 1006 9 view .LVU1064
 4752              		.loc 1 1006 13 is_stmt 0 view .LVU1065
 4753 001a 2846     		mov	r0, r5
 4754 001c FFF7FEFF 		bl	Wifi_SendString
 4755              	.LVL376:
 4756              		.loc 1 1006 12 view .LVU1066
 4757 0020 18B9     		cbnz	r0, .L336
 4758              	.L333:
 4759              	.LBE15:
1000:Core/Src/esp32.c ****     do
 4760              		.loc 1 1000 10 view .LVU1067
 4761 0022 0024     		movs	r4, #0
 4762              	.L334:
 4763              	.LVL377:
1007:Core/Src/esp32.c ****             break;
1008:Core/Src/esp32.c ****         if (Wifi_WaitForString(_WIFI_WAIT_TIME_LOW, &result, 2, "OK", "ERROR") == false)
1009:Core/Src/esp32.c ****             break;       // The timeout was completed and the string was not there
1010:Core/Src/esp32.c ****         if (result == 2) // It was find the "ERROR" String in the receiving information
1011:Core/Src/esp32.c ****             break;
1012:Core/Src/esp32.c **** 
1013:Core/Src/esp32.c ****         char* search_str = "+CIPSNTPTIME:";
1014:Core/Src/esp32.c ****         char* search_year = "2023";
1015:Core/Src/esp32.c ****         size_t search_idx = 0;
1016:Core/Src/esp32.c ****         lwrb_find(&Buffs.RxBuffer, (void*)search_str, strlen(search_str), 0, &search_idx);
1017:Core/Src/esp32.c ****         if(!lwrb_find(&Buffs.RxBuffer, (void*)search_year, strlen(search_year), search_idx, &search
1018:Core/Src/esp32.c ****             break;
1019:Core/Src/esp32.c ****         }
1020:Core/Src/esp32.c ****         //  = strstr((char *)Buffs.RxBuffer.buff, "+CIPSNTPTIME:");
1021:Core/Src/esp32.c ****         // sscanf(((char*)&Buffs.RxBuffer_Data + search_idx + strlen(search_str)), "%3s %3s %hhu %h
1022:Core/Src/esp32.c **** 
1023:Core/Src/esp32.c ****         returnVal = true;
1024:Core/Src/esp32.c ****     } while (0);
 4764              		.loc 1 1024 13 is_stmt 1 view .LVU1068
1025:Core/Src/esp32.c **** 
1026:Core/Src/esp32.c ****     return returnVal;
 4765              		.loc 1 1026 5 view .LVU1069
1027:Core/Src/esp32.c **** }
 4766              		.loc 1 1027 1 is_stmt 0 view .LVU1070
 4767 0024 2046     		mov	r0, r4
 4768 0026 04B0     		add	sp, sp, #16
 4769              		.cfi_remember_state
 4770              		.cfi_def_cfa_offset 16
 4771              		@ sp needed
 4772 0028 70BD     		pop	{r4, r5, r6, pc}
 4773              	.LVL378:
 4774              	.L336:
 4775              		.cfi_restore_state
 4776              	.LBB16:
1008:Core/Src/esp32.c ****             break;       // The timeout was completed and the string was not there
 4777              		.loc 1 1008 9 is_stmt 1 view .LVU1071
1008:Core/Src/esp32.c ****             break;       // The timeout was completed and the string was not there
 4778              		.loc 1 1008 13 is_stmt 0 view .LVU1072
 4779 002a 154B     		ldr	r3, .L337+8
ARM GAS  /var/folders/9y/n02fl3g16gnf7ppy14xghdy80000gn/T//ccqH5YoF.s 			page 114


 4780 002c 0093     		str	r3, [sp]
 4781 002e 154B     		ldr	r3, .L337+12
 4782 0030 0222     		movs	r2, #2
 4783 0032 0DF10F01 		add	r1, sp, #15
 4784 0036 4FF47A70 		mov	r0, #1000
 4785 003a FFF7FEFF 		bl	Wifi_WaitForString
 4786              	.LVL379:
1008:Core/Src/esp32.c ****             break;       // The timeout was completed and the string was not there
 4787              		.loc 1 1008 12 view .LVU1073
 4788 003e 0446     		mov	r4, r0
 4789 0040 0028     		cmp	r0, #0
 4790 0042 EED0     		beq	.L333
1010:Core/Src/esp32.c ****             break;
 4791              		.loc 1 1010 9 is_stmt 1 view .LVU1074
1010:Core/Src/esp32.c ****             break;
 4792              		.loc 1 1010 20 is_stmt 0 view .LVU1075
 4793 0044 9DF80F30 		ldrb	r3, [sp, #15]	@ zero_extendqisi2
1010:Core/Src/esp32.c ****             break;
 4794              		.loc 1 1010 12 view .LVU1076
 4795 0048 022B     		cmp	r3, #2
 4796 004a EAD0     		beq	.L333
1013:Core/Src/esp32.c ****         char* search_year = "2023";
 4797              		.loc 1 1013 9 is_stmt 1 view .LVU1077
 4798              	.LVL380:
1014:Core/Src/esp32.c ****         size_t search_idx = 0;
 4799              		.loc 1 1014 9 view .LVU1078
1015:Core/Src/esp32.c ****         lwrb_find(&Buffs.RxBuffer, (void*)search_str, strlen(search_str), 0, &search_idx);
 4800              		.loc 1 1015 9 view .LVU1079
1015:Core/Src/esp32.c ****         lwrb_find(&Buffs.RxBuffer, (void*)search_str, strlen(search_str), 0, &search_idx);
 4801              		.loc 1 1015 16 is_stmt 0 view .LVU1080
 4802 004c 0023     		movs	r3, #0
 4803 004e 0293     		str	r3, [sp, #8]
1016:Core/Src/esp32.c ****         if(!lwrb_find(&Buffs.RxBuffer, (void*)search_year, strlen(search_year), search_idx, &search
 4804              		.loc 1 1016 9 is_stmt 1 view .LVU1081
 4805 0050 A5F21445 		subw	r5, r5, #1044
 4806 0054 02AE     		add	r6, sp, #8
 4807 0056 0096     		str	r6, [sp]
 4808 0058 0D22     		movs	r2, #13
 4809 005a 0B49     		ldr	r1, .L337+16
 4810 005c 2846     		mov	r0, r5
 4811 005e FFF7FEFF 		bl	lwrb_find
 4812              	.LVL381:
1017:Core/Src/esp32.c ****             break;
 4813              		.loc 1 1017 9 view .LVU1082
1017:Core/Src/esp32.c ****             break;
 4814              		.loc 1 1017 13 is_stmt 0 view .LVU1083
 4815 0062 0096     		str	r6, [sp]
 4816 0064 029B     		ldr	r3, [sp, #8]
 4817 0066 0422     		movs	r2, #4
 4818 0068 0849     		ldr	r1, .L337+20
 4819 006a 2846     		mov	r0, r5
 4820 006c FFF7FEFF 		bl	lwrb_find
 4821              	.LVL382:
1017:Core/Src/esp32.c ****             break;
 4822              		.loc 1 1017 11 view .LVU1084
 4823 0070 0028     		cmp	r0, #0
 4824 0072 D7D1     		bne	.L334
ARM GAS  /var/folders/9y/n02fl3g16gnf7ppy14xghdy80000gn/T//ccqH5YoF.s 			page 115


 4825 0074 D5E7     		b	.L333
 4826              	.L338:
 4827 0076 00BF     		.align	2
 4828              	.L337:
 4829 0078 140C0000 		.word	Buffs+3092
 4830 007c 00000000 		.word	.LC58
 4831 0080 0C000000 		.word	.LC2
 4832 0084 08000000 		.word	.LC1
 4833 0088 14000000 		.word	.LC59
 4834 008c 24000000 		.word	.LC60
 4835              	.LBE16:
 4836              		.cfi_endproc
 4837              	.LFE1197:
 4839              		.section	.rodata.SNTP_Init.str1.4,"aMS",%progbits,1
 4840              		.align	2
 4841              	.LC61:
 4842 0000 706F6F6C 		.ascii	"pool.ntp.org\000"
 4842      2E6E7470 
 4842      2E6F7267 
 4842      00
 4843              		.section	.text.SNTP_Init,"ax",%progbits
 4844              		.align	1
 4845              		.global	SNTP_Init
 4846              		.syntax unified
 4847              		.thumb
 4848              		.thumb_func
 4849              		.fpu fpv4-sp-d16
 4851              	SNTP_Init:
 4852              	.LFB1195:
 947:Core/Src/esp32.c ****     SNTP.enable = 1;
 4853              		.loc 1 947 1 is_stmt 1 view -0
 4854              		.cfi_startproc
 4855              		@ args = 0, pretend = 0, frame = 0
 4856              		@ frame_needed = 0, uses_anonymous_args = 0
 4857 0000 08B5     		push	{r3, lr}
 4858              		.cfi_def_cfa_offset 8
 4859              		.cfi_offset 3, -8
 4860              		.cfi_offset 14, -4
 948:Core/Src/esp32.c ****     SNTP.timezone = -7;
 4861              		.loc 1 948 5 view .LVU1086
 948:Core/Src/esp32.c ****     SNTP.timezone = -7;
 4862              		.loc 1 948 17 is_stmt 0 view .LVU1087
 4863 0002 094B     		ldr	r3, .L343
 4864 0004 0122     		movs	r2, #1
 4865 0006 1A70     		strb	r2, [r3]
 949:Core/Src/esp32.c ****     SNTP.server1 = "pool.ntp.org";
 4866              		.loc 1 949 5 is_stmt 1 view .LVU1088
 949:Core/Src/esp32.c ****     SNTP.server1 = "pool.ntp.org";
 4867              		.loc 1 949 19 is_stmt 0 view .LVU1089
 4868 0008 F922     		movs	r2, #249
 4869 000a 9A70     		strb	r2, [r3, #2]
 950:Core/Src/esp32.c **** 
 4870              		.loc 1 950 5 is_stmt 1 view .LVU1090
 950:Core/Src/esp32.c **** 
 4871              		.loc 1 950 18 is_stmt 0 view .LVU1091
 4872 000c 074A     		ldr	r2, .L343+4
 4873 000e 5A60     		str	r2, [r3, #4]
ARM GAS  /var/folders/9y/n02fl3g16gnf7ppy14xghdy80000gn/T//ccqH5YoF.s 			page 116


 952:Core/Src/esp32.c ****     while (!SNTP_TimeUpdated())
 4874              		.loc 1 952 5 is_stmt 1 view .LVU1092
 952:Core/Src/esp32.c ****     while (!SNTP_TimeUpdated())
 4875              		.loc 1 952 23 is_stmt 0 view .LVU1093
 4876 0010 0022     		movs	r2, #0
 4877 0012 5A70     		strb	r2, [r3, #1]
 953:Core/Src/esp32.c ****         SNTP_SetTimeZone(1);
 4878              		.loc 1 953 5 is_stmt 1 view .LVU1094
 953:Core/Src/esp32.c ****         SNTP_SetTimeZone(1);
 4879              		.loc 1 953 11 is_stmt 0 view .LVU1095
 4880 0014 02E0     		b	.L340
 4881              	.L341:
 954:Core/Src/esp32.c ****     return true;
 4882              		.loc 1 954 9 is_stmt 1 view .LVU1096
 4883 0016 0120     		movs	r0, #1
 4884 0018 FFF7FEFF 		bl	SNTP_SetTimeZone
 4885              	.LVL383:
 4886              	.L340:
 953:Core/Src/esp32.c ****         SNTP_SetTimeZone(1);
 4887              		.loc 1 953 11 view .LVU1097
 953:Core/Src/esp32.c ****         SNTP_SetTimeZone(1);
 4888              		.loc 1 953 13 is_stmt 0 view .LVU1098
 4889 001c FFF7FEFF 		bl	SNTP_TimeUpdated
 4890              	.LVL384:
 953:Core/Src/esp32.c ****         SNTP_SetTimeZone(1);
 4891              		.loc 1 953 11 view .LVU1099
 4892 0020 0028     		cmp	r0, #0
 4893 0022 F8D0     		beq	.L341
 955:Core/Src/esp32.c **** }
 4894              		.loc 1 955 5 is_stmt 1 view .LVU1100
 956:Core/Src/esp32.c **** // ################################################################################################
 4895              		.loc 1 956 1 is_stmt 0 view .LVU1101
 4896 0024 0120     		movs	r0, #1
 4897 0026 08BD     		pop	{r3, pc}
 4898              	.L344:
 4899              		.align	2
 4900              	.L343:
 4901 0028 00000000 		.word	.LANCHOR1
 4902 002c 00000000 		.word	.LC61
 4903              		.cfi_endproc
 4904              	.LFE1195:
 4906              		.section	.rodata.MQTT_SetUserConfig.str1.4,"aMS",%progbits,1
 4907              		.align	2
 4908              	.LC62:
 4909 0000 41542B4D 		.ascii	"AT+MQTTUSERCFG=%u,%d,\"%s\",\"%s\",\"%s\",0,0,\"%s\""
 4909      51545455 
 4909      53455243 
 4909      46473D25 
 4909      752C2564 
 4910 002c 0D0A00   		.ascii	"\015\012\000"
 4911              		.section	.text.MQTT_SetUserConfig,"ax",%progbits
 4912              		.align	1
 4913              		.global	MQTT_SetUserConfig
 4914              		.syntax unified
 4915              		.thumb
 4916              		.thumb_func
 4917              		.fpu fpv4-sp-d16
ARM GAS  /var/folders/9y/n02fl3g16gnf7ppy14xghdy80000gn/T//ccqH5YoF.s 			page 117


 4919              	MQTT_SetUserConfig:
 4920              	.LFB1199:
1028:Core/Src/esp32.c **** bool MQTT_Init(void)
1029:Core/Src/esp32.c **** {
1030:Core/Src/esp32.c ****     uint32_t(*unique_id_1) = (uint32_t *)(UID_BASE);      // BASE address
1031:Core/Src/esp32.c ****     uint32_t(*unique_id_2) = (uint32_t *)(UID_BASE + 4);  // BASE address + 0x04 offset
1032:Core/Src/esp32.c ****     uint32_t(*unique_id_3) = (uint32_t *)(UID_BASE + 14); // BASE address + 0x14 0ffset
1033:Core/Src/esp32.c **** 
1034:Core/Src/esp32.c ****     MQTT_GetConnection();
1035:Core/Src/esp32.c ****     if (!MQTT.connected)
1036:Core/Src/esp32.c ****     {
1037:Core/Src/esp32.c ****         MQTT.link_id = 0;
1038:Core/Src/esp32.c ****         MQTT.scheme = MQTTSchemes_TlsBothCert;
1039:Core/Src/esp32.c ****         sprintf(MQTT.client_id, "%p%p%p", unique_id_1, unique_id_2, unique_id_3);
1040:Core/Src/esp32.c ****         strcpy(MQTT.username, "Jpwolfe");
1041:Core/Src/esp32.c ****         strcpy(MQTT.password, "1234567890");
1042:Core/Src/esp32.c ****         strcpy(MQTT.host, "a1k7aswhvntcg-ats.iot.us-west-1.amazonaws.com");
1043:Core/Src/esp32.c ****         MQTT.port = 8883;
1044:Core/Src/esp32.c ****         MQTT.reconnect = 1;
1045:Core/Src/esp32.c ****         strcpy(MQTT.path, "");
1046:Core/Src/esp32.c **** 
1047:Core/Src/esp32.c ****         MQTT_SetUserConfig();
1048:Core/Src/esp32.c ****         MQTT_Connect();
1049:Core/Src/esp32.c ****         MQTT_GetConnection();
1050:Core/Src/esp32.c ****     }
1051:Core/Src/esp32.c ****     return true;
1052:Core/Src/esp32.c **** }
1053:Core/Src/esp32.c **** 
1054:Core/Src/esp32.c **** // ################################################################################################
1055:Core/Src/esp32.c **** bool MQTT_SetUserConfig(void)
1056:Core/Src/esp32.c **** {
 4921              		.loc 1 1056 1 is_stmt 1 view -0
 4922              		.cfi_startproc
 4923              		@ args = 0, pretend = 0, frame = 8
 4924              		@ frame_needed = 0, uses_anonymous_args = 0
 4925 0000 10B5     		push	{r4, lr}
 4926              		.cfi_def_cfa_offset 8
 4927              		.cfi_offset 4, -8
 4928              		.cfi_offset 14, -4
 4929 0002 86B0     		sub	sp, sp, #24
 4930              		.cfi_def_cfa_offset 32
1057:Core/Src/esp32.c ****     uint8_t result;
 4931              		.loc 1 1057 5 view .LVU1103
1058:Core/Src/esp32.c ****     bool returnVal = false;
 4932              		.loc 1 1058 5 view .LVU1104
 4933              	.LVL385:
1059:Core/Src/esp32.c ****     do
 4934              		.loc 1 1059 5 view .LVU1105
1060:Core/Src/esp32.c ****     {
1061:Core/Src/esp32.c ****         Wifi_RxClear();
 4935              		.loc 1 1061 9 view .LVU1106
 4936 0004 FFF7FEFF 		bl	Wifi_RxClear
 4937              	.LVL386:
1062:Core/Src/esp32.c ****         // memset(Buffs.TxBuffer, '\0', sizeof(Buffs.TxBuffer));
1063:Core/Src/esp32.c ****         sprintf((char *)Buffs.TxBuffer, "AT+MQTTUSERCFG=%u,%d,\"%s\",\"%s\",\"%s\",0,0,\"%s\"\r\n",
 4938              		.loc 1 1063 9 view .LVU1107
 4939              		.loc 1 1063 105 is_stmt 0 view .LVU1108
ARM GAS  /var/folders/9y/n02fl3g16gnf7ppy14xghdy80000gn/T//ccqH5YoF.s 			page 118


 4940 0008 154A     		ldr	r2, .L349
 4941              		.loc 1 1063 9 view .LVU1109
 4942 000a 164C     		ldr	r4, .L349+4
 4943 000c 02F50073 		add	r3, r2, #512
 4944 0010 0393     		str	r3, [sp, #12]
 4945 0012 02F5A073 		add	r3, r2, #320
 4946 0016 0293     		str	r3, [sp, #8]
 4947 0018 02F58073 		add	r3, r2, #256
 4948 001c 0193     		str	r3, [sp, #4]
 4949 001e 0092     		str	r2, [sp]
 4950 0020 92F82132 		ldrb	r3, [r2, #545]	@ zero_extendqisi2
 4951 0024 92F82422 		ldrb	r2, [r2, #548]	@ zero_extendqisi2
 4952 0028 0F49     		ldr	r1, .L349+8
 4953 002a 2046     		mov	r0, r4
 4954 002c FFF7FEFF 		bl	sprintf
 4955              	.LVL387:
1064:Core/Src/esp32.c ****         if (Wifi_SendString((char *)Buffs.TxBuffer) == false)
 4956              		.loc 1 1064 9 is_stmt 1 view .LVU1110
 4957              		.loc 1 1064 13 is_stmt 0 view .LVU1111
 4958 0030 2046     		mov	r0, r4
 4959 0032 FFF7FEFF 		bl	Wifi_SendString
 4960              	.LVL388:
 4961              		.loc 1 1064 12 view .LVU1112
 4962 0036 08B9     		cbnz	r0, .L348
 4963              	.L346:
 4964              	.LVL389:
1065:Core/Src/esp32.c ****             break;
1066:Core/Src/esp32.c ****         if (Wifi_WaitForString(_WIFI_WAIT_TIME_LOW, &result, 2, "OK", "ERROR") == false)
1067:Core/Src/esp32.c ****             break;       // The timeout was completed and the string was not there
1068:Core/Src/esp32.c ****         if (result == 2) // It was find the "ERROR" String in the receiving information
1069:Core/Src/esp32.c ****             break;
1070:Core/Src/esp32.c ****         returnVal = true;
1071:Core/Src/esp32.c ****     } while (0);
 4965              		.loc 1 1071 13 is_stmt 1 view .LVU1113
1072:Core/Src/esp32.c ****     return returnVal;
 4966              		.loc 1 1072 5 view .LVU1114
1073:Core/Src/esp32.c **** }
 4967              		.loc 1 1073 1 is_stmt 0 view .LVU1115
 4968 0038 06B0     		add	sp, sp, #24
 4969              		.cfi_remember_state
 4970              		.cfi_def_cfa_offset 8
 4971              		@ sp needed
 4972 003a 10BD     		pop	{r4, pc}
 4973              	.LVL390:
 4974              	.L348:
 4975              		.cfi_restore_state
1066:Core/Src/esp32.c ****             break;       // The timeout was completed and the string was not there
 4976              		.loc 1 1066 9 is_stmt 1 view .LVU1116
1066:Core/Src/esp32.c ****             break;       // The timeout was completed and the string was not there
 4977              		.loc 1 1066 13 is_stmt 0 view .LVU1117
 4978 003c 0B4B     		ldr	r3, .L349+12
 4979 003e 0093     		str	r3, [sp]
 4980 0040 0B4B     		ldr	r3, .L349+16
 4981 0042 0222     		movs	r2, #2
 4982 0044 0DF11701 		add	r1, sp, #23
 4983 0048 4FF47A70 		mov	r0, #1000
 4984 004c FFF7FEFF 		bl	Wifi_WaitForString
ARM GAS  /var/folders/9y/n02fl3g16gnf7ppy14xghdy80000gn/T//ccqH5YoF.s 			page 119


 4985              	.LVL391:
1066:Core/Src/esp32.c ****             break;       // The timeout was completed and the string was not there
 4986              		.loc 1 1066 12 view .LVU1118
 4987 0050 0028     		cmp	r0, #0
 4988 0052 F1D0     		beq	.L346
1068:Core/Src/esp32.c ****             break;
 4989              		.loc 1 1068 9 is_stmt 1 view .LVU1119
1068:Core/Src/esp32.c ****             break;
 4990              		.loc 1 1068 20 is_stmt 0 view .LVU1120
 4991 0054 9DF81730 		ldrb	r3, [sp, #23]	@ zero_extendqisi2
1068:Core/Src/esp32.c ****             break;
 4992              		.loc 1 1068 12 view .LVU1121
 4993 0058 022B     		cmp	r3, #2
 4994 005a EDD1     		bne	.L346
1058:Core/Src/esp32.c ****     do
 4995              		.loc 1 1058 10 view .LVU1122
 4996 005c 0020     		movs	r0, #0
 4997 005e EBE7     		b	.L346
 4998              	.L350:
 4999              		.align	2
 5000              	.L349:
 5001 0060 00000000 		.word	.LANCHOR2
 5002 0064 140C0000 		.word	Buffs+3092
 5003 0068 00000000 		.word	.LC62
 5004 006c 0C000000 		.word	.LC2
 5005 0070 08000000 		.word	.LC1
 5006              		.cfi_endproc
 5007              	.LFE1199:
 5009              		.section	.rodata.MQTT_SetClientID.str1.4,"aMS",%progbits,1
 5010              		.align	2
 5011              	.LC63:
 5012 0000 41542B4D 		.ascii	"AT+MQTTCLIENTID=%u,\"%s\"\015\012\000"
 5012      51545443 
 5012      4C49454E 
 5012      5449443D 
 5012      25752C22 
 5013              		.section	.text.MQTT_SetClientID,"ax",%progbits
 5014              		.align	1
 5015              		.global	MQTT_SetClientID
 5016              		.syntax unified
 5017              		.thumb
 5018              		.thumb_func
 5019              		.fpu fpv4-sp-d16
 5021              	MQTT_SetClientID:
 5022              	.LFB1200:
1074:Core/Src/esp32.c **** // ################################################################################################
1075:Core/Src/esp32.c **** bool MQTT_SetClientID(void)
1076:Core/Src/esp32.c **** {
 5023              		.loc 1 1076 1 is_stmt 1 view -0
 5024              		.cfi_startproc
 5025              		@ args = 0, pretend = 0, frame = 8
 5026              		@ frame_needed = 0, uses_anonymous_args = 0
 5027 0000 10B5     		push	{r4, lr}
 5028              		.cfi_def_cfa_offset 8
 5029              		.cfi_offset 4, -8
 5030              		.cfi_offset 14, -4
 5031 0002 84B0     		sub	sp, sp, #16
ARM GAS  /var/folders/9y/n02fl3g16gnf7ppy14xghdy80000gn/T//ccqH5YoF.s 			page 120


 5032              		.cfi_def_cfa_offset 24
1077:Core/Src/esp32.c ****     uint8_t result;
 5033              		.loc 1 1077 5 view .LVU1124
1078:Core/Src/esp32.c ****     bool returnVal = false;
 5034              		.loc 1 1078 5 view .LVU1125
 5035              	.LVL392:
1079:Core/Src/esp32.c ****     do
 5036              		.loc 1 1079 5 view .LVU1126
1080:Core/Src/esp32.c ****     {
1081:Core/Src/esp32.c ****         Wifi_RxClear();
 5037              		.loc 1 1081 9 view .LVU1127
 5038 0004 FFF7FEFF 		bl	Wifi_RxClear
 5039              	.LVL393:
1082:Core/Src/esp32.c ****         sprintf((char *)Buffs.TxBuffer, "AT+MQTTCLIENTID=%u,\"%s\"\r\n", MQTT.link_id, MQTT.client_
 5040              		.loc 1 1082 9 view .LVU1128
 5041              		.loc 1 1082 78 is_stmt 0 view .LVU1129
 5042 0008 0F4B     		ldr	r3, .L355
 5043              		.loc 1 1082 9 view .LVU1130
 5044 000a 104C     		ldr	r4, .L355+4
 5045 000c 93F82422 		ldrb	r2, [r3, #548]	@ zero_extendqisi2
 5046 0010 0F49     		ldr	r1, .L355+8
 5047 0012 2046     		mov	r0, r4
 5048 0014 FFF7FEFF 		bl	sprintf
 5049              	.LVL394:
1083:Core/Src/esp32.c ****         if (Wifi_SendString((char *)Buffs.TxBuffer) == false)
 5050              		.loc 1 1083 9 is_stmt 1 view .LVU1131
 5051              		.loc 1 1083 13 is_stmt 0 view .LVU1132
 5052 0018 2046     		mov	r0, r4
 5053 001a FFF7FEFF 		bl	Wifi_SendString
 5054              	.LVL395:
 5055              		.loc 1 1083 12 view .LVU1133
 5056 001e 08B9     		cbnz	r0, .L354
 5057              	.L352:
 5058              	.LVL396:
1084:Core/Src/esp32.c ****             break;
1085:Core/Src/esp32.c ****         if (Wifi_WaitForString(_WIFI_WAIT_TIME_LOW, &result, 2, "OK", "ERROR") == false)
1086:Core/Src/esp32.c ****             break;       // The timeout was completed and the string was not there
1087:Core/Src/esp32.c ****         if (result == 2) // It was find the "ERROR" String in the receiving information
1088:Core/Src/esp32.c ****             break;
1089:Core/Src/esp32.c ****         returnVal = true;
1090:Core/Src/esp32.c ****     } while (0);
 5059              		.loc 1 1090 13 is_stmt 1 view .LVU1134
1091:Core/Src/esp32.c ****     return returnVal;
 5060              		.loc 1 1091 5 view .LVU1135
1092:Core/Src/esp32.c **** }
 5061              		.loc 1 1092 1 is_stmt 0 view .LVU1136
 5062 0020 04B0     		add	sp, sp, #16
 5063              		.cfi_remember_state
 5064              		.cfi_def_cfa_offset 8
 5065              		@ sp needed
 5066 0022 10BD     		pop	{r4, pc}
 5067              	.LVL397:
 5068              	.L354:
 5069              		.cfi_restore_state
1085:Core/Src/esp32.c ****             break;       // The timeout was completed and the string was not there
 5070              		.loc 1 1085 9 is_stmt 1 view .LVU1137
1085:Core/Src/esp32.c ****             break;       // The timeout was completed and the string was not there
ARM GAS  /var/folders/9y/n02fl3g16gnf7ppy14xghdy80000gn/T//ccqH5YoF.s 			page 121


 5071              		.loc 1 1085 13 is_stmt 0 view .LVU1138
 5072 0024 0B4B     		ldr	r3, .L355+12
 5073 0026 0093     		str	r3, [sp]
 5074 0028 0B4B     		ldr	r3, .L355+16
 5075 002a 0222     		movs	r2, #2
 5076 002c 0DF10F01 		add	r1, sp, #15
 5077 0030 4FF47A70 		mov	r0, #1000
 5078 0034 FFF7FEFF 		bl	Wifi_WaitForString
 5079              	.LVL398:
1085:Core/Src/esp32.c ****             break;       // The timeout was completed and the string was not there
 5080              		.loc 1 1085 12 view .LVU1139
 5081 0038 0028     		cmp	r0, #0
 5082 003a F1D0     		beq	.L352
1087:Core/Src/esp32.c ****             break;
 5083              		.loc 1 1087 9 is_stmt 1 view .LVU1140
1087:Core/Src/esp32.c ****             break;
 5084              		.loc 1 1087 20 is_stmt 0 view .LVU1141
 5085 003c 9DF80F30 		ldrb	r3, [sp, #15]	@ zero_extendqisi2
1087:Core/Src/esp32.c ****             break;
 5086              		.loc 1 1087 12 view .LVU1142
 5087 0040 022B     		cmp	r3, #2
 5088 0042 EDD1     		bne	.L352
1078:Core/Src/esp32.c ****     do
 5089              		.loc 1 1078 10 view .LVU1143
 5090 0044 0020     		movs	r0, #0
 5091 0046 EBE7     		b	.L352
 5092              	.L356:
 5093              		.align	2
 5094              	.L355:
 5095 0048 00000000 		.word	.LANCHOR2
 5096 004c 140C0000 		.word	Buffs+3092
 5097 0050 00000000 		.word	.LC63
 5098 0054 0C000000 		.word	.LC2
 5099 0058 08000000 		.word	.LC1
 5100              		.cfi_endproc
 5101              	.LFE1200:
 5103              		.section	.rodata.MQTT_SetUsername.str1.4,"aMS",%progbits,1
 5104              		.align	2
 5105              	.LC64:
 5106 0000 41542B4D 		.ascii	"AT+MQTTUSERNAME=%u,\"%s\"\015\012\000"
 5106      51545455 
 5106      5345524E 
 5106      414D453D 
 5106      25752C22 
 5107              		.section	.text.MQTT_SetUsername,"ax",%progbits
 5108              		.align	1
 5109              		.global	MQTT_SetUsername
 5110              		.syntax unified
 5111              		.thumb
 5112              		.thumb_func
 5113              		.fpu fpv4-sp-d16
 5115              	MQTT_SetUsername:
 5116              	.LFB1201:
1093:Core/Src/esp32.c **** // ################################################################################################
1094:Core/Src/esp32.c **** bool MQTT_SetUsername(void)
1095:Core/Src/esp32.c **** {
 5117              		.loc 1 1095 1 is_stmt 1 view -0
ARM GAS  /var/folders/9y/n02fl3g16gnf7ppy14xghdy80000gn/T//ccqH5YoF.s 			page 122


 5118              		.cfi_startproc
 5119              		@ args = 0, pretend = 0, frame = 8
 5120              		@ frame_needed = 0, uses_anonymous_args = 0
 5121 0000 10B5     		push	{r4, lr}
 5122              		.cfi_def_cfa_offset 8
 5123              		.cfi_offset 4, -8
 5124              		.cfi_offset 14, -4
 5125 0002 84B0     		sub	sp, sp, #16
 5126              		.cfi_def_cfa_offset 24
1096:Core/Src/esp32.c ****     uint8_t result;
 5127              		.loc 1 1096 5 view .LVU1145
1097:Core/Src/esp32.c ****     bool returnVal = false;
 5128              		.loc 1 1097 5 view .LVU1146
 5129              	.LVL399:
1098:Core/Src/esp32.c ****     do
 5130              		.loc 1 1098 5 view .LVU1147
1099:Core/Src/esp32.c ****     {
1100:Core/Src/esp32.c ****         Wifi_RxClear();
 5131              		.loc 1 1100 9 view .LVU1148
 5132 0004 FFF7FEFF 		bl	Wifi_RxClear
 5133              	.LVL400:
1101:Core/Src/esp32.c ****         sprintf((char *)Buffs.TxBuffer, "AT+MQTTUSERNAME=%u,\"%s\"\r\n", MQTT.link_id, MQTT.usernam
 5134              		.loc 1 1101 9 view .LVU1149
 5135              		.loc 1 1101 78 is_stmt 0 view .LVU1150
 5136 0008 104A     		ldr	r2, .L361
 5137              		.loc 1 1101 9 view .LVU1151
 5138 000a 114C     		ldr	r4, .L361+4
 5139 000c 02F58073 		add	r3, r2, #256
 5140 0010 92F82422 		ldrb	r2, [r2, #548]	@ zero_extendqisi2
 5141 0014 0F49     		ldr	r1, .L361+8
 5142 0016 2046     		mov	r0, r4
 5143 0018 FFF7FEFF 		bl	sprintf
 5144              	.LVL401:
1102:Core/Src/esp32.c ****         if (Wifi_SendString((char *)Buffs.TxBuffer) == false)
 5145              		.loc 1 1102 9 is_stmt 1 view .LVU1152
 5146              		.loc 1 1102 13 is_stmt 0 view .LVU1153
 5147 001c 2046     		mov	r0, r4
 5148 001e FFF7FEFF 		bl	Wifi_SendString
 5149              	.LVL402:
 5150              		.loc 1 1102 12 view .LVU1154
 5151 0022 08B9     		cbnz	r0, .L360
 5152              	.L358:
 5153              	.LVL403:
1103:Core/Src/esp32.c ****             break;
1104:Core/Src/esp32.c ****         if (Wifi_WaitForString(_WIFI_WAIT_TIME_LOW, &result, 2, "OK", "ERROR") == false)
1105:Core/Src/esp32.c ****             break;       // The timeout was completed and the string was not there
1106:Core/Src/esp32.c ****         if (result == 2) // It was find the "ERROR" String in the receiving information
1107:Core/Src/esp32.c ****             break;
1108:Core/Src/esp32.c ****         returnVal = true;
1109:Core/Src/esp32.c ****     } while (0);
 5154              		.loc 1 1109 13 is_stmt 1 view .LVU1155
1110:Core/Src/esp32.c ****     return returnVal;
 5155              		.loc 1 1110 5 view .LVU1156
1111:Core/Src/esp32.c **** }
 5156              		.loc 1 1111 1 is_stmt 0 view .LVU1157
 5157 0024 04B0     		add	sp, sp, #16
 5158              		.cfi_remember_state
ARM GAS  /var/folders/9y/n02fl3g16gnf7ppy14xghdy80000gn/T//ccqH5YoF.s 			page 123


 5159              		.cfi_def_cfa_offset 8
 5160              		@ sp needed
 5161 0026 10BD     		pop	{r4, pc}
 5162              	.LVL404:
 5163              	.L360:
 5164              		.cfi_restore_state
1104:Core/Src/esp32.c ****             break;       // The timeout was completed and the string was not there
 5165              		.loc 1 1104 9 is_stmt 1 view .LVU1158
1104:Core/Src/esp32.c ****             break;       // The timeout was completed and the string was not there
 5166              		.loc 1 1104 13 is_stmt 0 view .LVU1159
 5167 0028 0B4B     		ldr	r3, .L361+12
 5168 002a 0093     		str	r3, [sp]
 5169 002c 0B4B     		ldr	r3, .L361+16
 5170 002e 0222     		movs	r2, #2
 5171 0030 0DF10F01 		add	r1, sp, #15
 5172 0034 4FF47A70 		mov	r0, #1000
 5173 0038 FFF7FEFF 		bl	Wifi_WaitForString
 5174              	.LVL405:
1104:Core/Src/esp32.c ****             break;       // The timeout was completed and the string was not there
 5175              		.loc 1 1104 12 view .LVU1160
 5176 003c 0028     		cmp	r0, #0
 5177 003e F1D0     		beq	.L358
1106:Core/Src/esp32.c ****             break;
 5178              		.loc 1 1106 9 is_stmt 1 view .LVU1161
1106:Core/Src/esp32.c ****             break;
 5179              		.loc 1 1106 20 is_stmt 0 view .LVU1162
 5180 0040 9DF80F30 		ldrb	r3, [sp, #15]	@ zero_extendqisi2
1106:Core/Src/esp32.c ****             break;
 5181              		.loc 1 1106 12 view .LVU1163
 5182 0044 022B     		cmp	r3, #2
 5183 0046 EDD1     		bne	.L358
1097:Core/Src/esp32.c ****     do
 5184              		.loc 1 1097 10 view .LVU1164
 5185 0048 0020     		movs	r0, #0
 5186 004a EBE7     		b	.L358
 5187              	.L362:
 5188              		.align	2
 5189              	.L361:
 5190 004c 00000000 		.word	.LANCHOR2
 5191 0050 140C0000 		.word	Buffs+3092
 5192 0054 00000000 		.word	.LC64
 5193 0058 0C000000 		.word	.LC2
 5194 005c 08000000 		.word	.LC1
 5195              		.cfi_endproc
 5196              	.LFE1201:
 5198              		.section	.rodata.MQTT_SetPassword.str1.4,"aMS",%progbits,1
 5199              		.align	2
 5200              	.LC65:
 5201 0000 41542B4D 		.ascii	"AT+MQTTPASSWORD=%u,\"%s\"\015\012\000"
 5201      51545450 
 5201      41535357 
 5201      4F52443D 
 5201      25752C22 
 5202              		.section	.text.MQTT_SetPassword,"ax",%progbits
 5203              		.align	1
 5204              		.global	MQTT_SetPassword
 5205              		.syntax unified
ARM GAS  /var/folders/9y/n02fl3g16gnf7ppy14xghdy80000gn/T//ccqH5YoF.s 			page 124


 5206              		.thumb
 5207              		.thumb_func
 5208              		.fpu fpv4-sp-d16
 5210              	MQTT_SetPassword:
 5211              	.LFB1202:
1112:Core/Src/esp32.c **** // ################################################################################################
1113:Core/Src/esp32.c **** bool MQTT_SetPassword(void)
1114:Core/Src/esp32.c **** {
 5212              		.loc 1 1114 1 is_stmt 1 view -0
 5213              		.cfi_startproc
 5214              		@ args = 0, pretend = 0, frame = 8
 5215              		@ frame_needed = 0, uses_anonymous_args = 0
 5216 0000 10B5     		push	{r4, lr}
 5217              		.cfi_def_cfa_offset 8
 5218              		.cfi_offset 4, -8
 5219              		.cfi_offset 14, -4
 5220 0002 84B0     		sub	sp, sp, #16
 5221              		.cfi_def_cfa_offset 24
1115:Core/Src/esp32.c ****     uint8_t result;
 5222              		.loc 1 1115 5 view .LVU1166
1116:Core/Src/esp32.c ****     bool returnVal = false;
 5223              		.loc 1 1116 5 view .LVU1167
 5224              	.LVL406:
1117:Core/Src/esp32.c ****     do
 5225              		.loc 1 1117 5 view .LVU1168
1118:Core/Src/esp32.c ****     {
1119:Core/Src/esp32.c ****         Wifi_RxClear();
 5226              		.loc 1 1119 9 view .LVU1169
 5227 0004 FFF7FEFF 		bl	Wifi_RxClear
 5228              	.LVL407:
1120:Core/Src/esp32.c ****         sprintf((char *)Buffs.TxBuffer, "AT+MQTTPASSWORD=%u,\"%s\"\r\n", MQTT.link_id, MQTT.passwor
 5229              		.loc 1 1120 9 view .LVU1170
 5230              		.loc 1 1120 78 is_stmt 0 view .LVU1171
 5231 0008 104A     		ldr	r2, .L367
 5232              		.loc 1 1120 9 view .LVU1172
 5233 000a 114C     		ldr	r4, .L367+4
 5234 000c 02F5A073 		add	r3, r2, #320
 5235 0010 92F82422 		ldrb	r2, [r2, #548]	@ zero_extendqisi2
 5236 0014 0F49     		ldr	r1, .L367+8
 5237 0016 2046     		mov	r0, r4
 5238 0018 FFF7FEFF 		bl	sprintf
 5239              	.LVL408:
1121:Core/Src/esp32.c ****         if (Wifi_SendString((char *)Buffs.TxBuffer) == false)
 5240              		.loc 1 1121 9 is_stmt 1 view .LVU1173
 5241              		.loc 1 1121 13 is_stmt 0 view .LVU1174
 5242 001c 2046     		mov	r0, r4
 5243 001e FFF7FEFF 		bl	Wifi_SendString
 5244              	.LVL409:
 5245              		.loc 1 1121 12 view .LVU1175
 5246 0022 08B9     		cbnz	r0, .L366
 5247              	.L364:
 5248              	.LVL410:
1122:Core/Src/esp32.c ****             break;
1123:Core/Src/esp32.c ****         if (Wifi_WaitForString(_WIFI_WAIT_TIME_LOW, &result, 2, "OK", "ERROR") == false)
1124:Core/Src/esp32.c ****             break;       // The timeout was completed and the string was not there
1125:Core/Src/esp32.c ****         if (result == 2) // It was find the "ERROR" String in the receiving information
1126:Core/Src/esp32.c ****             break;
ARM GAS  /var/folders/9y/n02fl3g16gnf7ppy14xghdy80000gn/T//ccqH5YoF.s 			page 125


1127:Core/Src/esp32.c ****         returnVal = true;
1128:Core/Src/esp32.c ****     } while (0);
 5249              		.loc 1 1128 13 is_stmt 1 view .LVU1176
1129:Core/Src/esp32.c ****     return returnVal;
 5250              		.loc 1 1129 5 view .LVU1177
1130:Core/Src/esp32.c **** }
 5251              		.loc 1 1130 1 is_stmt 0 view .LVU1178
 5252 0024 04B0     		add	sp, sp, #16
 5253              		.cfi_remember_state
 5254              		.cfi_def_cfa_offset 8
 5255              		@ sp needed
 5256 0026 10BD     		pop	{r4, pc}
 5257              	.LVL411:
 5258              	.L366:
 5259              		.cfi_restore_state
1123:Core/Src/esp32.c ****             break;       // The timeout was completed and the string was not there
 5260              		.loc 1 1123 9 is_stmt 1 view .LVU1179
1123:Core/Src/esp32.c ****             break;       // The timeout was completed and the string was not there
 5261              		.loc 1 1123 13 is_stmt 0 view .LVU1180
 5262 0028 0B4B     		ldr	r3, .L367+12
 5263 002a 0093     		str	r3, [sp]
 5264 002c 0B4B     		ldr	r3, .L367+16
 5265 002e 0222     		movs	r2, #2
 5266 0030 0DF10F01 		add	r1, sp, #15
 5267 0034 4FF47A70 		mov	r0, #1000
 5268 0038 FFF7FEFF 		bl	Wifi_WaitForString
 5269              	.LVL412:
1123:Core/Src/esp32.c ****             break;       // The timeout was completed and the string was not there
 5270              		.loc 1 1123 12 view .LVU1181
 5271 003c 0028     		cmp	r0, #0
 5272 003e F1D0     		beq	.L364
1125:Core/Src/esp32.c ****             break;
 5273              		.loc 1 1125 9 is_stmt 1 view .LVU1182
1125:Core/Src/esp32.c ****             break;
 5274              		.loc 1 1125 20 is_stmt 0 view .LVU1183
 5275 0040 9DF80F30 		ldrb	r3, [sp, #15]	@ zero_extendqisi2
1125:Core/Src/esp32.c ****             break;
 5276              		.loc 1 1125 12 view .LVU1184
 5277 0044 022B     		cmp	r3, #2
 5278 0046 EDD1     		bne	.L364
1116:Core/Src/esp32.c ****     do
 5279              		.loc 1 1116 10 view .LVU1185
 5280 0048 0020     		movs	r0, #0
 5281 004a EBE7     		b	.L364
 5282              	.L368:
 5283              		.align	2
 5284              	.L367:
 5285 004c 00000000 		.word	.LANCHOR2
 5286 0050 140C0000 		.word	Buffs+3092
 5287 0054 00000000 		.word	.LC65
 5288 0058 0C000000 		.word	.LC2
 5289 005c 08000000 		.word	.LC1
 5290              		.cfi_endproc
 5291              	.LFE1202:
 5293              		.section	.text.MQTT_SetConnectionConfig,"ax",%progbits
 5294              		.align	1
 5295              		.global	MQTT_SetConnectionConfig
ARM GAS  /var/folders/9y/n02fl3g16gnf7ppy14xghdy80000gn/T//ccqH5YoF.s 			page 126


 5296              		.syntax unified
 5297              		.thumb
 5298              		.thumb_func
 5299              		.fpu fpv4-sp-d16
 5301              	MQTT_SetConnectionConfig:
 5302              	.LFB1203:
1131:Core/Src/esp32.c **** // ################################################################################################
1132:Core/Src/esp32.c **** bool MQTT_SetConnectionConfig(void)
1133:Core/Src/esp32.c **** {
 5303              		.loc 1 1133 1 is_stmt 1 view -0
 5304              		.cfi_startproc
 5305              		@ args = 0, pretend = 0, frame = 8
 5306              		@ frame_needed = 0, uses_anonymous_args = 0
 5307 0000 10B5     		push	{r4, lr}
 5308              		.cfi_def_cfa_offset 8
 5309              		.cfi_offset 4, -8
 5310              		.cfi_offset 14, -4
 5311 0002 84B0     		sub	sp, sp, #16
 5312              		.cfi_def_cfa_offset 24
1134:Core/Src/esp32.c ****     uint8_t result;
 5313              		.loc 1 1134 5 view .LVU1187
1135:Core/Src/esp32.c ****     bool returnVal = false;
 5314              		.loc 1 1135 5 view .LVU1188
 5315              	.LVL413:
1136:Core/Src/esp32.c ****     do
 5316              		.loc 1 1136 5 view .LVU1189
1137:Core/Src/esp32.c ****     {
1138:Core/Src/esp32.c ****         Wifi_RxClear();
 5317              		.loc 1 1138 9 view .LVU1190
 5318 0004 FFF7FEFF 		bl	Wifi_RxClear
 5319              	.LVL414:
1139:Core/Src/esp32.c ****         sprintf((char *)Buffs.TxBuffer, "AT+MQTTPASSWORD=%u,\"%s\"\r\n", MQTT.link_id, MQTT.passwor
 5320              		.loc 1 1139 9 view .LVU1191
 5321              		.loc 1 1139 78 is_stmt 0 view .LVU1192
 5322 0008 104A     		ldr	r2, .L373
 5323              		.loc 1 1139 9 view .LVU1193
 5324 000a 114C     		ldr	r4, .L373+4
 5325 000c 02F5A073 		add	r3, r2, #320
 5326 0010 92F82422 		ldrb	r2, [r2, #548]	@ zero_extendqisi2
 5327 0014 0F49     		ldr	r1, .L373+8
 5328 0016 2046     		mov	r0, r4
 5329 0018 FFF7FEFF 		bl	sprintf
 5330              	.LVL415:
1140:Core/Src/esp32.c ****         if (Wifi_SendString((char *)Buffs.TxBuffer) == false)
 5331              		.loc 1 1140 9 is_stmt 1 view .LVU1194
 5332              		.loc 1 1140 13 is_stmt 0 view .LVU1195
 5333 001c 2046     		mov	r0, r4
 5334 001e FFF7FEFF 		bl	Wifi_SendString
 5335              	.LVL416:
 5336              		.loc 1 1140 12 view .LVU1196
 5337 0022 08B9     		cbnz	r0, .L372
 5338              	.L370:
 5339              	.LVL417:
1141:Core/Src/esp32.c ****             break;
1142:Core/Src/esp32.c ****         if (Wifi_WaitForString(_WIFI_WAIT_TIME_LOW, &result, 2, "OK", "ERROR") == false)
1143:Core/Src/esp32.c ****             break;       // The timeout was completed and the string was not there
1144:Core/Src/esp32.c ****         if (result == 2) // It was find the "ERROR" String in the receiving information
ARM GAS  /var/folders/9y/n02fl3g16gnf7ppy14xghdy80000gn/T//ccqH5YoF.s 			page 127


1145:Core/Src/esp32.c ****             break;
1146:Core/Src/esp32.c ****         returnVal = true;
1147:Core/Src/esp32.c ****     } while (0);
 5340              		.loc 1 1147 13 is_stmt 1 view .LVU1197
1148:Core/Src/esp32.c ****     return returnVal;
 5341              		.loc 1 1148 5 view .LVU1198
1149:Core/Src/esp32.c **** }
 5342              		.loc 1 1149 1 is_stmt 0 view .LVU1199
 5343 0024 04B0     		add	sp, sp, #16
 5344              		.cfi_remember_state
 5345              		.cfi_def_cfa_offset 8
 5346              		@ sp needed
 5347 0026 10BD     		pop	{r4, pc}
 5348              	.LVL418:
 5349              	.L372:
 5350              		.cfi_restore_state
1142:Core/Src/esp32.c ****             break;       // The timeout was completed and the string was not there
 5351              		.loc 1 1142 9 is_stmt 1 view .LVU1200
1142:Core/Src/esp32.c ****             break;       // The timeout was completed and the string was not there
 5352              		.loc 1 1142 13 is_stmt 0 view .LVU1201
 5353 0028 0B4B     		ldr	r3, .L373+12
 5354 002a 0093     		str	r3, [sp]
 5355 002c 0B4B     		ldr	r3, .L373+16
 5356 002e 0222     		movs	r2, #2
 5357 0030 0DF10F01 		add	r1, sp, #15
 5358 0034 4FF47A70 		mov	r0, #1000
 5359 0038 FFF7FEFF 		bl	Wifi_WaitForString
 5360              	.LVL419:
1142:Core/Src/esp32.c ****             break;       // The timeout was completed and the string was not there
 5361              		.loc 1 1142 12 view .LVU1202
 5362 003c 0028     		cmp	r0, #0
 5363 003e F1D0     		beq	.L370
1144:Core/Src/esp32.c ****             break;
 5364              		.loc 1 1144 9 is_stmt 1 view .LVU1203
1144:Core/Src/esp32.c ****             break;
 5365              		.loc 1 1144 20 is_stmt 0 view .LVU1204
 5366 0040 9DF80F30 		ldrb	r3, [sp, #15]	@ zero_extendqisi2
1144:Core/Src/esp32.c ****             break;
 5367              		.loc 1 1144 12 view .LVU1205
 5368 0044 022B     		cmp	r3, #2
 5369 0046 EDD1     		bne	.L370
1135:Core/Src/esp32.c ****     do
 5370              		.loc 1 1135 10 view .LVU1206
 5371 0048 0020     		movs	r0, #0
 5372 004a EBE7     		b	.L370
 5373              	.L374:
 5374              		.align	2
 5375              	.L373:
 5376 004c 00000000 		.word	.LANCHOR2
 5377 0050 140C0000 		.word	Buffs+3092
 5378 0054 00000000 		.word	.LC65
 5379 0058 0C000000 		.word	.LC2
 5380 005c 08000000 		.word	.LC1
 5381              		.cfi_endproc
 5382              	.LFE1203:
 5384              		.section	.rodata.MQTT_Connect.str1.4,"aMS",%progbits,1
 5385              		.align	2
ARM GAS  /var/folders/9y/n02fl3g16gnf7ppy14xghdy80000gn/T//ccqH5YoF.s 			page 128


 5386              	.LC66:
 5387 0000 41542B4D 		.ascii	"AT+MQTTCONN=%u,\"%s\",%u,%d\015\012\000"
 5387      51545443 
 5387      4F4E4E3D 
 5387      25752C22 
 5387      2573222C 
 5388              		.align	2
 5389              	.LC67:
 5390 001c 2B4D5154 		.ascii	"+MQTTCONNECTED\000"
 5390      54434F4E 
 5390      4E454354 
 5390      454400
 5391              		.section	.text.MQTT_Connect,"ax",%progbits
 5392              		.align	1
 5393              		.global	MQTT_Connect
 5394              		.syntax unified
 5395              		.thumb
 5396              		.thumb_func
 5397              		.fpu fpv4-sp-d16
 5399              	MQTT_Connect:
 5400              	.LFB1204:
1150:Core/Src/esp32.c **** // ################################################################################################
1151:Core/Src/esp32.c **** bool MQTT_Connect(void)
1152:Core/Src/esp32.c **** {
 5401              		.loc 1 1152 1 is_stmt 1 view -0
 5402              		.cfi_startproc
 5403              		@ args = 0, pretend = 0, frame = 8
 5404              		@ frame_needed = 0, uses_anonymous_args = 0
 5405 0000 30B5     		push	{r4, r5, lr}
 5406              		.cfi_def_cfa_offset 12
 5407              		.cfi_offset 4, -12
 5408              		.cfi_offset 5, -8
 5409              		.cfi_offset 14, -4
 5410 0002 85B0     		sub	sp, sp, #20
 5411              		.cfi_def_cfa_offset 32
1153:Core/Src/esp32.c ****     uint8_t result;
 5412              		.loc 1 1153 5 view .LVU1208
1154:Core/Src/esp32.c ****     bool returnVal = false;
 5413              		.loc 1 1154 5 view .LVU1209
 5414              	.LVL420:
1155:Core/Src/esp32.c ****     MQTT.connected = false;
 5415              		.loc 1 1155 5 view .LVU1210
 5416              		.loc 1 1155 20 is_stmt 0 view .LVU1211
 5417 0004 1D4C     		ldr	r4, .L381
 5418 0006 0023     		movs	r3, #0
 5419 0008 84F82632 		strb	r3, [r4, #550]
1156:Core/Src/esp32.c ****     do
 5420              		.loc 1 1156 5 is_stmt 1 view .LVU1212
1157:Core/Src/esp32.c ****     {
1158:Core/Src/esp32.c ****         Wifi_RxClear();
 5421              		.loc 1 1158 9 view .LVU1213
 5422 000c FFF7FEFF 		bl	Wifi_RxClear
 5423              	.LVL421:
1159:Core/Src/esp32.c ****         sprintf((char *)Buffs.TxBuffer, "AT+MQTTCONN=%u,\"%s\",%u,%d\r\n", MQTT.link_id, MQTT.host,
 5424              		.loc 1 1159 9 view .LVU1214
 5425              		.loc 1 1159 105 is_stmt 0 view .LVU1215
 5426 0010 B4F82232 		ldrh	r3, [r4, #546]
ARM GAS  /var/folders/9y/n02fl3g16gnf7ppy14xghdy80000gn/T//ccqH5YoF.s 			page 129


 5427              		.loc 1 1159 116 view .LVU1216
 5428 0014 94F82522 		ldrb	r2, [r4, #549]	@ zero_extendqisi2
 5429              		.loc 1 1159 9 view .LVU1217
 5430 0018 194D     		ldr	r5, .L381+4
 5431 001a 0192     		str	r2, [sp, #4]
 5432 001c 0093     		str	r3, [sp]
 5433 001e 04F5C073 		add	r3, r4, #384
 5434 0022 94F82422 		ldrb	r2, [r4, #548]	@ zero_extendqisi2
 5435 0026 1749     		ldr	r1, .L381+8
 5436 0028 2846     		mov	r0, r5
 5437 002a FFF7FEFF 		bl	sprintf
 5438              	.LVL422:
1160:Core/Src/esp32.c ****         if (Wifi_SendString((char *)Buffs.TxBuffer) == false)
 5439              		.loc 1 1160 9 is_stmt 1 view .LVU1218
 5440              		.loc 1 1160 13 is_stmt 0 view .LVU1219
 5441 002e 2846     		mov	r0, r5
 5442 0030 FFF7FEFF 		bl	Wifi_SendString
 5443              	.LVL423:
 5444              		.loc 1 1160 12 view .LVU1220
 5445 0034 08B9     		cbnz	r0, .L379
 5446              	.LVL424:
 5447              	.L376:
1161:Core/Src/esp32.c ****             break;
1162:Core/Src/esp32.c ****         if (Wifi_WaitForString(_WIFI_WAIT_TIME_LOW, &result, 2, "OK", "ERROR") == false)
1163:Core/Src/esp32.c ****             break;       // The timeout was completed and the string was not there
1164:Core/Src/esp32.c ****         if (result == 2) // It was find the "ERROR" String in the receiving information
1165:Core/Src/esp32.c ****             break;
1166:Core/Src/esp32.c ****         /* Wait for connection */
1167:Core/Src/esp32.c ****         if (Wifi_WaitForString(_WIFI_WAIT_TIME_VERYHIGH, &result, 1, "+MQTTCONNECTED") == false)
1168:Core/Src/esp32.c ****             break; // The timeout was completed and the string was not there
1169:Core/Src/esp32.c ****         MQTT.connected = true;
1170:Core/Src/esp32.c ****         returnVal = true;
1171:Core/Src/esp32.c ****     } while (0);
 5448              		.loc 1 1171 13 is_stmt 1 view .LVU1221
1172:Core/Src/esp32.c ****     return returnVal;
 5449              		.loc 1 1172 5 view .LVU1222
1173:Core/Src/esp32.c **** }
 5450              		.loc 1 1173 1 is_stmt 0 view .LVU1223
 5451 0036 05B0     		add	sp, sp, #20
 5452              		.cfi_remember_state
 5453              		.cfi_def_cfa_offset 12
 5454              		@ sp needed
 5455 0038 30BD     		pop	{r4, r5, pc}
 5456              	.LVL425:
 5457              	.L379:
 5458              		.cfi_restore_state
1162:Core/Src/esp32.c ****             break;       // The timeout was completed and the string was not there
 5459              		.loc 1 1162 9 is_stmt 1 view .LVU1224
1162:Core/Src/esp32.c ****             break;       // The timeout was completed and the string was not there
 5460              		.loc 1 1162 13 is_stmt 0 view .LVU1225
 5461 003a 134B     		ldr	r3, .L381+12
 5462 003c 0093     		str	r3, [sp]
 5463 003e 134B     		ldr	r3, .L381+16
 5464 0040 0222     		movs	r2, #2
 5465 0042 0DF10F01 		add	r1, sp, #15
 5466 0046 4FF47A70 		mov	r0, #1000
 5467 004a FFF7FEFF 		bl	Wifi_WaitForString
ARM GAS  /var/folders/9y/n02fl3g16gnf7ppy14xghdy80000gn/T//ccqH5YoF.s 			page 130


 5468              	.LVL426:
1162:Core/Src/esp32.c ****             break;       // The timeout was completed and the string was not there
 5469              		.loc 1 1162 12 view .LVU1226
 5470 004e 0028     		cmp	r0, #0
 5471 0050 F1D0     		beq	.L376
1164:Core/Src/esp32.c ****             break;
 5472              		.loc 1 1164 9 is_stmt 1 view .LVU1227
1164:Core/Src/esp32.c ****             break;
 5473              		.loc 1 1164 20 is_stmt 0 view .LVU1228
 5474 0052 9DF80F30 		ldrb	r3, [sp, #15]	@ zero_extendqisi2
1164:Core/Src/esp32.c ****             break;
 5475              		.loc 1 1164 12 view .LVU1229
 5476 0056 022B     		cmp	r3, #2
 5477 0058 01D1     		bne	.L380
1154:Core/Src/esp32.c ****     MQTT.connected = false;
 5478              		.loc 1 1154 10 view .LVU1230
 5479 005a 0020     		movs	r0, #0
 5480 005c EBE7     		b	.L376
 5481              	.L380:
1167:Core/Src/esp32.c ****             break; // The timeout was completed and the string was not there
 5482              		.loc 1 1167 9 is_stmt 1 view .LVU1231
1167:Core/Src/esp32.c ****             break; // The timeout was completed and the string was not there
 5483              		.loc 1 1167 13 is_stmt 0 view .LVU1232
 5484 005e 0C4B     		ldr	r3, .L381+20
 5485 0060 0122     		movs	r2, #1
 5486 0062 0DF10F01 		add	r1, sp, #15
 5487 0066 46F2A810 		movw	r0, #25000
 5488 006a FFF7FEFF 		bl	Wifi_WaitForString
 5489              	.LVL427:
1167:Core/Src/esp32.c ****             break; // The timeout was completed and the string was not there
 5490              		.loc 1 1167 12 view .LVU1233
 5491 006e 0028     		cmp	r0, #0
 5492 0070 E1D0     		beq	.L376
1169:Core/Src/esp32.c ****         returnVal = true;
 5493              		.loc 1 1169 9 is_stmt 1 view .LVU1234
1169:Core/Src/esp32.c ****         returnVal = true;
 5494              		.loc 1 1169 24 is_stmt 0 view .LVU1235
 5495 0072 0122     		movs	r2, #1
 5496 0074 84F82622 		strb	r2, [r4, #550]
1170:Core/Src/esp32.c ****     } while (0);
 5497              		.loc 1 1170 9 is_stmt 1 view .LVU1236
 5498              	.LVL428:
1170:Core/Src/esp32.c ****     } while (0);
 5499              		.loc 1 1170 9 is_stmt 0 view .LVU1237
 5500 0078 DDE7     		b	.L376
 5501              	.L382:
 5502 007a 00BF     		.align	2
 5503              	.L381:
 5504 007c 00000000 		.word	.LANCHOR2
 5505 0080 140C0000 		.word	Buffs+3092
 5506 0084 00000000 		.word	.LC66
 5507 0088 0C000000 		.word	.LC2
 5508 008c 08000000 		.word	.LC1
 5509 0090 1C000000 		.word	.LC67
 5510              		.cfi_endproc
 5511              	.LFE1204:
 5513              		.section	.rodata.MQTT_GetConnection.str1.4,"aMS",%progbits,1
ARM GAS  /var/folders/9y/n02fl3g16gnf7ppy14xghdy80000gn/T//ccqH5YoF.s 			page 131


 5514              		.align	2
 5515              	.LC68:
 5516 0000 41542B4D 		.ascii	"AT+MQTTCONN?\015\012\000"
 5516      51545443 
 5516      4F4E4E3F 
 5516      0D0A00
 5517 000f 00       		.align	2
 5518              	.LC69:
 5519 0010 2B4D5154 		.ascii	"+MQTTCONN:\000"
 5519      54434F4E 
 5519      4E3A00
 5520              		.section	.text.MQTT_GetConnection,"ax",%progbits
 5521              		.align	1
 5522              		.global	MQTT_GetConnection
 5523              		.syntax unified
 5524              		.thumb
 5525              		.thumb_func
 5526              		.fpu fpv4-sp-d16
 5528              	MQTT_GetConnection:
 5529              	.LFB1205:
1174:Core/Src/esp32.c **** // ################################################################################################
1175:Core/Src/esp32.c **** bool MQTT_GetConnection(void)
1176:Core/Src/esp32.c **** {
 5530              		.loc 1 1176 1 is_stmt 1 view -0
 5531              		.cfi_startproc
 5532              		@ args = 0, pretend = 0, frame = 8
 5533              		@ frame_needed = 0, uses_anonymous_args = 0
 5534 0000 70B5     		push	{r4, r5, r6, lr}
 5535              		.cfi_def_cfa_offset 16
 5536              		.cfi_offset 4, -16
 5537              		.cfi_offset 5, -12
 5538              		.cfi_offset 6, -8
 5539              		.cfi_offset 14, -4
 5540 0002 84B0     		sub	sp, sp, #16
 5541              		.cfi_def_cfa_offset 32
1177:Core/Src/esp32.c ****     uint8_t result;
 5542              		.loc 1 1177 5 view .LVU1239
1178:Core/Src/esp32.c ****     bool returnVal = false;
 5543              		.loc 1 1178 5 view .LVU1240
 5544              	.LVL429:
1179:Core/Src/esp32.c ****     static char* items[6];
 5545              		.loc 1 1179 5 view .LVU1241
1180:Core/Src/esp32.c ****     uint8_t items_size = 0;
 5546              		.loc 1 1180 5 view .LVU1242
 5547              		.loc 1 1180 13 is_stmt 0 view .LVU1243
 5548 0004 0023     		movs	r3, #0
 5549 0006 8DF80E30 		strb	r3, [sp, #14]
1181:Core/Src/esp32.c ****     do
 5550              		.loc 1 1181 5 is_stmt 1 view .LVU1244
 5551              	.LBB17:
1182:Core/Src/esp32.c ****     {
1183:Core/Src/esp32.c ****         Wifi_RxClear();
 5552              		.loc 1 1183 9 view .LVU1245
 5553 000a FFF7FEFF 		bl	Wifi_RxClear
 5554              	.LVL430:
1184:Core/Src/esp32.c ****         sprintf((char *)Buffs.TxBuffer, "AT+MQTTCONN?\r\n");
 5555              		.loc 1 1184 9 view .LVU1246
ARM GAS  /var/folders/9y/n02fl3g16gnf7ppy14xghdy80000gn/T//ccqH5YoF.s 			page 132


 5556 000e 2F4C     		ldr	r4, .L390
 5557 0010 2F4B     		ldr	r3, .L390+4
 5558 0012 A446     		mov	ip, r4
 5559 0014 0FCB     		ldm	r3, {r0, r1, r2, r3}
 5560 0016 ACE80700 		stmia	ip!, {r0, r1, r2}
 5561 001a 2CF8023B 		strh	r3, [ip], #2	@ movhi
 5562 001e 1B0C     		lsrs	r3, r3, #16
 5563 0020 8CF80030 		strb	r3, [ip]
1185:Core/Src/esp32.c ****         if (Wifi_SendString((char *)Buffs.TxBuffer) == false)
 5564              		.loc 1 1185 9 view .LVU1247
 5565              		.loc 1 1185 13 is_stmt 0 view .LVU1248
 5566 0024 2046     		mov	r0, r4
 5567 0026 FFF7FEFF 		bl	Wifi_SendString
 5568              	.LVL431:
 5569              		.loc 1 1185 12 view .LVU1249
 5570 002a 0446     		mov	r4, r0
 5571 002c 10B9     		cbnz	r0, .L388
 5572              	.L384:
 5573              	.LVL432:
 5574              		.loc 1 1185 12 view .LVU1250
 5575              	.LBE17:
1186:Core/Src/esp32.c ****             break;
1187:Core/Src/esp32.c ****         if (Wifi_WaitForString(_WIFI_WAIT_TIME_LOW, &result, 2, "OK", "ERROR") == false)
1188:Core/Src/esp32.c ****             break;       // The timeout was completed and the string was not there
1189:Core/Src/esp32.c ****         if (result == 2) // It was find the "ERROR" String in the receiving information
1190:Core/Src/esp32.c ****             break;
1191:Core/Src/esp32.c **** 
1192:Core/Src/esp32.c ****         char *str = strstr((char *)Buffs.RxBuffer.buff, "+MQTTCONN:");
1193:Core/Src/esp32.c ****         // if (sscanf(str, "+MQTTCONN:0,%d,%d,\"%[^\"]\",\"%u\",\"\",%d", (int *)&MQTT.state, (int 
1194:Core/Src/esp32.c ****         //     break;
1195:Core/Src/esp32.c ****         if(!split_string(str, items, &items_size))
1196:Core/Src/esp32.c ****             break;
1197:Core/Src/esp32.c ****         MQTT.state = (MQTTStates_e)atoi(items[0]);
1198:Core/Src/esp32.c ****         MQTT.scheme = (MQTTSchemes_e)atoi(items[1]);
1199:Core/Src/esp32.c ****         strcpy(MQTT.host, items[2]);
1200:Core/Src/esp32.c ****         MQTT.port = (uint16_t)atoi(items[3]);
1201:Core/Src/esp32.c ****         MQTT.reconnect = (bool)atoi(items[5]);
1202:Core/Src/esp32.c ****         
1203:Core/Src/esp32.c ****         if ((MQTT.state >= MQTTStates_Established) && (MQTT.host != NULL))
1204:Core/Src/esp32.c ****             MQTT.connected = true;
1205:Core/Src/esp32.c ****         else
1206:Core/Src/esp32.c ****             MQTT.connected = false;
1207:Core/Src/esp32.c ****         returnVal = true;
1208:Core/Src/esp32.c ****     } while (0);
 5576              		.loc 1 1208 13 is_stmt 1 view .LVU1251
1209:Core/Src/esp32.c ****     return returnVal;
 5577              		.loc 1 1209 5 view .LVU1252
1210:Core/Src/esp32.c **** }
 5578              		.loc 1 1210 1 is_stmt 0 view .LVU1253
 5579 002e 2046     		mov	r0, r4
 5580 0030 04B0     		add	sp, sp, #16
 5581              		.cfi_remember_state
 5582              		.cfi_def_cfa_offset 16
 5583              		@ sp needed
 5584 0032 70BD     		pop	{r4, r5, r6, pc}
 5585              	.LVL433:
 5586              	.L388:
ARM GAS  /var/folders/9y/n02fl3g16gnf7ppy14xghdy80000gn/T//ccqH5YoF.s 			page 133


 5587              		.cfi_restore_state
 5588              	.LBB18:
1187:Core/Src/esp32.c ****             break;       // The timeout was completed and the string was not there
 5589              		.loc 1 1187 9 is_stmt 1 view .LVU1254
1187:Core/Src/esp32.c ****             break;       // The timeout was completed and the string was not there
 5590              		.loc 1 1187 13 is_stmt 0 view .LVU1255
 5591 0034 274B     		ldr	r3, .L390+8
 5592 0036 0093     		str	r3, [sp]
 5593 0038 274B     		ldr	r3, .L390+12
 5594 003a 0222     		movs	r2, #2
 5595 003c 0DF10F01 		add	r1, sp, #15
 5596 0040 4FF47A70 		mov	r0, #1000
 5597 0044 FFF7FEFF 		bl	Wifi_WaitForString
 5598              	.LVL434:
1187:Core/Src/esp32.c ****             break;       // The timeout was completed and the string was not there
 5599              		.loc 1 1187 12 view .LVU1256
 5600 0048 0446     		mov	r4, r0
 5601 004a 0028     		cmp	r0, #0
 5602 004c EFD0     		beq	.L384
1189:Core/Src/esp32.c ****             break;
 5603              		.loc 1 1189 9 is_stmt 1 view .LVU1257
1189:Core/Src/esp32.c ****             break;
 5604              		.loc 1 1189 20 is_stmt 0 view .LVU1258
 5605 004e 9DF80F30 		ldrb	r3, [sp, #15]	@ zero_extendqisi2
1189:Core/Src/esp32.c ****             break;
 5606              		.loc 1 1189 12 view .LVU1259
 5607 0052 022B     		cmp	r3, #2
 5608 0054 01D1     		bne	.L389
 5609              	.LBE18:
1178:Core/Src/esp32.c ****     static char* items[6];
 5610              		.loc 1 1178 10 view .LVU1260
 5611 0056 0024     		movs	r4, #0
 5612 0058 E9E7     		b	.L384
 5613              	.L389:
 5614              	.LBB19:
1192:Core/Src/esp32.c ****         // if (sscanf(str, "+MQTTCONN:0,%d,%d,\"%[^\"]\",\"%u\",\"\",%d", (int *)&MQTT.state, (int 
 5615              		.loc 1 1192 9 is_stmt 1 view .LVU1261
1192:Core/Src/esp32.c ****         // if (sscanf(str, "+MQTTCONN:0,%d,%d,\"%[^\"]\",\"%u\",\"\",%d", (int *)&MQTT.state, (int 
 5616              		.loc 1 1192 21 is_stmt 0 view .LVU1262
 5617 005a 2049     		ldr	r1, .L390+16
 5618 005c 204B     		ldr	r3, .L390+20
 5619 005e D3F80008 		ldr	r0, [r3, #2048]
 5620 0062 FFF7FEFF 		bl	strstr
 5621              	.LVL435:
1195:Core/Src/esp32.c ****             break;
 5622              		.loc 1 1195 9 is_stmt 1 view .LVU1263
1195:Core/Src/esp32.c ****             break;
 5623              		.loc 1 1195 13 is_stmt 0 view .LVU1264
 5624 0066 0DF10E02 		add	r2, sp, #14
 5625 006a 1E49     		ldr	r1, .L390+24
 5626 006c FFF7FEFF 		bl	split_string
 5627              	.LVL436:
1195:Core/Src/esp32.c ****             break;
 5628              		.loc 1 1195 11 view .LVU1265
 5629 0070 0446     		mov	r4, r0
 5630 0072 0028     		cmp	r0, #0
 5631 0074 DBD0     		beq	.L384
ARM GAS  /var/folders/9y/n02fl3g16gnf7ppy14xghdy80000gn/T//ccqH5YoF.s 			page 134


1197:Core/Src/esp32.c ****         MQTT.scheme = (MQTTSchemes_e)atoi(items[1]);
 5632              		.loc 1 1197 9 is_stmt 1 view .LVU1266
1197:Core/Src/esp32.c ****         MQTT.scheme = (MQTTSchemes_e)atoi(items[1]);
 5633              		.loc 1 1197 46 is_stmt 0 view .LVU1267
 5634 0076 1B4E     		ldr	r6, .L390+24
1197:Core/Src/esp32.c ****         MQTT.scheme = (MQTTSchemes_e)atoi(items[1]);
 5635              		.loc 1 1197 36 view .LVU1268
 5636 0078 3068     		ldr	r0, [r6]
 5637 007a FFF7FEFF 		bl	atoi
 5638              	.LVL437:
1197:Core/Src/esp32.c ****         MQTT.scheme = (MQTTSchemes_e)atoi(items[1]);
 5639              		.loc 1 1197 20 view .LVU1269
 5640 007e 1A4D     		ldr	r5, .L390+28
 5641 0080 85F82002 		strb	r0, [r5, #544]
1198:Core/Src/esp32.c ****         strcpy(MQTT.host, items[2]);
 5642              		.loc 1 1198 9 is_stmt 1 view .LVU1270
1198:Core/Src/esp32.c ****         strcpy(MQTT.host, items[2]);
 5643              		.loc 1 1198 38 is_stmt 0 view .LVU1271
 5644 0084 7068     		ldr	r0, [r6, #4]
 5645 0086 FFF7FEFF 		bl	atoi
 5646              	.LVL438:
1198:Core/Src/esp32.c ****         strcpy(MQTT.host, items[2]);
 5647              		.loc 1 1198 21 view .LVU1272
 5648 008a 85F82102 		strb	r0, [r5, #545]
1199:Core/Src/esp32.c ****         MQTT.port = (uint16_t)atoi(items[3]);
 5649              		.loc 1 1199 9 is_stmt 1 view .LVU1273
 5650 008e B168     		ldr	r1, [r6, #8]
 5651 0090 05F5C070 		add	r0, r5, #384
 5652 0094 FFF7FEFF 		bl	strcpy
 5653              	.LVL439:
1200:Core/Src/esp32.c ****         MQTT.reconnect = (bool)atoi(items[5]);
 5654              		.loc 1 1200 9 view .LVU1274
1200:Core/Src/esp32.c ****         MQTT.reconnect = (bool)atoi(items[5]);
 5655              		.loc 1 1200 31 is_stmt 0 view .LVU1275
 5656 0098 F068     		ldr	r0, [r6, #12]
 5657 009a FFF7FEFF 		bl	atoi
 5658              	.LVL440:
1200:Core/Src/esp32.c ****         MQTT.reconnect = (bool)atoi(items[5]);
 5659              		.loc 1 1200 19 view .LVU1276
 5660 009e A5F82202 		strh	r0, [r5, #546]	@ movhi
1201:Core/Src/esp32.c ****         
 5661              		.loc 1 1201 9 is_stmt 1 view .LVU1277
1201:Core/Src/esp32.c ****         
 5662              		.loc 1 1201 32 is_stmt 0 view .LVU1278
 5663 00a2 7069     		ldr	r0, [r6, #20]
 5664 00a4 FFF7FEFF 		bl	atoi
 5665              	.LVL441:
1201:Core/Src/esp32.c ****         
 5666              		.loc 1 1201 26 view .LVU1279
 5667 00a8 0038     		subs	r0, r0, #0
 5668 00aa 18BF     		it	ne
 5669 00ac 0120     		movne	r0, #1
1201:Core/Src/esp32.c ****         
 5670              		.loc 1 1201 24 view .LVU1280
 5671 00ae 85F82502 		strb	r0, [r5, #549]
1203:Core/Src/esp32.c ****             MQTT.connected = true;
 5672              		.loc 1 1203 9 is_stmt 1 view .LVU1281
ARM GAS  /var/folders/9y/n02fl3g16gnf7ppy14xghdy80000gn/T//ccqH5YoF.s 			page 135


1203:Core/Src/esp32.c ****             MQTT.connected = true;
 5673              		.loc 1 1203 18 is_stmt 0 view .LVU1282
 5674 00b2 95F82032 		ldrb	r3, [r5, #544]	@ zero_extendqisi2
1203:Core/Src/esp32.c ****             MQTT.connected = true;
 5675              		.loc 1 1203 12 view .LVU1283
 5676 00b6 032B     		cmp	r3, #3
 5677 00b8 03D9     		bls	.L385
1204:Core/Src/esp32.c ****         else
 5678              		.loc 1 1204 13 is_stmt 1 view .LVU1284
1204:Core/Src/esp32.c ****         else
 5679              		.loc 1 1204 28 is_stmt 0 view .LVU1285
 5680 00ba 0122     		movs	r2, #1
 5681 00bc 85F82622 		strb	r2, [r5, #550]
 5682 00c0 B5E7     		b	.L384
 5683              	.L385:
1206:Core/Src/esp32.c ****         returnVal = true;
 5684              		.loc 1 1206 13 is_stmt 1 view .LVU1286
1206:Core/Src/esp32.c ****         returnVal = true;
 5685              		.loc 1 1206 28 is_stmt 0 view .LVU1287
 5686 00c2 094B     		ldr	r3, .L390+28
 5687 00c4 0022     		movs	r2, #0
 5688 00c6 83F82622 		strb	r2, [r3, #550]
 5689 00ca B0E7     		b	.L384
 5690              	.L391:
 5691              		.align	2
 5692              	.L390:
 5693 00cc 140C0000 		.word	Buffs+3092
 5694 00d0 00000000 		.word	.LC68
 5695 00d4 0C000000 		.word	.LC2
 5696 00d8 08000000 		.word	.LC1
 5697 00dc 10000000 		.word	.LC69
 5698 00e0 00000000 		.word	Buffs
 5699 00e4 00000000 		.word	.LANCHOR3
 5700 00e8 00000000 		.word	.LANCHOR2
 5701              	.LBE19:
 5702              		.cfi_endproc
 5703              	.LFE1205:
 5705              		.section	.rodata.MQTT_Init.str1.4,"aMS",%progbits,1
 5706              		.align	2
 5707              	.LC70:
 5708 0000 25702570 		.ascii	"%p%p%p\000"
 5708      257000
 5709 0007 00       		.align	2
 5710              	.LC71:
 5711 0008 4A70776F 		.ascii	"Jpwolfe\000"
 5711      6C666500 
 5712              		.align	2
 5713              	.LC72:
 5714 0010 31323334 		.ascii	"1234567890\000"
 5714      35363738 
 5714      393000
 5715 001b 00       		.align	2
 5716              	.LC73:
 5717 001c 61316B37 		.ascii	"a1k7aswhvntcg-ats.iot.us-west-1.amazonaws.com\000"
 5717      61737768 
 5717      766E7463 
 5717      672D6174 
ARM GAS  /var/folders/9y/n02fl3g16gnf7ppy14xghdy80000gn/T//ccqH5YoF.s 			page 136


 5717      732E696F 
 5718              		.section	.text.MQTT_Init,"ax",%progbits
 5719              		.align	1
 5720              		.global	MQTT_Init
 5721              		.syntax unified
 5722              		.thumb
 5723              		.thumb_func
 5724              		.fpu fpv4-sp-d16
 5726              	MQTT_Init:
 5727              	.LFB1198:
1029:Core/Src/esp32.c ****     uint32_t(*unique_id_1) = (uint32_t *)(UID_BASE);      // BASE address
 5728              		.loc 1 1029 1 is_stmt 1 view -0
 5729              		.cfi_startproc
 5730              		@ args = 0, pretend = 0, frame = 0
 5731              		@ frame_needed = 0, uses_anonymous_args = 0
 5732 0000 70B5     		push	{r4, r5, r6, lr}
 5733              		.cfi_def_cfa_offset 16
 5734              		.cfi_offset 4, -16
 5735              		.cfi_offset 5, -12
 5736              		.cfi_offset 6, -8
 5737              		.cfi_offset 14, -4
 5738 0002 82B0     		sub	sp, sp, #8
 5739              		.cfi_def_cfa_offset 24
1030:Core/Src/esp32.c ****     uint32_t(*unique_id_2) = (uint32_t *)(UID_BASE + 4);  // BASE address + 0x04 offset
 5740              		.loc 1 1030 5 view .LVU1289
 5741              	.LVL442:
1031:Core/Src/esp32.c ****     uint32_t(*unique_id_3) = (uint32_t *)(UID_BASE + 14); // BASE address + 0x14 0ffset
 5742              		.loc 1 1031 5 view .LVU1290
1032:Core/Src/esp32.c **** 
 5743              		.loc 1 1032 5 view .LVU1291
1034:Core/Src/esp32.c ****     if (!MQTT.connected)
 5744              		.loc 1 1034 5 view .LVU1292
 5745 0004 FFF7FEFF 		bl	MQTT_GetConnection
 5746              	.LVL443:
1035:Core/Src/esp32.c ****     {
 5747              		.loc 1 1035 5 view .LVU1293
1035:Core/Src/esp32.c ****     {
 5748              		.loc 1 1035 14 is_stmt 0 view .LVU1294
 5749 0008 224B     		ldr	r3, .L396
 5750 000a 93F82632 		ldrb	r3, [r3, #550]	@ zero_extendqisi2
1035:Core/Src/esp32.c ****     {
 5751              		.loc 1 1035 8 view .LVU1295
 5752 000e 13B1     		cbz	r3, .L395
 5753              	.L393:
1051:Core/Src/esp32.c **** }
 5754              		.loc 1 1051 5 is_stmt 1 view .LVU1296
1052:Core/Src/esp32.c **** 
 5755              		.loc 1 1052 1 is_stmt 0 view .LVU1297
 5756 0010 0120     		movs	r0, #1
 5757 0012 02B0     		add	sp, sp, #8
 5758              		.cfi_remember_state
 5759              		.cfi_def_cfa_offset 16
 5760              		@ sp needed
 5761 0014 70BD     		pop	{r4, r5, r6, pc}
 5762              	.L395:
 5763              		.cfi_restore_state
1037:Core/Src/esp32.c ****         MQTT.scheme = MQTTSchemes_TlsBothCert;
ARM GAS  /var/folders/9y/n02fl3g16gnf7ppy14xghdy80000gn/T//ccqH5YoF.s 			page 137


 5764              		.loc 1 1037 9 is_stmt 1 view .LVU1298
1037:Core/Src/esp32.c ****         MQTT.scheme = MQTTSchemes_TlsBothCert;
 5765              		.loc 1 1037 22 is_stmt 0 view .LVU1299
 5766 0016 1F4D     		ldr	r5, .L396
 5767 0018 0026     		movs	r6, #0
 5768 001a 85F82462 		strb	r6, [r5, #548]
1038:Core/Src/esp32.c ****         sprintf(MQTT.client_id, "%p%p%p", unique_id_1, unique_id_2, unique_id_3);
 5769              		.loc 1 1038 9 is_stmt 1 view .LVU1300
1038:Core/Src/esp32.c ****         sprintf(MQTT.client_id, "%p%p%p", unique_id_1, unique_id_2, unique_id_3);
 5770              		.loc 1 1038 21 is_stmt 0 view .LVU1301
 5771 001e 0523     		movs	r3, #5
 5772 0020 85F82132 		strb	r3, [r5, #545]
1039:Core/Src/esp32.c ****         strcpy(MQTT.username, "Jpwolfe");
 5773              		.loc 1 1039 9 is_stmt 1 view .LVU1302
 5774 0024 1C4B     		ldr	r3, .L396+4
 5775 0026 0093     		str	r3, [sp]
 5776 0028 0A3B     		subs	r3, r3, #10
 5777 002a 1C4A     		ldr	r2, .L396+8
 5778 002c 1C49     		ldr	r1, .L396+12
 5779 002e 2846     		mov	r0, r5
 5780 0030 FFF7FEFF 		bl	sprintf
 5781              	.LVL444:
1040:Core/Src/esp32.c ****         strcpy(MQTT.password, "1234567890");
 5782              		.loc 1 1040 9 view .LVU1303
 5783 0034 05F58073 		add	r3, r5, #256
 5784 0038 1A4A     		ldr	r2, .L396+16
 5785 003a 92E80300 		ldm	r2, {r0, r1}
 5786 003e 83E80300 		stm	r3, {r0, r1}
1041:Core/Src/esp32.c ****         strcpy(MQTT.host, "a1k7aswhvntcg-ats.iot.us-west-1.amazonaws.com");
 5787              		.loc 1 1041 9 view .LVU1304
 5788 0042 194A     		ldr	r2, .L396+20
 5789 0044 05F5A073 		add	r3, r5, #320
 5790 0048 07CA     		ldm	r2, {r0, r1, r2}
 5791 004a 03C3     		stmia	r3!, {r0, r1}
 5792 004c 23F8022B 		strh	r2, [r3], #2	@ movhi
 5793 0050 120C     		lsrs	r2, r2, #16
 5794 0052 1A70     		strb	r2, [r3]
1042:Core/Src/esp32.c ****         MQTT.port = 8883;
 5795              		.loc 1 1042 9 view .LVU1305
 5796 0054 05F5C07C 		add	ip, r5, #384
 5797 0058 144C     		ldr	r4, .L396+24
 5798 005a 0FCC     		ldmia	r4!, {r0, r1, r2, r3}
 5799 005c ACE80F00 		stmia	ip!, {r0, r1, r2, r3}
 5800 0060 0FCC     		ldmia	r4!, {r0, r1, r2, r3}
 5801 0062 ACE80F00 		stmia	ip!, {r0, r1, r2, r3}
 5802 0066 94E80F00 		ldm	r4, {r0, r1, r2, r3}
 5803 006a ACE80700 		stmia	ip!, {r0, r1, r2}
 5804 006e ACF80030 		strh	r3, [ip]	@ movhi
1043:Core/Src/esp32.c ****         MQTT.reconnect = 1;
 5805              		.loc 1 1043 9 view .LVU1306
1043:Core/Src/esp32.c ****         MQTT.reconnect = 1;
 5806              		.loc 1 1043 19 is_stmt 0 view .LVU1307
 5807 0072 42F2B323 		movw	r3, #8883
 5808 0076 A5F82232 		strh	r3, [r5, #546]	@ movhi
1044:Core/Src/esp32.c ****         strcpy(MQTT.path, "");
 5809              		.loc 1 1044 9 is_stmt 1 view .LVU1308
1044:Core/Src/esp32.c ****         strcpy(MQTT.path, "");
ARM GAS  /var/folders/9y/n02fl3g16gnf7ppy14xghdy80000gn/T//ccqH5YoF.s 			page 138


 5810              		.loc 1 1044 24 is_stmt 0 view .LVU1309
 5811 007a 0123     		movs	r3, #1
 5812 007c 85F82532 		strb	r3, [r5, #549]
1045:Core/Src/esp32.c **** 
 5813              		.loc 1 1045 9 is_stmt 1 view .LVU1310
 5814 0080 85F80062 		strb	r6, [r5, #512]
1047:Core/Src/esp32.c ****         MQTT_Connect();
 5815              		.loc 1 1047 9 view .LVU1311
 5816 0084 FFF7FEFF 		bl	MQTT_SetUserConfig
 5817              	.LVL445:
1048:Core/Src/esp32.c ****         MQTT_GetConnection();
 5818              		.loc 1 1048 9 view .LVU1312
 5819 0088 FFF7FEFF 		bl	MQTT_Connect
 5820              	.LVL446:
1049:Core/Src/esp32.c ****     }
 5821              		.loc 1 1049 9 view .LVU1313
 5822 008c FFF7FEFF 		bl	MQTT_GetConnection
 5823              	.LVL447:
 5824 0090 BEE7     		b	.L393
 5825              	.L397:
 5826 0092 00BF     		.align	2
 5827              	.L396:
 5828 0094 00000000 		.word	.LANCHOR2
 5829 0098 9E75FF1F 		.word	536835486
 5830 009c 9075FF1F 		.word	536835472
 5831 00a0 00000000 		.word	.LC70
 5832 00a4 08000000 		.word	.LC71
 5833 00a8 10000000 		.word	.LC72
 5834 00ac 1C000000 		.word	.LC73
 5835              		.cfi_endproc
 5836              	.LFE1198:
 5838              		.section	.rodata.MQTT_Publish.str1.4,"aMS",%progbits,1
 5839              		.align	2
 5840              	.LC74:
 5841 0000 41542B4D 		.ascii	"AT+MQTTPUB=%u,\"%s\",\"%s\",0,0\015\012\000"
 5841      51545450 
 5841      55423D25 
 5841      752C2225 
 5841      73222C22 
 5842              		.section	.text.MQTT_Publish,"ax",%progbits
 5843              		.align	1
 5844              		.global	MQTT_Publish
 5845              		.syntax unified
 5846              		.thumb
 5847              		.thumb_func
 5848              		.fpu fpv4-sp-d16
 5850              	MQTT_Publish:
 5851              	.LFB1206:
1211:Core/Src/esp32.c **** // ################################################################################################
1212:Core/Src/esp32.c **** bool MQTT_Publish(MQTT_Message_t Message)
1213:Core/Src/esp32.c **** {
 5852              		.loc 1 1213 1 view -0
 5853              		.cfi_startproc
 5854              		@ args = 136, pretend = 16, frame = 8
 5855              		@ frame_needed = 0, uses_anonymous_args = 0
 5856 0000 84B0     		sub	sp, sp, #16
 5857              		.cfi_def_cfa_offset 16
ARM GAS  /var/folders/9y/n02fl3g16gnf7ppy14xghdy80000gn/T//ccqH5YoF.s 			page 139


 5858 0002 10B5     		push	{r4, lr}
 5859              		.cfi_def_cfa_offset 24
 5860              		.cfi_offset 4, -24
 5861              		.cfi_offset 14, -20
 5862 0004 84B0     		sub	sp, sp, #16
 5863              		.cfi_def_cfa_offset 40
 5864 0006 06AC     		add	r4, sp, #24
 5865 0008 84E80F00 		stm	r4, {r0, r1, r2, r3}
1214:Core/Src/esp32.c ****     uint8_t result;
 5866              		.loc 1 1214 5 view .LVU1315
1215:Core/Src/esp32.c ****     bool returnVal = false;
 5867              		.loc 1 1215 5 view .LVU1316
 5868              	.LVL448:
1216:Core/Src/esp32.c ****     do
 5869              		.loc 1 1216 5 view .LVU1317
1217:Core/Src/esp32.c ****     {
1218:Core/Src/esp32.c ****         Wifi_RxClear();
 5870              		.loc 1 1218 9 view .LVU1318
 5871 000c FFF7FEFF 		bl	Wifi_RxClear
 5872              	.LVL449:
1219:Core/Src/esp32.c ****         sprintf((char *)Buffs.TxBuffer, "AT+MQTTPUB=%u,\"%s\",\"%s\",0,0\r\n", MQTT.link_id, Messag
 5873              		.loc 1 1219 9 view .LVU1319
 5874 0010 124C     		ldr	r4, .L402
 5875 0012 269B     		ldr	r3, [sp, #152]
 5876 0014 0093     		str	r3, [sp]
 5877 0016 06AB     		add	r3, sp, #24
 5878 0018 114A     		ldr	r2, .L402+4
 5879 001a 92F82422 		ldrb	r2, [r2, #548]	@ zero_extendqisi2
 5880 001e 1149     		ldr	r1, .L402+8
 5881 0020 2046     		mov	r0, r4
 5882 0022 FFF7FEFF 		bl	sprintf
 5883              	.LVL450:
1220:Core/Src/esp32.c ****         if (Wifi_SendString((char *)Buffs.TxBuffer) == false)
 5884              		.loc 1 1220 9 view .LVU1320
 5885              		.loc 1 1220 13 is_stmt 0 view .LVU1321
 5886 0026 2046     		mov	r0, r4
 5887 0028 FFF7FEFF 		bl	Wifi_SendString
 5888              	.LVL451:
 5889              		.loc 1 1220 12 view .LVU1322
 5890 002c 20B9     		cbnz	r0, .L401
 5891              	.L399:
 5892              	.LVL452:
1221:Core/Src/esp32.c ****             break;
1222:Core/Src/esp32.c ****         if (Wifi_WaitForString(_WIFI_WAIT_TIME_LOW, &result, 2, "OK", "ERROR") == false)
1223:Core/Src/esp32.c ****             break;       // The timeout was completed and the string was not there
1224:Core/Src/esp32.c ****         if (result == 2) // It was find the "ERROR" String in the receiving information
1225:Core/Src/esp32.c ****             break;
1226:Core/Src/esp32.c ****         returnVal = true;
1227:Core/Src/esp32.c ****     } while (0);
 5893              		.loc 1 1227 13 is_stmt 1 view .LVU1323
1228:Core/Src/esp32.c ****     return returnVal;
 5894              		.loc 1 1228 5 view .LVU1324
1229:Core/Src/esp32.c **** }
 5895              		.loc 1 1229 1 is_stmt 0 view .LVU1325
 5896 002e 04B0     		add	sp, sp, #16
 5897              		.cfi_remember_state
 5898              		.cfi_def_cfa_offset 24
ARM GAS  /var/folders/9y/n02fl3g16gnf7ppy14xghdy80000gn/T//ccqH5YoF.s 			page 140


 5899              		@ sp needed
 5900 0030 BDE81040 		pop	{r4, lr}
 5901              		.cfi_restore 14
 5902              		.cfi_restore 4
 5903              		.cfi_def_cfa_offset 16
 5904 0034 04B0     		add	sp, sp, #16
 5905              		.cfi_def_cfa_offset 0
 5906 0036 7047     		bx	lr
 5907              	.LVL453:
 5908              	.L401:
 5909              		.cfi_restore_state
1222:Core/Src/esp32.c ****             break;       // The timeout was completed and the string was not there
 5910              		.loc 1 1222 9 is_stmt 1 view .LVU1326
1222:Core/Src/esp32.c ****             break;       // The timeout was completed and the string was not there
 5911              		.loc 1 1222 13 is_stmt 0 view .LVU1327
 5912 0038 0B4B     		ldr	r3, .L402+12
 5913 003a 0093     		str	r3, [sp]
 5914 003c 0B4B     		ldr	r3, .L402+16
 5915 003e 0222     		movs	r2, #2
 5916 0040 0DF10F01 		add	r1, sp, #15
 5917 0044 4FF47A70 		mov	r0, #1000
 5918 0048 FFF7FEFF 		bl	Wifi_WaitForString
 5919              	.LVL454:
1222:Core/Src/esp32.c ****             break;       // The timeout was completed and the string was not there
 5920              		.loc 1 1222 12 view .LVU1328
 5921 004c 0028     		cmp	r0, #0
 5922 004e EED0     		beq	.L399
1224:Core/Src/esp32.c ****             break;
 5923              		.loc 1 1224 9 is_stmt 1 view .LVU1329
1224:Core/Src/esp32.c ****             break;
 5924              		.loc 1 1224 20 is_stmt 0 view .LVU1330
 5925 0050 9DF80F30 		ldrb	r3, [sp, #15]	@ zero_extendqisi2
1224:Core/Src/esp32.c ****             break;
 5926              		.loc 1 1224 12 view .LVU1331
 5927 0054 022B     		cmp	r3, #2
 5928 0056 EAD1     		bne	.L399
1215:Core/Src/esp32.c ****     do
 5929              		.loc 1 1215 10 view .LVU1332
 5930 0058 0020     		movs	r0, #0
 5931 005a E8E7     		b	.L399
 5932              	.L403:
 5933              		.align	2
 5934              	.L402:
 5935 005c 140C0000 		.word	Buffs+3092
 5936 0060 00000000 		.word	.LANCHOR2
 5937 0064 00000000 		.word	.LC74
 5938 0068 0C000000 		.word	.LC2
 5939 006c 08000000 		.word	.LC1
 5940              		.cfi_endproc
 5941              	.LFE1206:
 5943              		.section	.rodata.MQTT_PublishRaw.str1.4,"aMS",%progbits,1
 5944              		.align	2
 5945              	.LC75:
 5946 0000 41542B4D 		.ascii	"AT+MQTTPUBRAW=%u,\"%s\",%u,0,0\015\012\000"
 5946      51545450 
 5946      55425241 
 5946      573D2575 
ARM GAS  /var/folders/9y/n02fl3g16gnf7ppy14xghdy80000gn/T//ccqH5YoF.s 			page 141


 5946      2C222573 
 5947 001f 00       		.align	2
 5948              	.LC76:
 5949 0020 2B4D5154 		.ascii	"+MQTTPUB:OK\000"
 5949      54505542 
 5949      3A4F4B00 
 5950              		.align	2
 5951              	.LC77:
 5952 002c 2B4D5154 		.ascii	"+MQTTPUB:FAIL\000"
 5952      54505542 
 5952      3A464149 
 5952      4C00
 5953 003a 0000     		.align	2
 5954              	.LC78:
 5955 003c 20303B30 		.ascii	" 0;0 0;0 0;0 0;0 0;0 0;0 0;0 0;0 0;0 0;0 0;0 0;0 0;"
 5955      20303B30 
 5955      20303B30 
 5955      20303B30 
 5955      20303B30 
 5956 006f 3020303B 		.ascii	"0 0;0 0;0 0;0 0;0 0;0 0;0 0;0 0;0 0;0 0;0\000"
 5956      3020303B 
 5956      3020303B 
 5956      3020303B 
 5956      3020303B 
 5957              		.section	.text.MQTT_PublishRaw,"ax",%progbits
 5958              		.align	1
 5959              		.global	MQTT_PublishRaw
 5960              		.syntax unified
 5961              		.thumb
 5962              		.thumb_func
 5963              		.fpu fpv4-sp-d16
 5965              	MQTT_PublishRaw:
 5966              	.LFB1207:
1230:Core/Src/esp32.c **** // ################################################################################################
1231:Core/Src/esp32.c **** bool MQTT_PublishRaw(MQTT_Message_t Message)
1232:Core/Src/esp32.c **** {
 5967              		.loc 1 1232 1 is_stmt 1 view -0
 5968              		.cfi_startproc
 5969              		@ args = 136, pretend = 16, frame = 8
 5970              		@ frame_needed = 0, uses_anonymous_args = 0
 5971 0000 84B0     		sub	sp, sp, #16
 5972              		.cfi_def_cfa_offset 16
 5973 0002 10B5     		push	{r4, lr}
 5974              		.cfi_def_cfa_offset 24
 5975              		.cfi_offset 4, -24
 5976              		.cfi_offset 14, -20
 5977 0004 84B0     		sub	sp, sp, #16
 5978              		.cfi_def_cfa_offset 40
 5979 0006 06AC     		add	r4, sp, #24
 5980 0008 84E80F00 		stm	r4, {r0, r1, r2, r3}
1233:Core/Src/esp32.c ****     uint8_t result;
 5981              		.loc 1 1233 5 view .LVU1334
1234:Core/Src/esp32.c ****     bool returnVal = false;
 5982              		.loc 1 1234 5 view .LVU1335
 5983              	.LVL455:
1235:Core/Src/esp32.c ****     do
 5984              		.loc 1 1235 5 view .LVU1336
ARM GAS  /var/folders/9y/n02fl3g16gnf7ppy14xghdy80000gn/T//ccqH5YoF.s 			page 142


1236:Core/Src/esp32.c ****     {
1237:Core/Src/esp32.c ****         Wifi_RxClear();
 5985              		.loc 1 1237 9 view .LVU1337
 5986 000c FFF7FEFF 		bl	Wifi_RxClear
 5987              	.LVL456:
1238:Core/Src/esp32.c ****         sprintf((char *)Buffs.TxBuffer, "AT+MQTTPUBRAW=%u,\"%s\",%u,0,0\r\n", MQTT.link_id, Message
 5988              		.loc 1 1238 9 view .LVU1338
 5989 0010 204C     		ldr	r4, .L412
 5990 0012 279B     		ldr	r3, [sp, #156]
 5991 0014 0093     		str	r3, [sp]
 5992 0016 06AB     		add	r3, sp, #24
 5993 0018 1F4A     		ldr	r2, .L412+4
 5994 001a 92F82422 		ldrb	r2, [r2, #548]	@ zero_extendqisi2
 5995 001e 1F49     		ldr	r1, .L412+8
 5996 0020 2046     		mov	r0, r4
 5997 0022 FFF7FEFF 		bl	sprintf
 5998              	.LVL457:
1239:Core/Src/esp32.c ****         if (Wifi_SendString((char *)Buffs.TxBuffer) == false)
 5999              		.loc 1 1239 9 view .LVU1339
 6000              		.loc 1 1239 13 is_stmt 0 view .LVU1340
 6001 0026 2046     		mov	r0, r4
 6002 0028 FFF7FEFF 		bl	Wifi_SendString
 6003              	.LVL458:
 6004              		.loc 1 1239 12 view .LVU1341
 6005 002c 0446     		mov	r4, r0
 6006 002e 28B9     		cbnz	r0, .L409
 6007              	.L405:
 6008              	.LVL459:
1240:Core/Src/esp32.c ****             break;
1241:Core/Src/esp32.c ****         if (Wifi_WaitForString(_WIFI_WAIT_TIME_LOW, &result, 2, "OK", "ERROR") == false)
1242:Core/Src/esp32.c ****             break;       // The timeout was completed and the string was not there
1243:Core/Src/esp32.c ****         if (result == 2) // It was find the "ERROR" String in the receiving information
1244:Core/Src/esp32.c ****             break;
1245:Core/Src/esp32.c ****         /* Send all data */
1246:Core/Src/esp32.c ****         // usart1TransmitDma((uint8_t *)Message.data, (size_t)Message.length);
1247:Core/Src/esp32.c ****         usart_transmit_dma(Message.data);
1248:Core/Src/esp32.c ****         /* Wait for response */
1249:Core/Src/esp32.c ****         if (Wifi_WaitForString(_WIFI_WAIT_TIME_LOW, &result, 2, "+MQTTPUB:OK", "+MQTTPUB:FAIL") == 
1250:Core/Src/esp32.c ****         {
1251:Core/Src/esp32.c ****             usart_transmit_dma(" 0;0 0;0 0;0 0;0 0;0 0;0 0;0 0;0 0;0 0;0 0;0 0;0 0;0 0;0 0;0 0;0 0;
1252:Core/Src/esp32.c ****             break;       // The timeout was completed and the string was not there
1253:Core/Src/esp32.c ****         }
1254:Core/Src/esp32.c ****         if (result == 2) // It was find the "FAIL" String in the receiving information
1255:Core/Src/esp32.c ****             break;
1256:Core/Src/esp32.c ****         returnVal = true;
1257:Core/Src/esp32.c ****     } while (0);
 6009              		.loc 1 1257 13 is_stmt 1 view .LVU1342
1258:Core/Src/esp32.c ****     return returnVal;
 6010              		.loc 1 1258 5 view .LVU1343
1259:Core/Src/esp32.c **** }
 6011              		.loc 1 1259 1 is_stmt 0 view .LVU1344
 6012 0030 2046     		mov	r0, r4
 6013 0032 04B0     		add	sp, sp, #16
 6014              		.cfi_remember_state
 6015              		.cfi_def_cfa_offset 24
 6016              		@ sp needed
 6017 0034 BDE81040 		pop	{r4, lr}
ARM GAS  /var/folders/9y/n02fl3g16gnf7ppy14xghdy80000gn/T//ccqH5YoF.s 			page 143


 6018              		.cfi_restore 14
 6019              		.cfi_restore 4
 6020              		.cfi_def_cfa_offset 16
 6021              	.LVL460:
 6022              		.loc 1 1259 1 view .LVU1345
 6023 0038 04B0     		add	sp, sp, #16
 6024              		.cfi_def_cfa_offset 0
 6025 003a 7047     		bx	lr
 6026              	.LVL461:
 6027              	.L409:
 6028              		.cfi_restore_state
1241:Core/Src/esp32.c ****             break;       // The timeout was completed and the string was not there
 6029              		.loc 1 1241 9 is_stmt 1 view .LVU1346
1241:Core/Src/esp32.c ****             break;       // The timeout was completed and the string was not there
 6030              		.loc 1 1241 13 is_stmt 0 view .LVU1347
 6031 003c 184B     		ldr	r3, .L412+12
 6032 003e 0093     		str	r3, [sp]
 6033 0040 184B     		ldr	r3, .L412+16
 6034 0042 0222     		movs	r2, #2
 6035 0044 0DF10F01 		add	r1, sp, #15
 6036 0048 4FF47A70 		mov	r0, #1000
 6037 004c FFF7FEFF 		bl	Wifi_WaitForString
 6038              	.LVL462:
1241:Core/Src/esp32.c ****             break;       // The timeout was completed and the string was not there
 6039              		.loc 1 1241 12 view .LVU1348
 6040 0050 0446     		mov	r4, r0
 6041 0052 0028     		cmp	r0, #0
 6042 0054 ECD0     		beq	.L405
1243:Core/Src/esp32.c ****             break;
 6043              		.loc 1 1243 9 is_stmt 1 view .LVU1349
1243:Core/Src/esp32.c ****             break;
 6044              		.loc 1 1243 20 is_stmt 0 view .LVU1350
 6045 0056 9DF80F30 		ldrb	r3, [sp, #15]	@ zero_extendqisi2
1243:Core/Src/esp32.c ****             break;
 6046              		.loc 1 1243 12 view .LVU1351
 6047 005a 022B     		cmp	r3, #2
 6048 005c 01D1     		bne	.L410
1234:Core/Src/esp32.c ****     do
 6049              		.loc 1 1234 10 view .LVU1352
 6050 005e 0024     		movs	r4, #0
 6051 0060 E6E7     		b	.L405
 6052              	.L410:
1247:Core/Src/esp32.c ****         /* Wait for response */
 6053              		.loc 1 1247 9 is_stmt 1 view .LVU1353
 6054 0062 2698     		ldr	r0, [sp, #152]
 6055 0064 FFF7FEFF 		bl	usart_transmit_dma
 6056              	.LVL463:
1249:Core/Src/esp32.c ****         {
 6057              		.loc 1 1249 9 view .LVU1354
1249:Core/Src/esp32.c ****         {
 6058              		.loc 1 1249 13 is_stmt 0 view .LVU1355
 6059 0068 0F4B     		ldr	r3, .L412+20
 6060 006a 0093     		str	r3, [sp]
 6061 006c 0F4B     		ldr	r3, .L412+24
 6062 006e 0222     		movs	r2, #2
 6063 0070 0DF10F01 		add	r1, sp, #15
 6064 0074 4FF47A70 		mov	r0, #1000
ARM GAS  /var/folders/9y/n02fl3g16gnf7ppy14xghdy80000gn/T//ccqH5YoF.s 			page 144


 6065 0078 FFF7FEFF 		bl	Wifi_WaitForString
 6066              	.LVL464:
1249:Core/Src/esp32.c ****         {
 6067              		.loc 1 1249 12 view .LVU1356
 6068 007c 0446     		mov	r4, r0
 6069 007e 28B1     		cbz	r0, .L411
1254:Core/Src/esp32.c ****             break;
 6070              		.loc 1 1254 9 is_stmt 1 view .LVU1357
1254:Core/Src/esp32.c ****             break;
 6071              		.loc 1 1254 20 is_stmt 0 view .LVU1358
 6072 0080 9DF80F30 		ldrb	r3, [sp, #15]	@ zero_extendqisi2
1254:Core/Src/esp32.c ****             break;
 6073              		.loc 1 1254 12 view .LVU1359
 6074 0084 022B     		cmp	r3, #2
 6075 0086 D3D1     		bne	.L405
1234:Core/Src/esp32.c ****     do
 6076              		.loc 1 1234 10 view .LVU1360
 6077 0088 0024     		movs	r4, #0
 6078 008a D1E7     		b	.L405
 6079              	.L411:
1251:Core/Src/esp32.c ****             break;       // The timeout was completed and the string was not there
 6080              		.loc 1 1251 13 is_stmt 1 view .LVU1361
 6081 008c 0848     		ldr	r0, .L412+28
 6082 008e FFF7FEFF 		bl	usart_transmit_dma
 6083              	.LVL465:
1252:Core/Src/esp32.c ****         }
 6084              		.loc 1 1252 13 view .LVU1362
 6085 0092 CDE7     		b	.L405
 6086              	.L413:
 6087              		.align	2
 6088              	.L412:
 6089 0094 140C0000 		.word	Buffs+3092
 6090 0098 00000000 		.word	.LANCHOR2
 6091 009c 00000000 		.word	.LC75
 6092 00a0 0C000000 		.word	.LC2
 6093 00a4 08000000 		.word	.LC1
 6094 00a8 2C000000 		.word	.LC77
 6095 00ac 20000000 		.word	.LC76
 6096 00b0 3C000000 		.word	.LC78
 6097              		.cfi_endproc
 6098              	.LFE1207:
 6100              		.section	.rodata.MQTT_Subscribe.str1.4,"aMS",%progbits,1
 6101              		.align	2
 6102              	.LC79:
 6103 0000 41542B4D 		.ascii	"AT+MQTTSUB=%u,\"%s\",0\015\012\000"
 6103      51545453 
 6103      55423D25 
 6103      752C2225 
 6103      73222C30 
 6104              		.section	.text.MQTT_Subscribe,"ax",%progbits
 6105              		.align	1
 6106              		.global	MQTT_Subscribe
 6107              		.syntax unified
 6108              		.thumb
 6109              		.thumb_func
 6110              		.fpu fpv4-sp-d16
 6112              	MQTT_Subscribe:
ARM GAS  /var/folders/9y/n02fl3g16gnf7ppy14xghdy80000gn/T//ccqH5YoF.s 			page 145


 6113              	.LFB1208:
1260:Core/Src/esp32.c **** // ################################################################################################
1261:Core/Src/esp32.c **** bool MQTT_Subscribe(MQTT_Message_t Message)
1262:Core/Src/esp32.c **** {
 6114              		.loc 1 1262 1 view -0
 6115              		.cfi_startproc
 6116              		@ args = 136, pretend = 16, frame = 8
 6117              		@ frame_needed = 0, uses_anonymous_args = 0
 6118 0000 84B0     		sub	sp, sp, #16
 6119              		.cfi_def_cfa_offset 16
 6120 0002 10B5     		push	{r4, lr}
 6121              		.cfi_def_cfa_offset 24
 6122              		.cfi_offset 4, -24
 6123              		.cfi_offset 14, -20
 6124 0004 84B0     		sub	sp, sp, #16
 6125              		.cfi_def_cfa_offset 40
 6126 0006 06AC     		add	r4, sp, #24
 6127 0008 84E80F00 		stm	r4, {r0, r1, r2, r3}
1263:Core/Src/esp32.c ****     uint8_t result;
 6128              		.loc 1 1263 5 view .LVU1364
1264:Core/Src/esp32.c ****     bool returnVal = false;
 6129              		.loc 1 1264 5 view .LVU1365
 6130              	.LVL466:
1265:Core/Src/esp32.c ****     do
 6131              		.loc 1 1265 5 view .LVU1366
1266:Core/Src/esp32.c ****     {
1267:Core/Src/esp32.c ****         Wifi_RxClear();
 6132              		.loc 1 1267 9 view .LVU1367
 6133 000c FFF7FEFF 		bl	Wifi_RxClear
 6134              	.LVL467:
1268:Core/Src/esp32.c ****         sprintf((char *)Buffs.TxBuffer, "AT+MQTTSUB=%u,\"%s\",0\r\n", MQTT.link_id, Message.topic);
 6135              		.loc 1 1268 9 view .LVU1368
 6136 0010 114C     		ldr	r4, .L418
 6137 0012 06AB     		add	r3, sp, #24
 6138 0014 114A     		ldr	r2, .L418+4
 6139 0016 92F82422 		ldrb	r2, [r2, #548]	@ zero_extendqisi2
 6140 001a 1149     		ldr	r1, .L418+8
 6141 001c 2046     		mov	r0, r4
 6142 001e FFF7FEFF 		bl	sprintf
 6143              	.LVL468:
1269:Core/Src/esp32.c ****         if (Wifi_SendString((char *)Buffs.TxBuffer) == false)
 6144              		.loc 1 1269 9 view .LVU1369
 6145              		.loc 1 1269 13 is_stmt 0 view .LVU1370
 6146 0022 2046     		mov	r0, r4
 6147 0024 FFF7FEFF 		bl	Wifi_SendString
 6148              	.LVL469:
 6149              		.loc 1 1269 12 view .LVU1371
 6150 0028 20B9     		cbnz	r0, .L417
 6151              	.L415:
 6152              	.LVL470:
1270:Core/Src/esp32.c ****             break;
1271:Core/Src/esp32.c ****         if (Wifi_WaitForString(_WIFI_WAIT_TIME_LOW, &result, 2, "OK", "ERROR") == false)
1272:Core/Src/esp32.c ****             break;       // The timeout was completed and the string was not there
1273:Core/Src/esp32.c ****         if (result == 2) // It was find the "ERROR" String in the receiving information
1274:Core/Src/esp32.c ****             break;
1275:Core/Src/esp32.c ****         returnVal = true;
1276:Core/Src/esp32.c ****     } while (0);
ARM GAS  /var/folders/9y/n02fl3g16gnf7ppy14xghdy80000gn/T//ccqH5YoF.s 			page 146


 6153              		.loc 1 1276 13 is_stmt 1 view .LVU1372
1277:Core/Src/esp32.c ****     return returnVal;
 6154              		.loc 1 1277 5 view .LVU1373
1278:Core/Src/esp32.c **** }
 6155              		.loc 1 1278 1 is_stmt 0 view .LVU1374
 6156 002a 04B0     		add	sp, sp, #16
 6157              		.cfi_remember_state
 6158              		.cfi_def_cfa_offset 24
 6159              		@ sp needed
 6160 002c BDE81040 		pop	{r4, lr}
 6161              		.cfi_restore 14
 6162              		.cfi_restore 4
 6163              		.cfi_def_cfa_offset 16
 6164 0030 04B0     		add	sp, sp, #16
 6165              		.cfi_def_cfa_offset 0
 6166 0032 7047     		bx	lr
 6167              	.LVL471:
 6168              	.L417:
 6169              		.cfi_restore_state
1271:Core/Src/esp32.c ****             break;       // The timeout was completed and the string was not there
 6170              		.loc 1 1271 9 is_stmt 1 view .LVU1375
1271:Core/Src/esp32.c ****             break;       // The timeout was completed and the string was not there
 6171              		.loc 1 1271 13 is_stmt 0 view .LVU1376
 6172 0034 0B4B     		ldr	r3, .L418+12
 6173 0036 0093     		str	r3, [sp]
 6174 0038 0B4B     		ldr	r3, .L418+16
 6175 003a 0222     		movs	r2, #2
 6176 003c 0DF10F01 		add	r1, sp, #15
 6177 0040 4FF47A70 		mov	r0, #1000
 6178 0044 FFF7FEFF 		bl	Wifi_WaitForString
 6179              	.LVL472:
1271:Core/Src/esp32.c ****             break;       // The timeout was completed and the string was not there
 6180              		.loc 1 1271 12 view .LVU1377
 6181 0048 0028     		cmp	r0, #0
 6182 004a EED0     		beq	.L415
1273:Core/Src/esp32.c ****             break;
 6183              		.loc 1 1273 9 is_stmt 1 view .LVU1378
1273:Core/Src/esp32.c ****             break;
 6184              		.loc 1 1273 20 is_stmt 0 view .LVU1379
 6185 004c 9DF80F30 		ldrb	r3, [sp, #15]	@ zero_extendqisi2
1273:Core/Src/esp32.c ****             break;
 6186              		.loc 1 1273 12 view .LVU1380
 6187 0050 022B     		cmp	r3, #2
 6188 0052 EAD1     		bne	.L415
1264:Core/Src/esp32.c ****     do
 6189              		.loc 1 1264 10 view .LVU1381
 6190 0054 0020     		movs	r0, #0
 6191 0056 E8E7     		b	.L415
 6192              	.L419:
 6193              		.align	2
 6194              	.L418:
 6195 0058 140C0000 		.word	Buffs+3092
 6196 005c 00000000 		.word	.LANCHOR2
 6197 0060 00000000 		.word	.LC79
 6198 0064 0C000000 		.word	.LC2
 6199 0068 08000000 		.word	.LC1
 6200              		.cfi_endproc
ARM GAS  /var/folders/9y/n02fl3g16gnf7ppy14xghdy80000gn/T//ccqH5YoF.s 			page 147


 6201              	.LFE1208:
 6203              		.section	.rodata.MQTT_Unsubscribe.str1.4,"aMS",%progbits,1
 6204              		.align	2
 6205              	.LC80:
 6206 0000 41542B4D 		.ascii	"AT+MQTTUNSUB=%u,\"%s\"\015\012\000"
 6206      51545455 
 6206      4E535542 
 6206      3D25752C 
 6206      22257322 
 6207              		.section	.text.MQTT_Unsubscribe,"ax",%progbits
 6208              		.align	1
 6209              		.global	MQTT_Unsubscribe
 6210              		.syntax unified
 6211              		.thumb
 6212              		.thumb_func
 6213              		.fpu fpv4-sp-d16
 6215              	MQTT_Unsubscribe:
 6216              	.LFB1209:
1279:Core/Src/esp32.c **** // ################################################################################################
1280:Core/Src/esp32.c **** bool MQTT_Unsubscribe(MQTT_Message_t Message)
1281:Core/Src/esp32.c **** {
 6217              		.loc 1 1281 1 is_stmt 1 view -0
 6218              		.cfi_startproc
 6219              		@ args = 136, pretend = 16, frame = 8
 6220              		@ frame_needed = 0, uses_anonymous_args = 0
 6221 0000 84B0     		sub	sp, sp, #16
 6222              		.cfi_def_cfa_offset 16
 6223 0002 10B5     		push	{r4, lr}
 6224              		.cfi_def_cfa_offset 24
 6225              		.cfi_offset 4, -24
 6226              		.cfi_offset 14, -20
 6227 0004 84B0     		sub	sp, sp, #16
 6228              		.cfi_def_cfa_offset 40
 6229 0006 06AC     		add	r4, sp, #24
 6230 0008 84E80F00 		stm	r4, {r0, r1, r2, r3}
1282:Core/Src/esp32.c ****     uint8_t result;
 6231              		.loc 1 1282 5 view .LVU1383
1283:Core/Src/esp32.c ****     bool returnVal = false;
 6232              		.loc 1 1283 5 view .LVU1384
 6233              	.LVL473:
1284:Core/Src/esp32.c ****     do
 6234              		.loc 1 1284 5 view .LVU1385
1285:Core/Src/esp32.c ****     {
1286:Core/Src/esp32.c ****         Wifi_RxClear();
 6235              		.loc 1 1286 9 view .LVU1386
 6236 000c FFF7FEFF 		bl	Wifi_RxClear
 6237              	.LVL474:
1287:Core/Src/esp32.c ****         sprintf((char *)Buffs.TxBuffer, "AT+MQTTUNSUB=%u,\"%s\"\r\n", MQTT.link_id, Message.topic);
 6238              		.loc 1 1287 9 view .LVU1387
 6239 0010 114C     		ldr	r4, .L424
 6240 0012 06AB     		add	r3, sp, #24
 6241 0014 114A     		ldr	r2, .L424+4
 6242 0016 92F82422 		ldrb	r2, [r2, #548]	@ zero_extendqisi2
 6243 001a 1149     		ldr	r1, .L424+8
 6244 001c 2046     		mov	r0, r4
 6245 001e FFF7FEFF 		bl	sprintf
 6246              	.LVL475:
ARM GAS  /var/folders/9y/n02fl3g16gnf7ppy14xghdy80000gn/T//ccqH5YoF.s 			page 148


1288:Core/Src/esp32.c ****         if (Wifi_SendString((char *)Buffs.TxBuffer) == false)
 6247              		.loc 1 1288 9 view .LVU1388
 6248              		.loc 1 1288 13 is_stmt 0 view .LVU1389
 6249 0022 2046     		mov	r0, r4
 6250 0024 FFF7FEFF 		bl	Wifi_SendString
 6251              	.LVL476:
 6252              		.loc 1 1288 12 view .LVU1390
 6253 0028 20B9     		cbnz	r0, .L423
 6254              	.L421:
 6255              	.LVL477:
1289:Core/Src/esp32.c ****             break;
1290:Core/Src/esp32.c ****         if (Wifi_WaitForString(_WIFI_WAIT_TIME_LOW, &result, 2, "OK", "ERROR") == false)
1291:Core/Src/esp32.c ****             break;       // The timeout was completed and the string was not there
1292:Core/Src/esp32.c ****         if (result == 2) // It was find the "ERROR" String in the receiving information
1293:Core/Src/esp32.c ****             break;
1294:Core/Src/esp32.c ****         returnVal = true;
1295:Core/Src/esp32.c ****     } while (0);
 6256              		.loc 1 1295 13 is_stmt 1 view .LVU1391
1296:Core/Src/esp32.c ****     return returnVal;
 6257              		.loc 1 1296 5 view .LVU1392
1297:Core/Src/esp32.c **** }
 6258              		.loc 1 1297 1 is_stmt 0 view .LVU1393
 6259 002a 04B0     		add	sp, sp, #16
 6260              		.cfi_remember_state
 6261              		.cfi_def_cfa_offset 24
 6262              		@ sp needed
 6263 002c BDE81040 		pop	{r4, lr}
 6264              		.cfi_restore 14
 6265              		.cfi_restore 4
 6266              		.cfi_def_cfa_offset 16
 6267 0030 04B0     		add	sp, sp, #16
 6268              		.cfi_def_cfa_offset 0
 6269 0032 7047     		bx	lr
 6270              	.LVL478:
 6271              	.L423:
 6272              		.cfi_restore_state
1290:Core/Src/esp32.c ****             break;       // The timeout was completed and the string was not there
 6273              		.loc 1 1290 9 is_stmt 1 view .LVU1394
1290:Core/Src/esp32.c ****             break;       // The timeout was completed and the string was not there
 6274              		.loc 1 1290 13 is_stmt 0 view .LVU1395
 6275 0034 0B4B     		ldr	r3, .L424+12
 6276 0036 0093     		str	r3, [sp]
 6277 0038 0B4B     		ldr	r3, .L424+16
 6278 003a 0222     		movs	r2, #2
 6279 003c 0DF10F01 		add	r1, sp, #15
 6280 0040 4FF47A70 		mov	r0, #1000
 6281 0044 FFF7FEFF 		bl	Wifi_WaitForString
 6282              	.LVL479:
1290:Core/Src/esp32.c ****             break;       // The timeout was completed and the string was not there
 6283              		.loc 1 1290 12 view .LVU1396
 6284 0048 0028     		cmp	r0, #0
 6285 004a EED0     		beq	.L421
1292:Core/Src/esp32.c ****             break;
 6286              		.loc 1 1292 9 is_stmt 1 view .LVU1397
1292:Core/Src/esp32.c ****             break;
 6287              		.loc 1 1292 20 is_stmt 0 view .LVU1398
 6288 004c 9DF80F30 		ldrb	r3, [sp, #15]	@ zero_extendqisi2
ARM GAS  /var/folders/9y/n02fl3g16gnf7ppy14xghdy80000gn/T//ccqH5YoF.s 			page 149


1292:Core/Src/esp32.c ****             break;
 6289              		.loc 1 1292 12 view .LVU1399
 6290 0050 022B     		cmp	r3, #2
 6291 0052 EAD1     		bne	.L421
1283:Core/Src/esp32.c ****     do
 6292              		.loc 1 1283 10 view .LVU1400
 6293 0054 0020     		movs	r0, #0
 6294 0056 E8E7     		b	.L421
 6295              	.L425:
 6296              		.align	2
 6297              	.L424:
 6298 0058 140C0000 		.word	Buffs+3092
 6299 005c 00000000 		.word	.LANCHOR2
 6300 0060 00000000 		.word	.LC80
 6301 0064 0C000000 		.word	.LC2
 6302 0068 08000000 		.word	.LC1
 6303              		.cfi_endproc
 6304              	.LFE1209:
 6306              		.section	.rodata.MQTT_CheckSubscription.str1.4,"aMS",%progbits,1
 6307              		.align	2
 6308              	.LC81:
 6309 0000 41542B4D 		.ascii	"AT+MQTTSUB?\015\012\000"
 6309      51545453 
 6309      55423F0D 
 6309      0A00
 6310 000e 0000     		.align	2
 6311              	.LC82:
 6312 0010 2B4D5154 		.ascii	"+MQTTSUB\000"
 6312      54535542 
 6312      00
 6313 0019 000000   		.align	2
 6314              	.LC83:
 6315 001c 2B4D5154 		.ascii	"+MQTTSUB:0,\"%[^\"]\",%d,0\000"
 6315      54535542 
 6315      3A302C22 
 6315      255B5E22 
 6315      5D222C25 
 6316              		.section	.text.MQTT_CheckSubscription,"ax",%progbits
 6317              		.align	1
 6318              		.global	MQTT_CheckSubscription
 6319              		.syntax unified
 6320              		.thumb
 6321              		.thumb_func
 6322              		.fpu fpv4-sp-d16
 6324              	MQTT_CheckSubscription:
 6325              	.LVL480:
 6326              	.LFB1210:
1298:Core/Src/esp32.c **** // ################################################################################################
1299:Core/Src/esp32.c **** bool MQTT_CheckSubscription(MQTT_Message_t *Message)
1300:Core/Src/esp32.c **** {
 6327              		.loc 1 1300 1 is_stmt 1 view -0
 6328              		.cfi_startproc
 6329              		@ args = 0, pretend = 0, frame = 8
 6330              		@ frame_needed = 0, uses_anonymous_args = 0
 6331              		.loc 1 1300 1 is_stmt 0 view .LVU1402
 6332 0000 30B5     		push	{r4, r5, lr}
 6333              		.cfi_def_cfa_offset 12
ARM GAS  /var/folders/9y/n02fl3g16gnf7ppy14xghdy80000gn/T//ccqH5YoF.s 			page 150


 6334              		.cfi_offset 4, -12
 6335              		.cfi_offset 5, -8
 6336              		.cfi_offset 14, -4
 6337 0002 85B0     		sub	sp, sp, #20
 6338              		.cfi_def_cfa_offset 32
 6339 0004 0546     		mov	r5, r0
1301:Core/Src/esp32.c ****     uint8_t result;
 6340              		.loc 1 1301 5 is_stmt 1 view .LVU1403
1302:Core/Src/esp32.c ****     bool returnVal = false;
 6341              		.loc 1 1302 5 view .LVU1404
 6342              	.LVL481:
1303:Core/Src/esp32.c ****     do
 6343              		.loc 1 1303 5 view .LVU1405
 6344              	.LBB20:
1304:Core/Src/esp32.c ****     {
1305:Core/Src/esp32.c ****         Wifi_RxClear();
 6345              		.loc 1 1305 9 view .LVU1406
 6346 0006 FFF7FEFF 		bl	Wifi_RxClear
 6347              	.LVL482:
1306:Core/Src/esp32.c ****         sprintf((char *)Buffs.TxBuffer, "AT+MQTTSUB?\r\n");
 6348              		.loc 1 1306 9 view .LVU1407
 6349 000a 194C     		ldr	r4, .L432
 6350 000c 194B     		ldr	r3, .L432+4
 6351 000e A446     		mov	ip, r4
 6352 0010 0FCB     		ldm	r3, {r0, r1, r2, r3}
 6353 0012 ACE80700 		stmia	ip!, {r0, r1, r2}
 6354 0016 ACF80030 		strh	r3, [ip]	@ movhi
1307:Core/Src/esp32.c ****         if (Wifi_SendString((char *)Buffs.TxBuffer) == false)
 6355              		.loc 1 1307 9 view .LVU1408
 6356              		.loc 1 1307 13 is_stmt 0 view .LVU1409
 6357 001a 2046     		mov	r0, r4
 6358 001c FFF7FEFF 		bl	Wifi_SendString
 6359              	.LVL483:
 6360              		.loc 1 1307 12 view .LVU1410
 6361 0020 0446     		mov	r4, r0
 6362 0022 10B9     		cbnz	r0, .L430
 6363              	.L427:
 6364              	.LVL484:
 6365              		.loc 1 1307 12 view .LVU1411
 6366              	.LBE20:
1308:Core/Src/esp32.c ****             break;
1309:Core/Src/esp32.c ****         if (Wifi_WaitForString(_WIFI_WAIT_TIME_LOW, &result, 2, "OK", "ERROR") == false)
1310:Core/Src/esp32.c ****             break;       // The timeout was completed and the string was not there
1311:Core/Src/esp32.c ****         if (result == 2) // It was find the "ERROR" String in the receiving information
1312:Core/Src/esp32.c ****             break;
1313:Core/Src/esp32.c **** 
1314:Core/Src/esp32.c ****         char *str = strstr((char *)Buffs.RxBuffer.buff, "+MQTTSUB");
1315:Core/Src/esp32.c ****         if (sscanf(str, "+MQTTSUB:0,\"%[^\"]\",%d,0", Message->topic, (int *)&MQTT.state) == false)
1316:Core/Src/esp32.c ****             break;
1317:Core/Src/esp32.c **** 
1318:Core/Src/esp32.c ****         returnVal = true;
1319:Core/Src/esp32.c ****     } while (0);
 6367              		.loc 1 1319 13 is_stmt 1 view .LVU1412
1320:Core/Src/esp32.c ****     return returnVal;
 6368              		.loc 1 1320 5 view .LVU1413
1321:Core/Src/esp32.c **** }
 6369              		.loc 1 1321 1 is_stmt 0 view .LVU1414
ARM GAS  /var/folders/9y/n02fl3g16gnf7ppy14xghdy80000gn/T//ccqH5YoF.s 			page 151


 6370 0024 2046     		mov	r0, r4
 6371 0026 05B0     		add	sp, sp, #20
 6372              		.cfi_remember_state
 6373              		.cfi_def_cfa_offset 12
 6374              		@ sp needed
 6375 0028 30BD     		pop	{r4, r5, pc}
 6376              	.LVL485:
 6377              	.L430:
 6378              		.cfi_restore_state
 6379              	.LBB21:
1309:Core/Src/esp32.c ****             break;       // The timeout was completed and the string was not there
 6380              		.loc 1 1309 9 is_stmt 1 view .LVU1415
1309:Core/Src/esp32.c ****             break;       // The timeout was completed and the string was not there
 6381              		.loc 1 1309 13 is_stmt 0 view .LVU1416
 6382 002a 134B     		ldr	r3, .L432+8
 6383 002c 0093     		str	r3, [sp]
 6384 002e 134B     		ldr	r3, .L432+12
 6385 0030 0222     		movs	r2, #2
 6386 0032 0DF10F01 		add	r1, sp, #15
 6387 0036 4FF47A70 		mov	r0, #1000
 6388 003a FFF7FEFF 		bl	Wifi_WaitForString
 6389              	.LVL486:
1309:Core/Src/esp32.c ****             break;       // The timeout was completed and the string was not there
 6390              		.loc 1 1309 12 view .LVU1417
 6391 003e 0446     		mov	r4, r0
 6392 0040 0028     		cmp	r0, #0
 6393 0042 EFD0     		beq	.L427
1311:Core/Src/esp32.c ****             break;
 6394              		.loc 1 1311 9 is_stmt 1 view .LVU1418
1311:Core/Src/esp32.c ****             break;
 6395              		.loc 1 1311 20 is_stmt 0 view .LVU1419
 6396 0044 9DF80F30 		ldrb	r3, [sp, #15]	@ zero_extendqisi2
1311:Core/Src/esp32.c ****             break;
 6397              		.loc 1 1311 12 view .LVU1420
 6398 0048 022B     		cmp	r3, #2
 6399 004a 01D1     		bne	.L431
 6400              	.LBE21:
1302:Core/Src/esp32.c ****     do
 6401              		.loc 1 1302 10 view .LVU1421
 6402 004c 0024     		movs	r4, #0
 6403 004e E9E7     		b	.L427
 6404              	.L431:
 6405              	.LBB22:
1314:Core/Src/esp32.c ****         if (sscanf(str, "+MQTTSUB:0,\"%[^\"]\",%d,0", Message->topic, (int *)&MQTT.state) == false)
 6406              		.loc 1 1314 9 is_stmt 1 view .LVU1422
1314:Core/Src/esp32.c ****         if (sscanf(str, "+MQTTSUB:0,\"%[^\"]\",%d,0", Message->topic, (int *)&MQTT.state) == false)
 6407              		.loc 1 1314 21 is_stmt 0 view .LVU1423
 6408 0050 0B49     		ldr	r1, .L432+16
 6409 0052 0C4B     		ldr	r3, .L432+20
 6410 0054 D3F80008 		ldr	r0, [r3, #2048]
 6411 0058 FFF7FEFF 		bl	strstr
 6412              	.LVL487:
1315:Core/Src/esp32.c ****             break;
 6413              		.loc 1 1315 9 is_stmt 1 view .LVU1424
1315:Core/Src/esp32.c ****             break;
 6414              		.loc 1 1315 13 is_stmt 0 view .LVU1425
 6415 005c 0A4B     		ldr	r3, .L432+24
ARM GAS  /var/folders/9y/n02fl3g16gnf7ppy14xghdy80000gn/T//ccqH5YoF.s 			page 152


 6416 005e 2A46     		mov	r2, r5
 6417 0060 0A49     		ldr	r1, .L432+28
 6418 0062 FFF7FEFF 		bl	sscanf
 6419              	.LVL488:
1315:Core/Src/esp32.c ****             break;
 6420              		.loc 1 1315 12 view .LVU1426
 6421 0066 0028     		cmp	r0, #0
 6422 0068 DCD1     		bne	.L427
 6423              	.LBE22:
1302:Core/Src/esp32.c ****     do
 6424              		.loc 1 1302 10 view .LVU1427
 6425 006a 0024     		movs	r4, #0
 6426 006c DAE7     		b	.L427
 6427              	.L433:
 6428 006e 00BF     		.align	2
 6429              	.L432:
 6430 0070 140C0000 		.word	Buffs+3092
 6431 0074 00000000 		.word	.LC81
 6432 0078 0C000000 		.word	.LC2
 6433 007c 08000000 		.word	.LC1
 6434 0080 10000000 		.word	.LC82
 6435 0084 00000000 		.word	Buffs
 6436 0088 20020000 		.word	.LANCHOR2+544
 6437 008c 1C000000 		.word	.LC83
 6438              		.cfi_endproc
 6439              	.LFE1210:
 6441              		.section	.rodata.MQTT_Disconnect.str1.4,"aMS",%progbits,1
 6442              		.align	2
 6443              	.LC84:
 6444 0000 41542B4D 		.ascii	"AT+MQTTCLEAN=%u\015\012\000"
 6444      51545443 
 6444      4C45414E 
 6444      3D25750D 
 6444      0A00
 6445              		.section	.text.MQTT_Disconnect,"ax",%progbits
 6446              		.align	1
 6447              		.global	MQTT_Disconnect
 6448              		.syntax unified
 6449              		.thumb
 6450              		.thumb_func
 6451              		.fpu fpv4-sp-d16
 6453              	MQTT_Disconnect:
 6454              	.LFB1211:
1322:Core/Src/esp32.c **** // ################################################################################################
1323:Core/Src/esp32.c **** bool MQTT_Disconnect(void)
1324:Core/Src/esp32.c **** {
 6455              		.loc 1 1324 1 is_stmt 1 view -0
 6456              		.cfi_startproc
 6457              		@ args = 0, pretend = 0, frame = 8
 6458              		@ frame_needed = 0, uses_anonymous_args = 0
 6459 0000 10B5     		push	{r4, lr}
 6460              		.cfi_def_cfa_offset 8
 6461              		.cfi_offset 4, -8
 6462              		.cfi_offset 14, -4
 6463 0002 84B0     		sub	sp, sp, #16
 6464              		.cfi_def_cfa_offset 24
1325:Core/Src/esp32.c ****     uint8_t result;
ARM GAS  /var/folders/9y/n02fl3g16gnf7ppy14xghdy80000gn/T//ccqH5YoF.s 			page 153


 6465              		.loc 1 1325 5 view .LVU1429
1326:Core/Src/esp32.c ****     bool returnVal = false;
 6466              		.loc 1 1326 5 view .LVU1430
 6467              	.LVL489:
1327:Core/Src/esp32.c ****     do
 6468              		.loc 1 1327 5 view .LVU1431
1328:Core/Src/esp32.c ****     {
1329:Core/Src/esp32.c ****         Wifi_RxClear();
 6469              		.loc 1 1329 9 view .LVU1432
 6470 0004 FFF7FEFF 		bl	Wifi_RxClear
 6471              	.LVL490:
1330:Core/Src/esp32.c ****         sprintf((char *)Buffs.TxBuffer, "AT+MQTTCLEAN=%u\r\n", MQTT.link_id);
 6472              		.loc 1 1330 9 view .LVU1433
 6473 0008 0F4C     		ldr	r4, .L438
 6474 000a 104B     		ldr	r3, .L438+4
 6475 000c 93F82422 		ldrb	r2, [r3, #548]	@ zero_extendqisi2
 6476 0010 0F49     		ldr	r1, .L438+8
 6477 0012 2046     		mov	r0, r4
 6478 0014 FFF7FEFF 		bl	sprintf
 6479              	.LVL491:
1331:Core/Src/esp32.c ****         if (Wifi_SendString((char *)Buffs.TxBuffer) == false)
 6480              		.loc 1 1331 9 view .LVU1434
 6481              		.loc 1 1331 13 is_stmt 0 view .LVU1435
 6482 0018 2046     		mov	r0, r4
 6483 001a FFF7FEFF 		bl	Wifi_SendString
 6484              	.LVL492:
 6485              		.loc 1 1331 12 view .LVU1436
 6486 001e 08B9     		cbnz	r0, .L437
 6487              	.L435:
 6488              	.LVL493:
1332:Core/Src/esp32.c ****             break;
1333:Core/Src/esp32.c ****         if (Wifi_WaitForString(_WIFI_WAIT_TIME_LOW, &result, 2, "OK", "ERROR") == false)
1334:Core/Src/esp32.c ****             break;       // The timeout was completed and the string was not there
1335:Core/Src/esp32.c ****         if (result == 2) // It was find the "ERROR" String in the receiving information
1336:Core/Src/esp32.c ****             break;
1337:Core/Src/esp32.c ****         returnVal = true;
1338:Core/Src/esp32.c ****     } while (0);
 6489              		.loc 1 1338 13 is_stmt 1 view .LVU1437
1339:Core/Src/esp32.c ****     return returnVal;
 6490              		.loc 1 1339 5 view .LVU1438
1340:Core/Src/esp32.c **** }
 6491              		.loc 1 1340 1 is_stmt 0 view .LVU1439
 6492 0020 04B0     		add	sp, sp, #16
 6493              		.cfi_remember_state
 6494              		.cfi_def_cfa_offset 8
 6495              		@ sp needed
 6496 0022 10BD     		pop	{r4, pc}
 6497              	.LVL494:
 6498              	.L437:
 6499              		.cfi_restore_state
1333:Core/Src/esp32.c ****             break;       // The timeout was completed and the string was not there
 6500              		.loc 1 1333 9 is_stmt 1 view .LVU1440
1333:Core/Src/esp32.c ****             break;       // The timeout was completed and the string was not there
 6501              		.loc 1 1333 13 is_stmt 0 view .LVU1441
 6502 0024 0B4B     		ldr	r3, .L438+12
 6503 0026 0093     		str	r3, [sp]
 6504 0028 0B4B     		ldr	r3, .L438+16
ARM GAS  /var/folders/9y/n02fl3g16gnf7ppy14xghdy80000gn/T//ccqH5YoF.s 			page 154


 6505 002a 0222     		movs	r2, #2
 6506 002c 0DF10F01 		add	r1, sp, #15
 6507 0030 4FF47A70 		mov	r0, #1000
 6508 0034 FFF7FEFF 		bl	Wifi_WaitForString
 6509              	.LVL495:
1333:Core/Src/esp32.c ****             break;       // The timeout was completed and the string was not there
 6510              		.loc 1 1333 12 view .LVU1442
 6511 0038 0028     		cmp	r0, #0
 6512 003a F1D0     		beq	.L435
1335:Core/Src/esp32.c ****             break;
 6513              		.loc 1 1335 9 is_stmt 1 view .LVU1443
1335:Core/Src/esp32.c ****             break;
 6514              		.loc 1 1335 20 is_stmt 0 view .LVU1444
 6515 003c 9DF80F30 		ldrb	r3, [sp, #15]	@ zero_extendqisi2
1335:Core/Src/esp32.c ****             break;
 6516              		.loc 1 1335 12 view .LVU1445
 6517 0040 022B     		cmp	r3, #2
 6518 0042 EDD1     		bne	.L435
1326:Core/Src/esp32.c ****     do
 6519              		.loc 1 1326 10 view .LVU1446
 6520 0044 0020     		movs	r0, #0
 6521 0046 EBE7     		b	.L435
 6522              	.L439:
 6523              		.align	2
 6524              	.L438:
 6525 0048 140C0000 		.word	Buffs+3092
 6526 004c 00000000 		.word	.LANCHOR2
 6527 0050 00000000 		.word	.LC84
 6528 0054 0C000000 		.word	.LC2
 6529 0058 08000000 		.word	.LC1
 6530              		.cfi_endproc
 6531              	.LFE1211:
 6533              		.section	.rodata.MQTT_WaitForMessage.str1.4,"aMS",%progbits,1
 6534              		.align	2
 6535              	.LC85:
 6536 0000 2B4D5154 		.ascii	"+MQTTSUBRECV\000"
 6536      54535542 
 6536      52454356 
 6536      00
 6537 000d 000000   		.align	2
 6538              	.LC86:
 6539 0010 2B4D5154 		.ascii	"+MQTTSUBRECV:0,\"%[^\"]\",%zu,%[^\015]\000"
 6539      54535542 
 6539      52454356 
 6539      3A302C22 
 6539      255B5E22 
 6540              		.section	.text.MQTT_WaitForMessage,"ax",%progbits
 6541              		.align	1
 6542              		.global	MQTT_WaitForMessage
 6543              		.syntax unified
 6544              		.thumb
 6545              		.thumb_func
 6546              		.fpu fpv4-sp-d16
 6548              	MQTT_WaitForMessage:
 6549              	.LVL496:
 6550              	.LFB1212:
1341:Core/Src/esp32.c **** // ################################################################################################
ARM GAS  /var/folders/9y/n02fl3g16gnf7ppy14xghdy80000gn/T//ccqH5YoF.s 			page 155


1342:Core/Src/esp32.c **** bool MQTT_WaitForMessage(MQTT_Message_t *Message, uint32_t waitTime)
1343:Core/Src/esp32.c **** {
 6551              		.loc 1 1343 1 is_stmt 1 view -0
 6552              		.cfi_startproc
 6553              		@ args = 0, pretend = 0, frame = 8
 6554              		@ frame_needed = 0, uses_anonymous_args = 0
 6555              		.loc 1 1343 1 is_stmt 0 view .LVU1448
 6556 0000 70B5     		push	{r4, r5, r6, lr}
 6557              		.cfi_def_cfa_offset 16
 6558              		.cfi_offset 4, -16
 6559              		.cfi_offset 5, -12
 6560              		.cfi_offset 6, -8
 6561              		.cfi_offset 14, -4
 6562 0002 84B0     		sub	sp, sp, #16
 6563              		.cfi_def_cfa_offset 32
 6564 0004 0446     		mov	r4, r0
 6565 0006 0D46     		mov	r5, r1
1344:Core/Src/esp32.c ****     uint8_t result;
 6566              		.loc 1 1344 5 is_stmt 1 view .LVU1449
1345:Core/Src/esp32.c ****     bool returnVal = false;
 6567              		.loc 1 1345 5 view .LVU1450
 6568              	.LVL497:
1346:Core/Src/esp32.c ****     do
 6569              		.loc 1 1346 5 view .LVU1451
 6570              	.LBB23:
1347:Core/Src/esp32.c ****     {
1348:Core/Src/esp32.c ****         Wifi_RxClear();
 6571              		.loc 1 1348 9 view .LVU1452
 6572 0008 FFF7FEFF 		bl	Wifi_RxClear
 6573              	.LVL498:
1349:Core/Src/esp32.c ****         memset(Message->data, '\0', strlen(Message->data));
 6574              		.loc 1 1349 9 view .LVU1453
 6575              		.loc 1 1349 23 is_stmt 0 view .LVU1454
 6576 000c D4F88060 		ldr	r6, [r4, #128]
 6577              		.loc 1 1349 9 view .LVU1455
 6578 0010 3046     		mov	r0, r6
 6579 0012 FFF7FEFF 		bl	strlen
 6580              	.LVL499:
 6581 0016 0246     		mov	r2, r0
 6582 0018 0021     		movs	r1, #0
 6583 001a 3046     		mov	r0, r6
 6584 001c FFF7FEFF 		bl	memset
 6585              	.LVL500:
1350:Core/Src/esp32.c ****         if (Wifi_WaitForString(waitTime, &result, 1, "+MQTTSUBRECV") == false)
 6586              		.loc 1 1350 9 is_stmt 1 view .LVU1456
 6587              		.loc 1 1350 13 is_stmt 0 view .LVU1457
 6588 0020 0F4B     		ldr	r3, .L444
 6589 0022 0122     		movs	r2, #1
 6590 0024 0DF10F01 		add	r1, sp, #15
 6591 0028 2846     		mov	r0, r5
 6592 002a FFF7FEFF 		bl	Wifi_WaitForString
 6593              	.LVL501:
 6594              		.loc 1 1350 12 view .LVU1458
 6595 002e 0546     		mov	r5, r0
 6596              	.LVL502:
 6597              		.loc 1 1350 12 view .LVU1459
 6598 0030 10B9     		cbnz	r0, .L443
ARM GAS  /var/folders/9y/n02fl3g16gnf7ppy14xghdy80000gn/T//ccqH5YoF.s 			page 156


 6599              	.L441:
 6600              	.LVL503:
 6601              		.loc 1 1350 12 view .LVU1460
 6602              	.LBE23:
1351:Core/Src/esp32.c ****             break; // The timeout was completed and the string was not there
1352:Core/Src/esp32.c **** 
1353:Core/Src/esp32.c ****         char *str = strstr((char *)Buffs.RxBuffer.buff, "+MQTTSUBRECV");
1354:Core/Src/esp32.c ****         if (sscanf(str, "+MQTTSUBRECV:0,\"%[^\"]\",%zu,%[^\r]", Message->topic, &Message->length, M
1355:Core/Src/esp32.c ****             break;
1356:Core/Src/esp32.c **** 
1357:Core/Src/esp32.c ****         returnVal = true;
1358:Core/Src/esp32.c ****     } while (0);
 6603              		.loc 1 1358 13 is_stmt 1 view .LVU1461
1359:Core/Src/esp32.c ****     return returnVal;
 6604              		.loc 1 1359 5 view .LVU1462
1360:Core/Src/esp32.c **** }
 6605              		.loc 1 1360 1 is_stmt 0 view .LVU1463
 6606 0032 2846     		mov	r0, r5
 6607 0034 04B0     		add	sp, sp, #16
 6608              		.cfi_remember_state
 6609              		.cfi_def_cfa_offset 16
 6610              		@ sp needed
 6611 0036 70BD     		pop	{r4, r5, r6, pc}
 6612              	.LVL504:
 6613              	.L443:
 6614              		.cfi_restore_state
 6615              	.LBB24:
1353:Core/Src/esp32.c ****         if (sscanf(str, "+MQTTSUBRECV:0,\"%[^\"]\",%zu,%[^\r]", Message->topic, &Message->length, M
 6616              		.loc 1 1353 9 is_stmt 1 view .LVU1464
1353:Core/Src/esp32.c ****         if (sscanf(str, "+MQTTSUBRECV:0,\"%[^\"]\",%zu,%[^\r]", Message->topic, &Message->length, M
 6617              		.loc 1 1353 21 is_stmt 0 view .LVU1465
 6618 0038 0949     		ldr	r1, .L444
 6619 003a 0A4B     		ldr	r3, .L444+4
 6620 003c D3F80008 		ldr	r0, [r3, #2048]
 6621 0040 FFF7FEFF 		bl	strstr
 6622              	.LVL505:
1354:Core/Src/esp32.c ****             break;
 6623              		.loc 1 1354 9 is_stmt 1 view .LVU1466
1354:Core/Src/esp32.c ****             break;
 6624              		.loc 1 1354 13 is_stmt 0 view .LVU1467
 6625 0044 D4F88030 		ldr	r3, [r4, #128]
 6626 0048 0093     		str	r3, [sp]
 6627 004a 04F18403 		add	r3, r4, #132
 6628 004e 2246     		mov	r2, r4
 6629 0050 0549     		ldr	r1, .L444+8
 6630 0052 FFF7FEFF 		bl	sscanf
 6631              	.LVL506:
1354:Core/Src/esp32.c ****             break;
 6632              		.loc 1 1354 12 view .LVU1468
 6633 0056 0028     		cmp	r0, #0
 6634 0058 EBD1     		bne	.L441
 6635              	.LBE24:
1345:Core/Src/esp32.c ****     do
 6636              		.loc 1 1345 10 view .LVU1469
 6637 005a 0025     		movs	r5, #0
 6638 005c E9E7     		b	.L441
 6639              	.L445:
ARM GAS  /var/folders/9y/n02fl3g16gnf7ppy14xghdy80000gn/T//ccqH5YoF.s 			page 157


 6640 005e 00BF     		.align	2
 6641              	.L444:
 6642 0060 00000000 		.word	.LC85
 6643 0064 00000000 		.word	Buffs
 6644 0068 10000000 		.word	.LC86
 6645              		.cfi_endproc
 6646              	.LFE1212:
 6648              		.section	.text.MQTT_ListenForMessage,"ax",%progbits
 6649              		.align	1
 6650              		.global	MQTT_ListenForMessage
 6651              		.syntax unified
 6652              		.thumb
 6653              		.thumb_func
 6654              		.fpu fpv4-sp-d16
 6656              	MQTT_ListenForMessage:
 6657              	.LVL507:
 6658              	.LFB1213:
1361:Core/Src/esp32.c **** // ################################################################################################
1362:Core/Src/esp32.c **** bool MQTT_ListenForMessage(MQTT_Message_t *Message, char *findStr, size_t* start_idx)
1363:Core/Src/esp32.c **** {
 6659              		.loc 1 1363 1 is_stmt 1 view -0
 6660              		.cfi_startproc
 6661              		@ args = 0, pretend = 0, frame = 24
 6662              		@ frame_needed = 0, uses_anonymous_args = 0
 6663              		.loc 1 1363 1 is_stmt 0 view .LVU1471
 6664 0000 70B5     		push	{r4, r5, r6, lr}
 6665              		.cfi_def_cfa_offset 16
 6666              		.cfi_offset 4, -16
 6667              		.cfi_offset 5, -12
 6668              		.cfi_offset 6, -8
 6669              		.cfi_offset 14, -4
 6670 0002 88B0     		sub	sp, sp, #32
 6671              		.cfi_def_cfa_offset 48
 6672 0004 0646     		mov	r6, r0
 6673 0006 0C46     		mov	r4, r1
 6674 0008 1546     		mov	r5, r2
1364:Core/Src/esp32.c ****     bool returnVal = false;
 6675              		.loc 1 1364 5 is_stmt 1 view .LVU1472
 6676              	.LVL508:
1365:Core/Src/esp32.c ****     size_t find_idx = 0;
 6677              		.loc 1 1365 5 view .LVU1473
 6678              		.loc 1 1365 12 is_stmt 0 view .LVU1474
 6679 000a 0023     		movs	r3, #0
 6680 000c 0793     		str	r3, [sp, #28]
1366:Core/Src/esp32.c ****     char* items[3];
 6681              		.loc 1 1366 5 is_stmt 1 view .LVU1475
1367:Core/Src/esp32.c ****     uint8_t items_size;
 6682              		.loc 1 1367 5 view .LVU1476
1368:Core/Src/esp32.c ****     do
 6683              		.loc 1 1368 5 view .LVU1477
1369:Core/Src/esp32.c ****     {
1370:Core/Src/esp32.c ****         if (lwrb_find(&Buffs.RxBuffer, (void *)findStr, strlen(findStr), *start_idx, &find_idx))
 6684              		.loc 1 1370 9 view .LVU1478
 6685              		.loc 1 1370 13 is_stmt 0 view .LVU1479
 6686 000e 0846     		mov	r0, r1
 6687              	.LVL509:
 6688              		.loc 1 1370 13 view .LVU1480
ARM GAS  /var/folders/9y/n02fl3g16gnf7ppy14xghdy80000gn/T//ccqH5YoF.s 			page 158


 6689 0010 FFF7FEFF 		bl	strlen
 6690              	.LVL510:
 6691              		.loc 1 1370 13 view .LVU1481
 6692 0014 0246     		mov	r2, r0
 6693 0016 07AB     		add	r3, sp, #28
 6694 0018 0093     		str	r3, [sp]
 6695 001a 2B68     		ldr	r3, [r5]
 6696 001c 2146     		mov	r1, r4
 6697 001e 1248     		ldr	r0, .L451
 6698 0020 FFF7FEFF 		bl	lwrb_find
 6699              	.LVL511:
 6700              		.loc 1 1370 12 view .LVU1482
 6701 0024 18B9     		cbnz	r0, .L450
1364:Core/Src/esp32.c ****     size_t find_idx = 0;
 6702              		.loc 1 1364 10 view .LVU1483
 6703 0026 0024     		movs	r4, #0
 6704              	.LVL512:
 6705              	.L447:
1371:Core/Src/esp32.c ****         {
1372:Core/Src/esp32.c ****             char *str = (char *)Buffs.RxBuffer.buff + find_idx;
1373:Core/Src/esp32.c ****             *start_idx = find_idx;   // start new search at last index
1374:Core/Src/esp32.c ****             if (!split_string(str, items, &items_size))
1375:Core/Src/esp32.c ****                 break;
1376:Core/Src/esp32.c ****             strcpy(Message->topic, items[0]);
1377:Core/Src/esp32.c ****             Message->length = atoi(items[1]);
1378:Core/Src/esp32.c ****             strcpy(Message->data, items[2]);
1379:Core/Src/esp32.c ****             returnVal = true;
1380:Core/Src/esp32.c ****         }
1381:Core/Src/esp32.c **** 
1382:Core/Src/esp32.c ****     } while (0);
 6706              		.loc 1 1382 13 is_stmt 1 view .LVU1484
1383:Core/Src/esp32.c ****     return returnVal;
 6707              		.loc 1 1383 5 view .LVU1485
1384:Core/Src/esp32.c **** }...
 6708              		.loc 1 1384 1 is_stmt 0 view .LVU1486
 6709 0028 2046     		mov	r0, r4
 6710 002a 08B0     		add	sp, sp, #32
 6711              		.cfi_remember_state
 6712              		.cfi_def_cfa_offset 16
 6713              		@ sp needed
 6714 002c 70BD     		pop	{r4, r5, r6, pc}
 6715              	.LVL513:
 6716              	.L450:
 6717              		.cfi_restore_state
 6718              	.LBB25:
1372:Core/Src/esp32.c ****             char *str = (char *)Buffs.RxBuffer.buff + find_idx;
 6719              		.loc 1 1372 13 is_stmt 1 view .LVU1487
1372:Core/Src/esp32.c ****             char *str = (char *)Buffs.RxBuffer.buff + find_idx;
 6720              		.loc 1 1372 47 is_stmt 0 view .LVU1488
 6721 002e 0F4B     		ldr	r3, .L451+4
 6722 0030 D3F80008 		ldr	r0, [r3, #2048]
1372:Core/Src/esp32.c ****             char *str = (char *)Buffs.RxBuffer.buff + find_idx;
 6723              		.loc 1 1372 53 view .LVU1489
 6724 0034 079B     		ldr	r3, [sp, #28]
 6725              	.LVL514:
1373:Core/Src/esp32.c ****             *start_idx = find_idx;   // start new search at last index
 6726              		.loc 1 1373 13 is_stmt 1 view .LVU1490
ARM GAS  /var/folders/9y/n02fl3g16gnf7ppy14xghdy80000gn/T//ccqH5YoF.s 			page 159


1373:Core/Src/esp32.c ****             *start_idx = find_idx;   // start new search at last index
 6727              		.loc 1 1373 24 is_stmt 0 view .LVU1491
 6728 0036 2B60     		str	r3, [r5]
1374:Core/Src/esp32.c ****             if (!split_string(str, items, &items_size))
 6729              		.loc 1 1374 13 is_stmt 1 view .LVU1492
1374:Core/Src/esp32.c ****             if (!split_string(str, items, &items_size))
 6730              		.loc 1 1374 18 is_stmt 0 view .LVU1493
 6731 0038 0DF10F02 		add	r2, sp, #15
 6732 003c 04A9     		add	r1, sp, #16
 6733 003e 1844     		add	r0, r0, r3
 6734              	.LVL515:
1374:Core/Src/esp32.c ****             if (!split_string(str, items, &items_size))
 6735              		.loc 1 1374 18 view .LVU1494
 6736 0040 FFF7FEFF 		bl	split_string
 6737              	.LVL516:
1374:Core/Src/esp32.c ****             if (!split_string(str, items, &items_size))
 6738              		.loc 1 1374 16 view .LVU1495
 6739 0044 0446     		mov	r4, r0
 6740              	.LVL517:
1374:Core/Src/esp32.c ****             if (!split_string(str, items, &items_size))
 6741              		.loc 1 1374 16 view .LVU1496
 6742 0046 0028     		cmp	r0, #0
 6743 0048 EED0     		beq	.L447
1376:Core/Src/esp32.c ****             strcpy(Message->topic, items[0]);
 6744              		.loc 1 1376 13 is_stmt 1 view .LVU1497
 6745 004a 0499     		ldr	r1, [sp, #16]
 6746 004c 3046     		mov	r0, r6
 6747 004e FFF7FEFF 		bl	strcpy
 6748              	.LVL518:
1377:Core/Src/esp32.c ****             Message->length = atoi(items[1]);
 6749              		.loc 1 1377 13 view .LVU1498
1377:Core/Src/esp32.c ****             Message->length = atoi(items[1]);
 6750              		.loc 1 1377 31 is_stmt 0 view .LVU1499
 6751 0052 0598     		ldr	r0, [sp, #20]
 6752 0054 FFF7FEFF 		bl	atoi
 6753              	.LVL519:
1377:Core/Src/esp32.c ****             Message->length = atoi(items[1]);
 6754              		.loc 1 1377 29 view .LVU1500
 6755 0058 C6F88400 		str	r0, [r6, #132]
1378:Core/Src/esp32.c ****             strcpy(Message->data, items[2]);
 6756              		.loc 1 1378 13 is_stmt 1 view .LVU1501
 6757 005c 0699     		ldr	r1, [sp, #24]
 6758 005e D6F88000 		ldr	r0, [r6, #128]
 6759 0062 FFF7FEFF 		bl	strcpy
 6760              	.LVL520:
1379:Core/Src/esp32.c ****             returnVal = true;
 6761              		.loc 1 1379 13 view .LVU1502
1379:Core/Src/esp32.c ****             returnVal = true;
 6762              		.loc 1 1379 13 is_stmt 0 view .LVU1503
 6763 0066 DFE7     		b	.L447
 6764              	.L452:
 6765              		.align	2
 6766              	.L451:
 6767 0068 00080000 		.word	Buffs+2048
 6768 006c 00000000 		.word	Buffs
 6769              	.LBE25:
 6770              		.cfi_endproc
ARM GAS  /var/folders/9y/n02fl3g16gnf7ppy14xghdy80000gn/T//ccqH5YoF.s 			page 160


 6771              	.LFE1213:
 6773              		.global	SNTP
 6774              		.global	MQTT
 6775              		.global	Wifi
 6776              		.section	.bss.MQTT,"aw",%nobits
 6777              		.align	2
 6778              		.set	.LANCHOR2,. + 0
 6781              	MQTT:
 6782 0000 00000000 		.space	552
 6782      00000000 
 6782      00000000 
 6782      00000000 
 6782      00000000 
 6783              		.section	.bss.SNTP,"aw",%nobits
 6784              		.align	2
 6785              		.set	.LANCHOR1,. + 0
 6788              	SNTP:
 6789 0000 00000000 		.space	32
 6789      00000000 
 6789      00000000 
 6789      00000000 
 6789      00000000 
 6790              		.section	.bss.Wifi,"aw",%nobits
 6791              		.align	2
 6792              		.set	.LANCHOR0,. + 0
 6795              	Wifi:
 6796 0000 00000000 		.space	428
 6796      00000000 
 6796      00000000 
 6796      00000000 
 6796      00000000 
 6797              		.section	.bss.items.0,"aw",%nobits
 6798              		.align	2
 6799              		.set	.LANCHOR3,. + 0
 6802              	items.0:
 6803 0000 00000000 		.space	24
 6803      00000000 
 6803      00000000 
 6803      00000000 
 6803      00000000 
 6804              		.text
 6805              	.Letext0:
 6806              		.file 2 "/opt/homebrew/Cellar/arm-none-eabi-gcc/10.3-2021.07/gcc/arm-none-eabi/include/machine/_de
 6807              		.file 3 "/opt/homebrew/Cellar/arm-none-eabi-gcc/10.3-2021.07/gcc/arm-none-eabi/include/sys/_stdint
 6808              		.file 4 "/opt/homebrew/Cellar/arm-none-eabi-gcc/10.3-2021.07/gcc/lib/gcc/arm-none-eabi/10.3.1/incl
 6809              		.file 5 "/opt/homebrew/Cellar/arm-none-eabi-gcc/10.3-2021.07/gcc/lib/gcc/arm-none-eabi/10.3.1/incl
 6810              		.file 6 "/opt/homebrew/Cellar/arm-none-eabi-gcc/10.3-2021.07/gcc/arm-none-eabi/include/stdio.h"
 6811              		.file 7 "Middlewares/Third_Party/lwrb/../lwrb/lwrb.h"
 6812              		.file 8 "Core/Inc/usart.h"
 6813              		.file 9 "Core/Inc/esp32.h"
 6814              		.file 10 "Drivers/STM32L4xx_HAL_Driver/Inc/stm32l4xx_ll_dma.h"
 6815              		.file 11 "Core/Inc/utilities.h"
 6816              		.file 12 "/opt/homebrew/Cellar/arm-none-eabi-gcc/10.3-2021.07/gcc/arm-none-eabi/include/string.h"
 6817              		.file 13 "/opt/homebrew/Cellar/arm-none-eabi-gcc/10.3-2021.07/gcc/arm-none-eabi/include/stdlib.h"
 6818              		.file 14 "<built-in>"
 6819              		.file 15 "Core/Inc/dwt_system.h"
ARM GAS  /var/folders/9y/n02fl3g16gnf7ppy14xghdy80000gn/T//ccqH5YoF.s 			page 161


DEFINED SYMBOLS
                            *ABS*:0000000000000000 esp32.c
/var/folders/9y/n02fl3g16gnf7ppy14xghdy80000gn/T//ccqH5YoF.s:18     .text.Wifi_SendRaw:0000000000000000 $t
/var/folders/9y/n02fl3g16gnf7ppy14xghdy80000gn/T//ccqH5YoF.s:26     .text.Wifi_SendRaw:0000000000000000 Wifi_SendRaw
/var/folders/9y/n02fl3g16gnf7ppy14xghdy80000gn/T//ccqH5YoF.s:62     .text.Wifi_SendString:0000000000000000 $t
/var/folders/9y/n02fl3g16gnf7ppy14xghdy80000gn/T//ccqH5YoF.s:69     .text.Wifi_SendString:0000000000000000 Wifi_SendString
/var/folders/9y/n02fl3g16gnf7ppy14xghdy80000gn/T//ccqH5YoF.s:98     .text.Wifi_SendStringAndWait:0000000000000000 $t
/var/folders/9y/n02fl3g16gnf7ppy14xghdy80000gn/T//ccqH5YoF.s:105    .text.Wifi_SendStringAndWait:0000000000000000 Wifi_SendStringAndWait
/var/folders/9y/n02fl3g16gnf7ppy14xghdy80000gn/T//ccqH5YoF.s:151    .text.Wifi_WaitForString:0000000000000000 $t
/var/folders/9y/n02fl3g16gnf7ppy14xghdy80000gn/T//ccqH5YoF.s:158    .text.Wifi_WaitForString:0000000000000000 Wifi_WaitForString
/var/folders/9y/n02fl3g16gnf7ppy14xghdy80000gn/T//ccqH5YoF.s:351    .text.Wifi_WaitForString:0000000000000098 $d
/var/folders/9y/n02fl3g16gnf7ppy14xghdy80000gn/T//ccqH5YoF.s:356    .text.Wifi_ReturnString:0000000000000000 $t
/var/folders/9y/n02fl3g16gnf7ppy14xghdy80000gn/T//ccqH5YoF.s:363    .text.Wifi_ReturnString:0000000000000000 Wifi_ReturnString
/var/folders/9y/n02fl3g16gnf7ppy14xghdy80000gn/T//ccqH5YoF.s:482    .text.Wifi_ReturnString:0000000000000050 $d
/var/folders/9y/n02fl3g16gnf7ppy14xghdy80000gn/T//ccqH5YoF.s:487    .text.Wifi_ReturnStrings:0000000000000000 $t
/var/folders/9y/n02fl3g16gnf7ppy14xghdy80000gn/T//ccqH5YoF.s:494    .text.Wifi_ReturnStrings:0000000000000000 Wifi_ReturnStrings
/var/folders/9y/n02fl3g16gnf7ppy14xghdy80000gn/T//ccqH5YoF.s:675    .text.Wifi_ReturnInteger:0000000000000000 $t
/var/folders/9y/n02fl3g16gnf7ppy14xghdy80000gn/T//ccqH5YoF.s:682    .text.Wifi_ReturnInteger:0000000000000000 Wifi_ReturnInteger
/var/folders/9y/n02fl3g16gnf7ppy14xghdy80000gn/T//ccqH5YoF.s:736    .text.Wifi_ReturnInteger:000000000000002c $d
/var/folders/9y/n02fl3g16gnf7ppy14xghdy80000gn/T//ccqH5YoF.s:742    .text.Wifi_ReturnFloat:0000000000000000 $t
/var/folders/9y/n02fl3g16gnf7ppy14xghdy80000gn/T//ccqH5YoF.s:749    .text.Wifi_ReturnFloat:0000000000000000 Wifi_ReturnFloat
/var/folders/9y/n02fl3g16gnf7ppy14xghdy80000gn/T//ccqH5YoF.s:806    .text.Wifi_ReturnFloat:0000000000000034 $d
/var/folders/9y/n02fl3g16gnf7ppy14xghdy80000gn/T//ccqH5YoF.s:811    .text.Wifi_RemoveChar:0000000000000000 $t
/var/folders/9y/n02fl3g16gnf7ppy14xghdy80000gn/T//ccqH5YoF.s:818    .text.Wifi_RemoveChar:0000000000000000 Wifi_RemoveChar
/var/folders/9y/n02fl3g16gnf7ppy14xghdy80000gn/T//ccqH5YoF.s:866    .text.Wifi_RxClear:0000000000000000 $t
/var/folders/9y/n02fl3g16gnf7ppy14xghdy80000gn/T//ccqH5YoF.s:873    .text.Wifi_RxClear:0000000000000000 Wifi_RxClear
/var/folders/9y/n02fl3g16gnf7ppy14xghdy80000gn/T//ccqH5YoF.s:892    .text.Wifi_RxClear:000000000000000c $d
/var/folders/9y/n02fl3g16gnf7ppy14xghdy80000gn/T//ccqH5YoF.s:897    .text.Wifi_TxClear:0000000000000000 $t
/var/folders/9y/n02fl3g16gnf7ppy14xghdy80000gn/T//ccqH5YoF.s:904    .text.Wifi_TxClear:0000000000000000 Wifi_TxClear
/var/folders/9y/n02fl3g16gnf7ppy14xghdy80000gn/T//ccqH5YoF.s:925    .text.Wifi_TxClear:0000000000000010 $d
/var/folders/9y/n02fl3g16gnf7ppy14xghdy80000gn/T//ccqH5YoF.s:930    .text.Wifi_RxCallBack:0000000000000000 $t
/var/folders/9y/n02fl3g16gnf7ppy14xghdy80000gn/T//ccqH5YoF.s:937    .text.Wifi_RxCallBack:0000000000000000 Wifi_RxCallBack
/var/folders/9y/n02fl3g16gnf7ppy14xghdy80000gn/T//ccqH5YoF.s:950    .rodata.Wifi_Init.str1.4:0000000000000000 $d
/var/folders/9y/n02fl3g16gnf7ppy14xghdy80000gn/T//ccqH5YoF.s:960    .text.Wifi_Init:0000000000000000 $t
/var/folders/9y/n02fl3g16gnf7ppy14xghdy80000gn/T//ccqH5YoF.s:967    .text.Wifi_Init:0000000000000000 Wifi_Init
/var/folders/9y/n02fl3g16gnf7ppy14xghdy80000gn/T//ccqH5YoF.s:1041   .text.Wifi_Init:0000000000000044 $d
/var/folders/9y/n02fl3g16gnf7ppy14xghdy80000gn/T//ccqH5YoF.s:1048   .rodata.Wifi_Restart.str1.4:0000000000000000 $d
/var/folders/9y/n02fl3g16gnf7ppy14xghdy80000gn/T//ccqH5YoF.s:1052   .text.Wifi_Restart:0000000000000000 $t
/var/folders/9y/n02fl3g16gnf7ppy14xghdy80000gn/T//ccqH5YoF.s:1059   .text.Wifi_Restart:0000000000000000 Wifi_Restart
/var/folders/9y/n02fl3g16gnf7ppy14xghdy80000gn/T//ccqH5YoF.s:1130   .text.Wifi_Restart:0000000000000044 $d
/var/folders/9y/n02fl3g16gnf7ppy14xghdy80000gn/T//ccqH5YoF.s:1138   .rodata.Wifi_DeepSleep.str1.4:0000000000000000 $d
/var/folders/9y/n02fl3g16gnf7ppy14xghdy80000gn/T//ccqH5YoF.s:1142   .text.Wifi_DeepSleep:0000000000000000 $t
/var/folders/9y/n02fl3g16gnf7ppy14xghdy80000gn/T//ccqH5YoF.s:1149   .text.Wifi_DeepSleep:0000000000000000 Wifi_DeepSleep
/var/folders/9y/n02fl3g16gnf7ppy14xghdy80000gn/T//ccqH5YoF.s:1224   .text.Wifi_DeepSleep:0000000000000048 $d
/var/folders/9y/n02fl3g16gnf7ppy14xghdy80000gn/T//ccqH5YoF.s:1232   .rodata.Wifi_FactoryReset.str1.4:0000000000000000 $d
/var/folders/9y/n02fl3g16gnf7ppy14xghdy80000gn/T//ccqH5YoF.s:1236   .text.Wifi_FactoryReset:0000000000000000 $t
/var/folders/9y/n02fl3g16gnf7ppy14xghdy80000gn/T//ccqH5YoF.s:1243   .text.Wifi_FactoryReset:0000000000000000 Wifi_FactoryReset
/var/folders/9y/n02fl3g16gnf7ppy14xghdy80000gn/T//ccqH5YoF.s:1314   .text.Wifi_FactoryReset:0000000000000048 $d
/var/folders/9y/n02fl3g16gnf7ppy14xghdy80000gn/T//ccqH5YoF.s:1322   .rodata.Wifi_Update.str1.4:0000000000000000 $d
/var/folders/9y/n02fl3g16gnf7ppy14xghdy80000gn/T//ccqH5YoF.s:1326   .text.Wifi_Update:0000000000000000 $t
/var/folders/9y/n02fl3g16gnf7ppy14xghdy80000gn/T//ccqH5YoF.s:1333   .text.Wifi_Update:0000000000000000 Wifi_Update
/var/folders/9y/n02fl3g16gnf7ppy14xghdy80000gn/T//ccqH5YoF.s:1404   .text.Wifi_Update:0000000000000048 $d
/var/folders/9y/n02fl3g16gnf7ppy14xghdy80000gn/T//ccqH5YoF.s:1413   .rodata.Wifi_SetRfPower.str1.4:0000000000000000 $d
/var/folders/9y/n02fl3g16gnf7ppy14xghdy80000gn/T//ccqH5YoF.s:1417   .text.Wifi_SetRfPower:0000000000000000 $t
/var/folders/9y/n02fl3g16gnf7ppy14xghdy80000gn/T//ccqH5YoF.s:1424   .text.Wifi_SetRfPower:0000000000000000 Wifi_SetRfPower
/var/folders/9y/n02fl3g16gnf7ppy14xghdy80000gn/T//ccqH5YoF.s:1499   .text.Wifi_SetRfPower:0000000000000048 $d
/var/folders/9y/n02fl3g16gnf7ppy14xghdy80000gn/T//ccqH5YoF.s:1507   .rodata.Wifi_SetMode.str1.4:0000000000000000 $d
ARM GAS  /var/folders/9y/n02fl3g16gnf7ppy14xghdy80000gn/T//ccqH5YoF.s 			page 162


/var/folders/9y/n02fl3g16gnf7ppy14xghdy80000gn/T//ccqH5YoF.s:1511   .text.Wifi_SetMode:0000000000000000 $t
/var/folders/9y/n02fl3g16gnf7ppy14xghdy80000gn/T//ccqH5YoF.s:1518   .text.Wifi_SetMode:0000000000000000 Wifi_SetMode
/var/folders/9y/n02fl3g16gnf7ppy14xghdy80000gn/T//ccqH5YoF.s:1603   .text.Wifi_SetMode:000000000000004c $d
/var/folders/9y/n02fl3g16gnf7ppy14xghdy80000gn/T//ccqH5YoF.s:1612   .rodata.Wifi_GetMode.str1.4:0000000000000000 $d
/var/folders/9y/n02fl3g16gnf7ppy14xghdy80000gn/T//ccqH5YoF.s:1619   .text.Wifi_GetMode:0000000000000000 $t
/var/folders/9y/n02fl3g16gnf7ppy14xghdy80000gn/T//ccqH5YoF.s:1626   .text.Wifi_GetMode:0000000000000000 Wifi_GetMode
/var/folders/9y/n02fl3g16gnf7ppy14xghdy80000gn/T//ccqH5YoF.s:1725   .text.Wifi_GetMode:0000000000000070 $d
/var/folders/9y/n02fl3g16gnf7ppy14xghdy80000gn/T//ccqH5YoF.s:1735   .rodata.Wifi_GetMyIp.str1.4:0000000000000000 $d
/var/folders/9y/n02fl3g16gnf7ppy14xghdy80000gn/T//ccqH5YoF.s:1745   .text.Wifi_GetMyIp:0000000000000000 $t
/var/folders/9y/n02fl3g16gnf7ppy14xghdy80000gn/T//ccqH5YoF.s:1752   .text.Wifi_GetMyIp:0000000000000000 Wifi_GetMyIp
/var/folders/9y/n02fl3g16gnf7ppy14xghdy80000gn/T//ccqH5YoF.s:1850   .text.Wifi_GetMyIp:0000000000000070 $d
/var/folders/9y/n02fl3g16gnf7ppy14xghdy80000gn/T//ccqH5YoF.s:1862   .rodata.Wifi_Station_ConnectToAp.str1.4:0000000000000000 $d
/var/folders/9y/n02fl3g16gnf7ppy14xghdy80000gn/T//ccqH5YoF.s:1878   .text.Wifi_Station_ConnectToAp:0000000000000000 $t
/var/folders/9y/n02fl3g16gnf7ppy14xghdy80000gn/T//ccqH5YoF.s:1885   .text.Wifi_Station_ConnectToAp:0000000000000000 Wifi_Station_ConnectToAp
/var/folders/9y/n02fl3g16gnf7ppy14xghdy80000gn/T//ccqH5YoF.s:1979   .text.Wifi_Station_ConnectToAp:0000000000000060 $d
/var/folders/9y/n02fl3g16gnf7ppy14xghdy80000gn/T//ccqH5YoF.s:1989   .rodata.Wifi_Station_Disconnect.str1.4:0000000000000000 $d
/var/folders/9y/n02fl3g16gnf7ppy14xghdy80000gn/T//ccqH5YoF.s:1993   .text.Wifi_Station_Disconnect:0000000000000000 $t
/var/folders/9y/n02fl3g16gnf7ppy14xghdy80000gn/T//ccqH5YoF.s:2000   .text.Wifi_Station_Disconnect:0000000000000000 Wifi_Station_Disconnect
/var/folders/9y/n02fl3g16gnf7ppy14xghdy80000gn/T//ccqH5YoF.s:2073   .text.Wifi_Station_Disconnect:000000000000004c $d
/var/folders/9y/n02fl3g16gnf7ppy14xghdy80000gn/T//ccqH5YoF.s:2081   .rodata.Wifi_Station_SetIp.str1.4:0000000000000000 $d
/var/folders/9y/n02fl3g16gnf7ppy14xghdy80000gn/T//ccqH5YoF.s:2085   .text.Wifi_Station_SetIp:0000000000000000 $t
/var/folders/9y/n02fl3g16gnf7ppy14xghdy80000gn/T//ccqH5YoF.s:2092   .text.Wifi_Station_SetIp:0000000000000000 Wifi_Station_SetIp
/var/folders/9y/n02fl3g16gnf7ppy14xghdy80000gn/T//ccqH5YoF.s:2184   .text.Wifi_Station_SetIp:0000000000000058 $d
/var/folders/9y/n02fl3g16gnf7ppy14xghdy80000gn/T//ccqH5YoF.s:2193   .rodata.Wifi_Station_DhcpEnable.str1.4:0000000000000000 $d
/var/folders/9y/n02fl3g16gnf7ppy14xghdy80000gn/T//ccqH5YoF.s:2197   .text.Wifi_Station_DhcpEnable:0000000000000000 $t
/var/folders/9y/n02fl3g16gnf7ppy14xghdy80000gn/T//ccqH5YoF.s:2204   .text.Wifi_Station_DhcpEnable:0000000000000000 Wifi_Station_DhcpEnable
/var/folders/9y/n02fl3g16gnf7ppy14xghdy80000gn/T//ccqH5YoF.s:2289   .text.Wifi_Station_DhcpEnable:0000000000000050 $d
/var/folders/9y/n02fl3g16gnf7ppy14xghdy80000gn/T//ccqH5YoF.s:2298   .rodata.Wifi_Station_DhcpIsEnable.str1.4:0000000000000000 $d
/var/folders/9y/n02fl3g16gnf7ppy14xghdy80000gn/T//ccqH5YoF.s:2302   .text.Wifi_Station_DhcpIsEnable:0000000000000000 $t
/var/folders/9y/n02fl3g16gnf7ppy14xghdy80000gn/T//ccqH5YoF.s:2309   .text.Wifi_Station_DhcpIsEnable:0000000000000000 Wifi_Station_DhcpIsEnable
/var/folders/9y/n02fl3g16gnf7ppy14xghdy80000gn/T//ccqH5YoF.s:2394   .text.Wifi_Station_DhcpIsEnable:0000000000000064 $d
/var/folders/9y/n02fl3g16gnf7ppy14xghdy80000gn/T//ccqH5YoF.s:2398   .text.Wifi_Station_DhcpIsEnable:0000000000000068 $t
/var/folders/9y/n02fl3g16gnf7ppy14xghdy80000gn/T//ccqH5YoF.s:2448   .text.Wifi_Station_DhcpIsEnable:00000000000000a4 $d
/var/folders/9y/n02fl3g16gnf7ppy14xghdy80000gn/T//ccqH5YoF.s:2458   .rodata.Wifi_SoftAp_Create.str1.4:0000000000000000 $d
/var/folders/9y/n02fl3g16gnf7ppy14xghdy80000gn/T//ccqH5YoF.s:2462   .text.Wifi_SoftAp_Create:0000000000000000 $t
/var/folders/9y/n02fl3g16gnf7ppy14xghdy80000gn/T//ccqH5YoF.s:2469   .text.Wifi_SoftAp_Create:0000000000000000 Wifi_SoftAp_Create
/var/folders/9y/n02fl3g16gnf7ppy14xghdy80000gn/T//ccqH5YoF.s:2557   .text.Wifi_SoftAp_Create:0000000000000064 $d
/var/folders/9y/n02fl3g16gnf7ppy14xghdy80000gn/T//ccqH5YoF.s:2565   .rodata.Wifi_GetApConnection.str1.4:0000000000000000 $d
/var/folders/9y/n02fl3g16gnf7ppy14xghdy80000gn/T//ccqH5YoF.s:2575   .text.Wifi_GetApConnection:0000000000000000 $t
/var/folders/9y/n02fl3g16gnf7ppy14xghdy80000gn/T//ccqH5YoF.s:2582   .text.Wifi_GetApConnection:0000000000000000 Wifi_GetApConnection
/var/folders/9y/n02fl3g16gnf7ppy14xghdy80000gn/T//ccqH5YoF.s:2743   .text.Wifi_GetApConnection:00000000000000a8 $d
/var/folders/9y/n02fl3g16gnf7ppy14xghdy80000gn/T//ccqH5YoF.s:2755   .rodata.Wifi_SoftAp_GetConnectedDevices.str1.4:0000000000000000 $d
/var/folders/9y/n02fl3g16gnf7ppy14xghdy80000gn/T//ccqH5YoF.s:2762   .text.Wifi_SoftAp_GetConnectedDevices:0000000000000000 $t
/var/folders/9y/n02fl3g16gnf7ppy14xghdy80000gn/T//ccqH5YoF.s:2769   .text.Wifi_SoftAp_GetConnectedDevices:0000000000000000 Wifi_SoftAp_GetConnectedDevices
/var/folders/9y/n02fl3g16gnf7ppy14xghdy80000gn/T//ccqH5YoF.s:2941   .text.Wifi_SoftAp_GetConnectedDevices:00000000000000f4 $d
/var/folders/9y/n02fl3g16gnf7ppy14xghdy80000gn/T//ccqH5YoF.s:2953   .rodata.Wifi_TcpIp_GetConnectionStatus.str1.4:0000000000000000 $d
/var/folders/9y/n02fl3g16gnf7ppy14xghdy80000gn/T//ccqH5YoF.s:2966   .text.Wifi_TcpIp_GetConnectionStatus:0000000000000000 $t
/var/folders/9y/n02fl3g16gnf7ppy14xghdy80000gn/T//ccqH5YoF.s:2973   .text.Wifi_TcpIp_GetConnectionStatus:0000000000000000 Wifi_TcpIp_GetConnectionStatus
/var/folders/9y/n02fl3g16gnf7ppy14xghdy80000gn/T//ccqH5YoF.s:3197   .text.Wifi_TcpIp_GetConnectionStatus:0000000000000104 $d
/var/folders/9y/n02fl3g16gnf7ppy14xghdy80000gn/T//ccqH5YoF.s:3210   .rodata.Wifi_TcpIp_Ping.str1.4:0000000000000000 $d
/var/folders/9y/n02fl3g16gnf7ppy14xghdy80000gn/T//ccqH5YoF.s:3217   .text.Wifi_TcpIp_Ping:0000000000000000 $t
/var/folders/9y/n02fl3g16gnf7ppy14xghdy80000gn/T//ccqH5YoF.s:3224   .text.Wifi_TcpIp_Ping:0000000000000000 Wifi_TcpIp_Ping
/var/folders/9y/n02fl3g16gnf7ppy14xghdy80000gn/T//ccqH5YoF.s:3308   .text.Wifi_TcpIp_Ping:0000000000000054 $d
/var/folders/9y/n02fl3g16gnf7ppy14xghdy80000gn/T//ccqH5YoF.s:3318   .rodata.Wifi_TcpIp_SetMultiConnection.str1.4:0000000000000000 $d
/var/folders/9y/n02fl3g16gnf7ppy14xghdy80000gn/T//ccqH5YoF.s:3322   .text.Wifi_TcpIp_SetMultiConnection:0000000000000000 $t
/var/folders/9y/n02fl3g16gnf7ppy14xghdy80000gn/T//ccqH5YoF.s:3329   .text.Wifi_TcpIp_SetMultiConnection:0000000000000000 Wifi_TcpIp_SetMultiConnection
/var/folders/9y/n02fl3g16gnf7ppy14xghdy80000gn/T//ccqH5YoF.s:3414   .text.Wifi_TcpIp_SetMultiConnection:0000000000000050 $d
ARM GAS  /var/folders/9y/n02fl3g16gnf7ppy14xghdy80000gn/T//ccqH5YoF.s 			page 163


/var/folders/9y/n02fl3g16gnf7ppy14xghdy80000gn/T//ccqH5YoF.s:3423   .rodata.Wifi_TcpIp_GetMultiConnection.str1.4:0000000000000000 $d
/var/folders/9y/n02fl3g16gnf7ppy14xghdy80000gn/T//ccqH5YoF.s:3427   .text.Wifi_TcpIp_GetMultiConnection:0000000000000000 $t
/var/folders/9y/n02fl3g16gnf7ppy14xghdy80000gn/T//ccqH5YoF.s:3434   .text.Wifi_TcpIp_GetMultiConnection:0000000000000000 Wifi_TcpIp_GetMultiConnection
/var/folders/9y/n02fl3g16gnf7ppy14xghdy80000gn/T//ccqH5YoF.s:3529   .text.Wifi_TcpIp_GetMultiConnection:000000000000006c $d
/var/folders/9y/n02fl3g16gnf7ppy14xghdy80000gn/T//ccqH5YoF.s:3539   .rodata.Wifi_TcpIp_StartTcpConnection.str1.4:0000000000000000 $d
/var/folders/9y/n02fl3g16gnf7ppy14xghdy80000gn/T//ccqH5YoF.s:3552   .text.Wifi_TcpIp_StartTcpConnection:0000000000000000 $t
/var/folders/9y/n02fl3g16gnf7ppy14xghdy80000gn/T//ccqH5YoF.s:3559   .text.Wifi_TcpIp_StartTcpConnection:0000000000000000 Wifi_TcpIp_StartTcpConnection
/var/folders/9y/n02fl3g16gnf7ppy14xghdy80000gn/T//ccqH5YoF.s:3711   .text.Wifi_TcpIp_StartTcpConnection:00000000000000c0 $d
/var/folders/9y/n02fl3g16gnf7ppy14xghdy80000gn/T//ccqH5YoF.s:3723   .rodata.Wifi_TcpIp_StartUdpConnection.str1.4:0000000000000000 $d
/var/folders/9y/n02fl3g16gnf7ppy14xghdy80000gn/T//ccqH5YoF.s:3733   .text.Wifi_TcpIp_StartUdpConnection:0000000000000000 $t
/var/folders/9y/n02fl3g16gnf7ppy14xghdy80000gn/T//ccqH5YoF.s:3740   .text.Wifi_TcpIp_StartUdpConnection:0000000000000000 Wifi_TcpIp_StartUdpConnection
/var/folders/9y/n02fl3g16gnf7ppy14xghdy80000gn/T//ccqH5YoF.s:3841   .text.Wifi_TcpIp_StartUdpConnection:000000000000006c $d
/var/folders/9y/n02fl3g16gnf7ppy14xghdy80000gn/T//ccqH5YoF.s:3852   .rodata.Wifi_TcpIp_Close.str1.4:0000000000000000 $d
/var/folders/9y/n02fl3g16gnf7ppy14xghdy80000gn/T//ccqH5YoF.s:3859   .text.Wifi_TcpIp_Close:0000000000000000 $t
/var/folders/9y/n02fl3g16gnf7ppy14xghdy80000gn/T//ccqH5YoF.s:3866   .text.Wifi_TcpIp_Close:0000000000000000 Wifi_TcpIp_Close
/var/folders/9y/n02fl3g16gnf7ppy14xghdy80000gn/T//ccqH5YoF.s:3954   .text.Wifi_TcpIp_Close:0000000000000058 $d
/var/folders/9y/n02fl3g16gnf7ppy14xghdy80000gn/T//ccqH5YoF.s:3964   .rodata.Wifi_TcpIp_SetEnableTcpServer.str1.4:0000000000000000 $d
/var/folders/9y/n02fl3g16gnf7ppy14xghdy80000gn/T//ccqH5YoF.s:3968   .text.Wifi_TcpIp_SetEnableTcpServer:0000000000000000 $t
/var/folders/9y/n02fl3g16gnf7ppy14xghdy80000gn/T//ccqH5YoF.s:3975   .text.Wifi_TcpIp_SetEnableTcpServer:0000000000000000 Wifi_TcpIp_SetEnableTcpServer
/var/folders/9y/n02fl3g16gnf7ppy14xghdy80000gn/T//ccqH5YoF.s:4108   .text.Wifi_TcpIp_SetEnableTcpServer:000000000000009c $d
/var/folders/9y/n02fl3g16gnf7ppy14xghdy80000gn/T//ccqH5YoF.s:4118   .rodata.Wifi_TcpIp_SetDisableTcpServer.str1.4:0000000000000000 $d
/var/folders/9y/n02fl3g16gnf7ppy14xghdy80000gn/T//ccqH5YoF.s:4122   .text.Wifi_TcpIp_SetDisableTcpServer:0000000000000000 $t
/var/folders/9y/n02fl3g16gnf7ppy14xghdy80000gn/T//ccqH5YoF.s:4129   .text.Wifi_TcpIp_SetDisableTcpServer:0000000000000000 Wifi_TcpIp_SetDisableTcpServer
/var/folders/9y/n02fl3g16gnf7ppy14xghdy80000gn/T//ccqH5YoF.s:4204   .text.Wifi_TcpIp_SetDisableTcpServer:0000000000000048 $d
/var/folders/9y/n02fl3g16gnf7ppy14xghdy80000gn/T//ccqH5YoF.s:4212   .rodata.Wifi_TcpIp_SendDataUdp.str1.4:0000000000000000 $d
/var/folders/9y/n02fl3g16gnf7ppy14xghdy80000gn/T//ccqH5YoF.s:4222   .text.Wifi_TcpIp_SendDataUdp:0000000000000000 $t
/var/folders/9y/n02fl3g16gnf7ppy14xghdy80000gn/T//ccqH5YoF.s:4229   .text.Wifi_TcpIp_SendDataUdp:0000000000000000 Wifi_TcpIp_SendDataUdp
/var/folders/9y/n02fl3g16gnf7ppy14xghdy80000gn/T//ccqH5YoF.s:4353   .text.Wifi_TcpIp_SendDataUdp:0000000000000090 $d
/var/folders/9y/n02fl3g16gnf7ppy14xghdy80000gn/T//ccqH5YoF.s:4364   .rodata.Wifi_TcpIp_SendDataTcp.str1.4:0000000000000000 $d
/var/folders/9y/n02fl3g16gnf7ppy14xghdy80000gn/T//ccqH5YoF.s:4374   .text.Wifi_TcpIp_SendDataTcp:0000000000000000 $t
/var/folders/9y/n02fl3g16gnf7ppy14xghdy80000gn/T//ccqH5YoF.s:4381   .text.Wifi_TcpIp_SendDataTcp:0000000000000000 Wifi_TcpIp_SendDataTcp
/var/folders/9y/n02fl3g16gnf7ppy14xghdy80000gn/T//ccqH5YoF.s:4509   .text.Wifi_TcpIp_SendDataTcp:000000000000009c $d
/var/folders/9y/n02fl3g16gnf7ppy14xghdy80000gn/T//ccqH5YoF.s:4521   .rodata.SNTP_SetTimeZone.str1.4:0000000000000000 $d
/var/folders/9y/n02fl3g16gnf7ppy14xghdy80000gn/T//ccqH5YoF.s:4534   .text.SNTP_SetTimeZone:0000000000000000 $t
/var/folders/9y/n02fl3g16gnf7ppy14xghdy80000gn/T//ccqH5YoF.s:4541   .text.SNTP_SetTimeZone:0000000000000000 SNTP_SetTimeZone
/var/folders/9y/n02fl3g16gnf7ppy14xghdy80000gn/T//ccqH5YoF.s:4691   .text.SNTP_SetTimeZone:00000000000000b0 $d
/var/folders/9y/n02fl3g16gnf7ppy14xghdy80000gn/T//ccqH5YoF.s:4704   .rodata.SNTP_TimeUpdated.str1.4:0000000000000000 $d
/var/folders/9y/n02fl3g16gnf7ppy14xghdy80000gn/T//ccqH5YoF.s:4714   .text.SNTP_TimeUpdated:0000000000000000 $t
/var/folders/9y/n02fl3g16gnf7ppy14xghdy80000gn/T//ccqH5YoF.s:4721   .text.SNTP_TimeUpdated:0000000000000000 SNTP_TimeUpdated
/var/folders/9y/n02fl3g16gnf7ppy14xghdy80000gn/T//ccqH5YoF.s:4829   .text.SNTP_TimeUpdated:0000000000000078 $d
/var/folders/9y/n02fl3g16gnf7ppy14xghdy80000gn/T//ccqH5YoF.s:4840   .rodata.SNTP_Init.str1.4:0000000000000000 $d
/var/folders/9y/n02fl3g16gnf7ppy14xghdy80000gn/T//ccqH5YoF.s:4844   .text.SNTP_Init:0000000000000000 $t
/var/folders/9y/n02fl3g16gnf7ppy14xghdy80000gn/T//ccqH5YoF.s:4851   .text.SNTP_Init:0000000000000000 SNTP_Init
/var/folders/9y/n02fl3g16gnf7ppy14xghdy80000gn/T//ccqH5YoF.s:4901   .text.SNTP_Init:0000000000000028 $d
/var/folders/9y/n02fl3g16gnf7ppy14xghdy80000gn/T//ccqH5YoF.s:4907   .rodata.MQTT_SetUserConfig.str1.4:0000000000000000 $d
/var/folders/9y/n02fl3g16gnf7ppy14xghdy80000gn/T//ccqH5YoF.s:4912   .text.MQTT_SetUserConfig:0000000000000000 $t
/var/folders/9y/n02fl3g16gnf7ppy14xghdy80000gn/T//ccqH5YoF.s:4919   .text.MQTT_SetUserConfig:0000000000000000 MQTT_SetUserConfig
/var/folders/9y/n02fl3g16gnf7ppy14xghdy80000gn/T//ccqH5YoF.s:5001   .text.MQTT_SetUserConfig:0000000000000060 $d
/var/folders/9y/n02fl3g16gnf7ppy14xghdy80000gn/T//ccqH5YoF.s:5010   .rodata.MQTT_SetClientID.str1.4:0000000000000000 $d
/var/folders/9y/n02fl3g16gnf7ppy14xghdy80000gn/T//ccqH5YoF.s:5014   .text.MQTT_SetClientID:0000000000000000 $t
/var/folders/9y/n02fl3g16gnf7ppy14xghdy80000gn/T//ccqH5YoF.s:5021   .text.MQTT_SetClientID:0000000000000000 MQTT_SetClientID
/var/folders/9y/n02fl3g16gnf7ppy14xghdy80000gn/T//ccqH5YoF.s:5095   .text.MQTT_SetClientID:0000000000000048 $d
/var/folders/9y/n02fl3g16gnf7ppy14xghdy80000gn/T//ccqH5YoF.s:5104   .rodata.MQTT_SetUsername.str1.4:0000000000000000 $d
/var/folders/9y/n02fl3g16gnf7ppy14xghdy80000gn/T//ccqH5YoF.s:5108   .text.MQTT_SetUsername:0000000000000000 $t
/var/folders/9y/n02fl3g16gnf7ppy14xghdy80000gn/T//ccqH5YoF.s:5115   .text.MQTT_SetUsername:0000000000000000 MQTT_SetUsername
/var/folders/9y/n02fl3g16gnf7ppy14xghdy80000gn/T//ccqH5YoF.s:5190   .text.MQTT_SetUsername:000000000000004c $d
/var/folders/9y/n02fl3g16gnf7ppy14xghdy80000gn/T//ccqH5YoF.s:5199   .rodata.MQTT_SetPassword.str1.4:0000000000000000 $d
ARM GAS  /var/folders/9y/n02fl3g16gnf7ppy14xghdy80000gn/T//ccqH5YoF.s 			page 164


/var/folders/9y/n02fl3g16gnf7ppy14xghdy80000gn/T//ccqH5YoF.s:5203   .text.MQTT_SetPassword:0000000000000000 $t
/var/folders/9y/n02fl3g16gnf7ppy14xghdy80000gn/T//ccqH5YoF.s:5210   .text.MQTT_SetPassword:0000000000000000 MQTT_SetPassword
/var/folders/9y/n02fl3g16gnf7ppy14xghdy80000gn/T//ccqH5YoF.s:5285   .text.MQTT_SetPassword:000000000000004c $d
/var/folders/9y/n02fl3g16gnf7ppy14xghdy80000gn/T//ccqH5YoF.s:5294   .text.MQTT_SetConnectionConfig:0000000000000000 $t
/var/folders/9y/n02fl3g16gnf7ppy14xghdy80000gn/T//ccqH5YoF.s:5301   .text.MQTT_SetConnectionConfig:0000000000000000 MQTT_SetConnectionConfig
/var/folders/9y/n02fl3g16gnf7ppy14xghdy80000gn/T//ccqH5YoF.s:5376   .text.MQTT_SetConnectionConfig:000000000000004c $d
/var/folders/9y/n02fl3g16gnf7ppy14xghdy80000gn/T//ccqH5YoF.s:5385   .rodata.MQTT_Connect.str1.4:0000000000000000 $d
/var/folders/9y/n02fl3g16gnf7ppy14xghdy80000gn/T//ccqH5YoF.s:5392   .text.MQTT_Connect:0000000000000000 $t
/var/folders/9y/n02fl3g16gnf7ppy14xghdy80000gn/T//ccqH5YoF.s:5399   .text.MQTT_Connect:0000000000000000 MQTT_Connect
/var/folders/9y/n02fl3g16gnf7ppy14xghdy80000gn/T//ccqH5YoF.s:5504   .text.MQTT_Connect:000000000000007c $d
/var/folders/9y/n02fl3g16gnf7ppy14xghdy80000gn/T//ccqH5YoF.s:5514   .rodata.MQTT_GetConnection.str1.4:0000000000000000 $d
/var/folders/9y/n02fl3g16gnf7ppy14xghdy80000gn/T//ccqH5YoF.s:5521   .text.MQTT_GetConnection:0000000000000000 $t
/var/folders/9y/n02fl3g16gnf7ppy14xghdy80000gn/T//ccqH5YoF.s:5528   .text.MQTT_GetConnection:0000000000000000 MQTT_GetConnection
/var/folders/9y/n02fl3g16gnf7ppy14xghdy80000gn/T//ccqH5YoF.s:5693   .text.MQTT_GetConnection:00000000000000cc $d
/var/folders/9y/n02fl3g16gnf7ppy14xghdy80000gn/T//ccqH5YoF.s:5706   .rodata.MQTT_Init.str1.4:0000000000000000 $d
/var/folders/9y/n02fl3g16gnf7ppy14xghdy80000gn/T//ccqH5YoF.s:5719   .text.MQTT_Init:0000000000000000 $t
/var/folders/9y/n02fl3g16gnf7ppy14xghdy80000gn/T//ccqH5YoF.s:5726   .text.MQTT_Init:0000000000000000 MQTT_Init
/var/folders/9y/n02fl3g16gnf7ppy14xghdy80000gn/T//ccqH5YoF.s:5828   .text.MQTT_Init:0000000000000094 $d
/var/folders/9y/n02fl3g16gnf7ppy14xghdy80000gn/T//ccqH5YoF.s:5839   .rodata.MQTT_Publish.str1.4:0000000000000000 $d
/var/folders/9y/n02fl3g16gnf7ppy14xghdy80000gn/T//ccqH5YoF.s:5843   .text.MQTT_Publish:0000000000000000 $t
/var/folders/9y/n02fl3g16gnf7ppy14xghdy80000gn/T//ccqH5YoF.s:5850   .text.MQTT_Publish:0000000000000000 MQTT_Publish
/var/folders/9y/n02fl3g16gnf7ppy14xghdy80000gn/T//ccqH5YoF.s:5935   .text.MQTT_Publish:000000000000005c $d
/var/folders/9y/n02fl3g16gnf7ppy14xghdy80000gn/T//ccqH5YoF.s:5944   .rodata.MQTT_PublishRaw.str1.4:0000000000000000 $d
/var/folders/9y/n02fl3g16gnf7ppy14xghdy80000gn/T//ccqH5YoF.s:5958   .text.MQTT_PublishRaw:0000000000000000 $t
/var/folders/9y/n02fl3g16gnf7ppy14xghdy80000gn/T//ccqH5YoF.s:5965   .text.MQTT_PublishRaw:0000000000000000 MQTT_PublishRaw
/var/folders/9y/n02fl3g16gnf7ppy14xghdy80000gn/T//ccqH5YoF.s:6089   .text.MQTT_PublishRaw:0000000000000094 $d
/var/folders/9y/n02fl3g16gnf7ppy14xghdy80000gn/T//ccqH5YoF.s:6101   .rodata.MQTT_Subscribe.str1.4:0000000000000000 $d
/var/folders/9y/n02fl3g16gnf7ppy14xghdy80000gn/T//ccqH5YoF.s:6105   .text.MQTT_Subscribe:0000000000000000 $t
/var/folders/9y/n02fl3g16gnf7ppy14xghdy80000gn/T//ccqH5YoF.s:6112   .text.MQTT_Subscribe:0000000000000000 MQTT_Subscribe
/var/folders/9y/n02fl3g16gnf7ppy14xghdy80000gn/T//ccqH5YoF.s:6195   .text.MQTT_Subscribe:0000000000000058 $d
/var/folders/9y/n02fl3g16gnf7ppy14xghdy80000gn/T//ccqH5YoF.s:6204   .rodata.MQTT_Unsubscribe.str1.4:0000000000000000 $d
/var/folders/9y/n02fl3g16gnf7ppy14xghdy80000gn/T//ccqH5YoF.s:6208   .text.MQTT_Unsubscribe:0000000000000000 $t
/var/folders/9y/n02fl3g16gnf7ppy14xghdy80000gn/T//ccqH5YoF.s:6215   .text.MQTT_Unsubscribe:0000000000000000 MQTT_Unsubscribe
/var/folders/9y/n02fl3g16gnf7ppy14xghdy80000gn/T//ccqH5YoF.s:6298   .text.MQTT_Unsubscribe:0000000000000058 $d
/var/folders/9y/n02fl3g16gnf7ppy14xghdy80000gn/T//ccqH5YoF.s:6307   .rodata.MQTT_CheckSubscription.str1.4:0000000000000000 $d
/var/folders/9y/n02fl3g16gnf7ppy14xghdy80000gn/T//ccqH5YoF.s:6317   .text.MQTT_CheckSubscription:0000000000000000 $t
/var/folders/9y/n02fl3g16gnf7ppy14xghdy80000gn/T//ccqH5YoF.s:6324   .text.MQTT_CheckSubscription:0000000000000000 MQTT_CheckSubscription
/var/folders/9y/n02fl3g16gnf7ppy14xghdy80000gn/T//ccqH5YoF.s:6430   .text.MQTT_CheckSubscription:0000000000000070 $d
/var/folders/9y/n02fl3g16gnf7ppy14xghdy80000gn/T//ccqH5YoF.s:6442   .rodata.MQTT_Disconnect.str1.4:0000000000000000 $d
/var/folders/9y/n02fl3g16gnf7ppy14xghdy80000gn/T//ccqH5YoF.s:6446   .text.MQTT_Disconnect:0000000000000000 $t
/var/folders/9y/n02fl3g16gnf7ppy14xghdy80000gn/T//ccqH5YoF.s:6453   .text.MQTT_Disconnect:0000000000000000 MQTT_Disconnect
/var/folders/9y/n02fl3g16gnf7ppy14xghdy80000gn/T//ccqH5YoF.s:6525   .text.MQTT_Disconnect:0000000000000048 $d
/var/folders/9y/n02fl3g16gnf7ppy14xghdy80000gn/T//ccqH5YoF.s:6534   .rodata.MQTT_WaitForMessage.str1.4:0000000000000000 $d
/var/folders/9y/n02fl3g16gnf7ppy14xghdy80000gn/T//ccqH5YoF.s:6541   .text.MQTT_WaitForMessage:0000000000000000 $t
/var/folders/9y/n02fl3g16gnf7ppy14xghdy80000gn/T//ccqH5YoF.s:6548   .text.MQTT_WaitForMessage:0000000000000000 MQTT_WaitForMessage
/var/folders/9y/n02fl3g16gnf7ppy14xghdy80000gn/T//ccqH5YoF.s:6642   .text.MQTT_WaitForMessage:0000000000000060 $d
/var/folders/9y/n02fl3g16gnf7ppy14xghdy80000gn/T//ccqH5YoF.s:6649   .text.MQTT_ListenForMessage:0000000000000000 $t
/var/folders/9y/n02fl3g16gnf7ppy14xghdy80000gn/T//ccqH5YoF.s:6656   .text.MQTT_ListenForMessage:0000000000000000 MQTT_ListenForMessage
/var/folders/9y/n02fl3g16gnf7ppy14xghdy80000gn/T//ccqH5YoF.s:6767   .text.MQTT_ListenForMessage:0000000000000068 $d
/var/folders/9y/n02fl3g16gnf7ppy14xghdy80000gn/T//ccqH5YoF.s:6788   .bss.SNTP:0000000000000000 SNTP
/var/folders/9y/n02fl3g16gnf7ppy14xghdy80000gn/T//ccqH5YoF.s:6781   .bss.MQTT:0000000000000000 MQTT
/var/folders/9y/n02fl3g16gnf7ppy14xghdy80000gn/T//ccqH5YoF.s:6795   .bss.Wifi:0000000000000000 Wifi
/var/folders/9y/n02fl3g16gnf7ppy14xghdy80000gn/T//ccqH5YoF.s:6777   .bss.MQTT:0000000000000000 $d
/var/folders/9y/n02fl3g16gnf7ppy14xghdy80000gn/T//ccqH5YoF.s:6784   .bss.SNTP:0000000000000000 $d
/var/folders/9y/n02fl3g16gnf7ppy14xghdy80000gn/T//ccqH5YoF.s:6791   .bss.Wifi:0000000000000000 $d
/var/folders/9y/n02fl3g16gnf7ppy14xghdy80000gn/T//ccqH5YoF.s:6798   .bss.items.0:0000000000000000 $d
/var/folders/9y/n02fl3g16gnf7ppy14xghdy80000gn/T//ccqH5YoF.s:6802   .bss.items.0:0000000000000000 items.0
ARM GAS  /var/folders/9y/n02fl3g16gnf7ppy14xghdy80000gn/T//ccqH5YoF.s 			page 165



UNDEFINED SYMBOLS
usart_transmit_dma
strlen
delayMicroseconds
strstr
Buffs
strtok
strcpy
atoi
__aeabi_d2f
atof
lwrb_reset
memset
sprintf
sscanf
strchr
strncpy
lwrb_find
split_string
