ARM GAS  /var/folders/9y/n02fl3g16gnf7ppy14xghdy80000gn/T//ccc4kUj2.s 			page 1


   1              		.cpu cortex-m4
   2              		.eabi_attribute 27, 1
   3              		.eabi_attribute 28, 1
   4              		.eabi_attribute 20, 1
   5              		.eabi_attribute 21, 1
   6              		.eabi_attribute 23, 3
   7              		.eabi_attribute 24, 1
   8              		.eabi_attribute 25, 1
   9              		.eabi_attribute 26, 1
  10              		.eabi_attribute 30, 1
  11              		.eabi_attribute 34, 1
  12              		.eabi_attribute 18, 4
  13              		.file	"esp32.c"
  14              		.text
  15              	.Ltext0:
  16              		.cfi_sections	.debug_frame
  17              		.section	.rodata.split_string.str1.4,"aMS",%progbits,1
  18              		.align	2
  19              	.LC0:
  20 0000 2C00     		.ascii	",\000"
  21 0002 0000     		.align	2
  22              	.LC1:
  23 0004 22255B5E 		.ascii	"\"%[^\"]\"\000"
  23      225D2200 
  24              		.section	.text.split_string,"ax",%progbits
  25              		.align	1
  26              		.arch armv7e-m
  27              		.syntax unified
  28              		.thumb
  29              		.thumb_func
  30              		.fpu fpv4-sp-d16
  32              	split_string:
  33              	.LVL0:
  34              	.LFB1214:
  35              		.file 1 "Core/Src/esp32.c"
   1:Core/Src/esp32.c **** #include "esp32.h"
   2:Core/Src/esp32.c **** #include "esp32Config.h"
   3:Core/Src/esp32.c **** 
   4:Core/Src/esp32.c **** Wifi_t Wifi;
   5:Core/Src/esp32.c **** MQTT_t MQTT;
   6:Core/Src/esp32.c **** SNTP_t SNTP;
   7:Core/Src/esp32.c **** 
   8:Core/Src/esp32.c **** static bool split_string(char* input_string, char* output_array[], uint8_t* output_size) ;
   9:Core/Src/esp32.c **** // ################################################################################################
  10:Core/Src/esp32.c **** bool Wifi_SendRaw(uint8_t *data, uint16_t len)
  11:Core/Src/esp32.c **** {
  12:Core/Src/esp32.c ****     if (len <= _WIFI_TX_SIZE)
  13:Core/Src/esp32.c ****     {
  14:Core/Src/esp32.c ****         // Send the information in data through the UART of the ESP8266
  15:Core/Src/esp32.c ****         usart_transmit_dma((char*)data);
  16:Core/Src/esp32.c ****         return true;
  17:Core/Src/esp32.c ****     }
  18:Core/Src/esp32.c ****     else
  19:Core/Src/esp32.c ****         return false;
  20:Core/Src/esp32.c **** }
  21:Core/Src/esp32.c **** // ################################################################################################
  22:Core/Src/esp32.c **** bool Wifi_SendString(char *data)
ARM GAS  /var/folders/9y/n02fl3g16gnf7ppy14xghdy80000gn/T//ccc4kUj2.s 			page 2


  23:Core/Src/esp32.c **** {
  24:Core/Src/esp32.c ****     return Wifi_SendRaw((uint8_t *)data, strlen(data));
  25:Core/Src/esp32.c **** }
  26:Core/Src/esp32.c **** // ################################################################################################
  27:Core/Src/esp32.c **** bool Wifi_SendStringAndWait(char *data, uint16_t DelayUs)
  28:Core/Src/esp32.c **** {
  29:Core/Src/esp32.c ****     if (Wifi_SendRaw((uint8_t *)data, strlen(data)) == false)
  30:Core/Src/esp32.c ****         return false;
  31:Core/Src/esp32.c ****     delayMicroseconds(DelayUs);
  32:Core/Src/esp32.c ****     return true;
  33:Core/Src/esp32.c **** }
  34:Core/Src/esp32.c **** // ################################################################################################
  35:Core/Src/esp32.c **** bool Wifi_WaitForString(uint32_t TimeOut_ms, uint8_t *result, uint8_t CountOfParameter, ...)
  36:Core/Src/esp32.c **** {
  37:Core/Src/esp32.c ****     /*
  38:Core/Src/esp32.c ****      * It uses the CountOfParameter and the Parameters after that to compare with the
  39:Core/Src/esp32.c ****      * information that it was received in the UART RX. If the parameter is in the
  40:Core/Src/esp32.c ****      * received string the functions return a true value and the position of the
  41:Core/Src/esp32.c ****      * parameter (according to the position in the function)
  42:Core/Src/esp32.c ****      *
  43:Core/Src/esp32.c ****      * Ex:
  44:Core/Src/esp32.c ****      * Wifi_WaitForString(_WIFI_WAIT_TIME_LOW,&result,2,"OK","ERROR")
  45:Core/Src/esp32.c ****      *
  46:Core/Src/esp32.c ****      * If the ESP8266 return a AT+OK after the last command, the function is going to
  47:Core/Src/esp32.c ****      * return a true value and the result number would be 1.
  48:Core/Src/esp32.c ****      */
  49:Core/Src/esp32.c **** 
  50:Core/Src/esp32.c ****     if (result == NULL)
  51:Core/Src/esp32.c ****         return false;
  52:Core/Src/esp32.c ****     if (CountOfParameter == 0)
  53:Core/Src/esp32.c ****         return false;
  54:Core/Src/esp32.c **** 
  55:Core/Src/esp32.c ****     *result = 0;
  56:Core/Src/esp32.c **** 
  57:Core/Src/esp32.c ****     va_list tag;
  58:Core/Src/esp32.c ****     va_start(tag, CountOfParameter);
  59:Core/Src/esp32.c ****     char *arg[CountOfParameter];
  60:Core/Src/esp32.c ****     for (uint8_t i = 0; i < CountOfParameter; i++)
  61:Core/Src/esp32.c ****         arg[i] = va_arg(tag, char *);
  62:Core/Src/esp32.c ****     va_end(tag);
  63:Core/Src/esp32.c **** 
  64:Core/Src/esp32.c ****     for (uint32_t t = 0; t < TimeOut_ms; t += 20)
  65:Core/Src/esp32.c ****     {
  66:Core/Src/esp32.c ****         delayMicroseconds(20000);
  67:Core/Src/esp32.c ****         for (uint8_t mx = 0; mx < CountOfParameter; mx++)
  68:Core/Src/esp32.c ****         {
  69:Core/Src/esp32.c ****             if (strstr((char *)Buffs.RxBuffer.buff, arg[mx]) != NULL)  // TODO change to lwrb_find(
  70:Core/Src/esp32.c ****             // if (strstr((char *)Buffs.RxBuffer.buff, arg[mx]) != NULL)
  71:Core/Src/esp32.c ****             {
  72:Core/Src/esp32.c ****                 *result = mx + 1;
  73:Core/Src/esp32.c ****                 return true;
  74:Core/Src/esp32.c ****             }
  75:Core/Src/esp32.c ****         }
  76:Core/Src/esp32.c ****     }
  77:Core/Src/esp32.c ****     // timeout
  78:Core/Src/esp32.c ****     return false;
  79:Core/Src/esp32.c **** }
ARM GAS  /var/folders/9y/n02fl3g16gnf7ppy14xghdy80000gn/T//ccc4kUj2.s 			page 3


  80:Core/Src/esp32.c **** // ################################################################################################
  81:Core/Src/esp32.c **** bool Wifi_ReturnString(char *result, uint8_t WantWhichOne, char *SplitterChars)
  82:Core/Src/esp32.c **** {
  83:Core/Src/esp32.c ****     if (result == NULL)
  84:Core/Src/esp32.c ****         return false;
  85:Core/Src/esp32.c ****     if (WantWhichOne == 0)
  86:Core/Src/esp32.c ****         return false;
  87:Core/Src/esp32.c **** 
  88:Core/Src/esp32.c ****     char *str = (char *)Buffs.RxBuffer.buff;
  89:Core/Src/esp32.c **** 
  90:Core/Src/esp32.c ****     str = strtok(str, SplitterChars);
  91:Core/Src/esp32.c ****     if (str == NULL)
  92:Core/Src/esp32.c ****     {
  93:Core/Src/esp32.c ****         strcpy(result, "");
  94:Core/Src/esp32.c ****         return false;
  95:Core/Src/esp32.c ****     }
  96:Core/Src/esp32.c ****     while (str != NULL)
  97:Core/Src/esp32.c ****     {
  98:Core/Src/esp32.c ****         str = strtok(NULL, SplitterChars);
  99:Core/Src/esp32.c ****         if (str != NULL)
 100:Core/Src/esp32.c ****             WantWhichOne--;
 101:Core/Src/esp32.c ****         if (WantWhichOne == 0)
 102:Core/Src/esp32.c ****         {
 103:Core/Src/esp32.c ****             strcpy(result, str);
 104:Core/Src/esp32.c ****             return true;
 105:Core/Src/esp32.c ****         }
 106:Core/Src/esp32.c ****     }
 107:Core/Src/esp32.c ****     strcpy(result, "");
 108:Core/Src/esp32.c ****     return false;
 109:Core/Src/esp32.c **** }
 110:Core/Src/esp32.c **** // ################################################################################################
 111:Core/Src/esp32.c **** bool Wifi_ReturnStrings(char *InputString, char *SplitterChars, uint8_t CountOfParameter, ...)
 112:Core/Src/esp32.c **** {
 113:Core/Src/esp32.c ****     if (CountOfParameter == 0)
 114:Core/Src/esp32.c ****         return false;
 115:Core/Src/esp32.c ****     va_list tag;
 116:Core/Src/esp32.c ****     va_start(tag, CountOfParameter);
 117:Core/Src/esp32.c ****     char *arg[CountOfParameter];
 118:Core/Src/esp32.c ****     for (uint8_t i = 0; i < CountOfParameter; i++)
 119:Core/Src/esp32.c ****         arg[i] = va_arg(tag, char *);
 120:Core/Src/esp32.c ****     va_end(tag);
 121:Core/Src/esp32.c **** 
 122:Core/Src/esp32.c ****     char *str;
 123:Core/Src/esp32.c ****     str = strtok(InputString, SplitterChars);
 124:Core/Src/esp32.c ****     if (str == NULL)
 125:Core/Src/esp32.c ****         return false;
 126:Core/Src/esp32.c ****     uint8_t i = 0;
 127:Core/Src/esp32.c ****     while (str != NULL)
 128:Core/Src/esp32.c ****     {
 129:Core/Src/esp32.c ****         str = strtok(NULL, SplitterChars);
 130:Core/Src/esp32.c ****         if (str != NULL)
 131:Core/Src/esp32.c ****             CountOfParameter--;
 132:Core/Src/esp32.c ****         strcpy(arg[i], str);
 133:Core/Src/esp32.c ****         i++;
 134:Core/Src/esp32.c ****         if (CountOfParameter == 0)
 135:Core/Src/esp32.c ****         {
 136:Core/Src/esp32.c ****             return true;
ARM GAS  /var/folders/9y/n02fl3g16gnf7ppy14xghdy80000gn/T//ccc4kUj2.s 			page 4


 137:Core/Src/esp32.c ****         }
 138:Core/Src/esp32.c ****     }
 139:Core/Src/esp32.c ****     return false;
 140:Core/Src/esp32.c **** }
 141:Core/Src/esp32.c **** // ################################################################################################
 142:Core/Src/esp32.c **** bool Wifi_ReturnInteger(int32_t *result, uint8_t WantWhichOne, char *SplitterChars)
 143:Core/Src/esp32.c **** {
 144:Core/Src/esp32.c ****     if ((char *)Buffs.RxBuffer.buff == NULL)
 145:Core/Src/esp32.c ****         return false;
 146:Core/Src/esp32.c ****     if (Wifi_ReturnString((char *)Buffs.RxBuffer.buff, WantWhichOne, SplitterChars) == false)
 147:Core/Src/esp32.c ****         return false;
 148:Core/Src/esp32.c ****     *result = atoi((char *)Buffs.RxBuffer.buff);
 149:Core/Src/esp32.c ****     return true;
 150:Core/Src/esp32.c **** }
 151:Core/Src/esp32.c **** // ################################################################################################
 152:Core/Src/esp32.c **** 
 153:Core/Src/esp32.c **** bool Wifi_ReturnFloat(float *result, uint8_t WantWhichOne, char *SplitterChars)
 154:Core/Src/esp32.c **** {
 155:Core/Src/esp32.c ****     if ((char *)Buffs.RxBuffer.buff == NULL)
 156:Core/Src/esp32.c ****         return false;
 157:Core/Src/esp32.c ****     if (Wifi_ReturnString((char *)Buffs.RxBuffer.buff, WantWhichOne, SplitterChars) == false)
 158:Core/Src/esp32.c ****         return false;
 159:Core/Src/esp32.c ****     *result = atof((char *)Buffs.RxBuffer.buff);
 160:Core/Src/esp32.c ****     return true;
 161:Core/Src/esp32.c **** }
 162:Core/Src/esp32.c **** // ################################################################################################
 163:Core/Src/esp32.c **** void Wifi_RemoveChar(char *str, char garbage)
 164:Core/Src/esp32.c **** {
 165:Core/Src/esp32.c ****     char *src, *dst;
 166:Core/Src/esp32.c ****     for (src = dst = str; *src != '\0'; src++)
 167:Core/Src/esp32.c ****     {
 168:Core/Src/esp32.c ****         *dst = *src;
 169:Core/Src/esp32.c ****         if (*dst != garbage)
 170:Core/Src/esp32.c ****             dst++;
 171:Core/Src/esp32.c ****     }
 172:Core/Src/esp32.c ****     *dst = '\0';
 173:Core/Src/esp32.c **** }
 174:Core/Src/esp32.c **** // ################################################################################################
 175:Core/Src/esp32.c **** void Wifi_RxClear(void)
 176:Core/Src/esp32.c **** {
 177:Core/Src/esp32.c ****     lwrb_reset(&Buffs.RxBuffer);
 178:Core/Src/esp32.c **** }
 179:Core/Src/esp32.c **** // ################################################################################################
 180:Core/Src/esp32.c **** void Wifi_TxClear(void)
 181:Core/Src/esp32.c **** {
 182:Core/Src/esp32.c ****     memset(Buffs.TxBuffer, '\0', _WIFI_TX_SIZE);
 183:Core/Src/esp32.c **** }
 184:Core/Src/esp32.c **** // ################################################################################################
 185:Core/Src/esp32.c **** void Wifi_RxCallBack(void)
 186:Core/Src/esp32.c **** {
 187:Core/Src/esp32.c ****     // Buffs.RxBuffer.buff[Wifi.RxIndex] = Wifi.usartBuff;
 188:Core/Src/esp32.c ****     // if (Wifi.RxIndex < _WIFI_RX_SIZE)
 189:Core/Src/esp32.c ****     //     Wifi.RxIndex++;
 190:Core/Src/esp32.c ****     // usart1StartRxIt();
 191:Core/Src/esp32.c **** }
 192:Core/Src/esp32.c **** // ################################################################################################
 193:Core/Src/esp32.c **** // ################################################################################################
ARM GAS  /var/folders/9y/n02fl3g16gnf7ppy14xghdy80000gn/T//ccc4kUj2.s 			page 5


 194:Core/Src/esp32.c **** // ################################################################################################
 195:Core/Src/esp32.c **** // ################################################################################################
 196:Core/Src/esp32.c **** bool Wifi_Init(void)
 197:Core/Src/esp32.c **** {
 198:Core/Src/esp32.c ****     uint8_t result;
 199:Core/Src/esp32.c ****     bool returnVal = false;
 200:Core/Src/esp32.c ****     // Clean the variables and start the interruption to work with the UART
 201:Core/Src/esp32.c ****     do
 202:Core/Src/esp32.c ****     {
 203:Core/Src/esp32.c ****         // Wifi_RxClear();
 204:Core/Src/esp32.c **** 
 205:Core/Src/esp32.c ****         if (Wifi_SendString("\r\nAT\r\n") == false)
 206:Core/Src/esp32.c ****             break;
 207:Core/Src/esp32.c ****         if (Wifi_WaitForString(_WIFI_WAIT_TIME_LOW, &result, 2, "OK", "ERROR") == false)
 208:Core/Src/esp32.c ****             break;
 209:Core/Src/esp32.c ****         if (result == 2)
 210:Core/Src/esp32.c ****             break;
 211:Core/Src/esp32.c ****         returnVal = true;
 212:Core/Src/esp32.c ****         Wifi_RxClear();
 213:Core/Src/esp32.c ****         Wifi_TxClear();
 214:Core/Src/esp32.c ****         // usart1StartRxIt();
 215:Core/Src/esp32.c ****     } while (0);
 216:Core/Src/esp32.c ****     return returnVal;
 217:Core/Src/esp32.c **** }
 218:Core/Src/esp32.c **** 
 219:Core/Src/esp32.c **** // ################################################################################################
 220:Core/Src/esp32.c **** // ################################################################################################
 221:Core/Src/esp32.c **** // ################################################################################################
 222:Core/Src/esp32.c **** // ################################################################################################
 223:Core/Src/esp32.c **** bool Wifi_Restart(void)
 224:Core/Src/esp32.c **** {
 225:Core/Src/esp32.c ****     // Make a restart of the ESP8266 using the AT Commands
 226:Core/Src/esp32.c **** 
 227:Core/Src/esp32.c ****     uint8_t result;
 228:Core/Src/esp32.c ****     bool returnVal = false;
 229:Core/Src/esp32.c ****     do
 230:Core/Src/esp32.c ****     {
 231:Core/Src/esp32.c ****         Wifi_RxClear();
 232:Core/Src/esp32.c ****         sprintf((char *)Buffs.TxBuffer, "AT+RST\r\n");
 233:Core/Src/esp32.c ****         if (Wifi_SendString((char *)Buffs.TxBuffer) == false)
 234:Core/Src/esp32.c ****             break;
 235:Core/Src/esp32.c ****         if (Wifi_WaitForString(_WIFI_WAIT_TIME_LOW, &result, 2, "OK", "ERROR") == false)
 236:Core/Src/esp32.c ****             break;       // The timeout was completed and the string was not there
 237:Core/Src/esp32.c ****         if (result == 2) // It was find the "ERROR" String in the receiving information
 238:Core/Src/esp32.c ****             break;
 239:Core/Src/esp32.c ****         returnVal = true;
 240:Core/Src/esp32.c ****     } while (0);
 241:Core/Src/esp32.c ****     return returnVal;
 242:Core/Src/esp32.c **** }
 243:Core/Src/esp32.c **** // ################################################################################################
 244:Core/Src/esp32.c **** bool Wifi_DeepSleep(uint16_t DelayMs)
 245:Core/Src/esp32.c **** {
 246:Core/Src/esp32.c ****     // The ESP8266 enters in Deep-Sleep Mode for the time, which is indicated
 247:Core/Src/esp32.c **** 
 248:Core/Src/esp32.c ****     uint8_t result;
 249:Core/Src/esp32.c ****     bool returnVal = false;
 250:Core/Src/esp32.c ****     do
ARM GAS  /var/folders/9y/n02fl3g16gnf7ppy14xghdy80000gn/T//ccc4kUj2.s 			page 6


 251:Core/Src/esp32.c ****     {
 252:Core/Src/esp32.c ****         Wifi_RxClear();
 253:Core/Src/esp32.c ****         sprintf((char *)Buffs.TxBuffer, "AT+GSLP=%d\r\n", DelayMs);
 254:Core/Src/esp32.c ****         if (Wifi_SendString((char *)Buffs.TxBuffer) == false)
 255:Core/Src/esp32.c ****             break;
 256:Core/Src/esp32.c ****         if (Wifi_WaitForString(_WIFI_WAIT_TIME_LOW, &result, 2, "OK", "ERROR") == false)
 257:Core/Src/esp32.c ****             break;       // The timeout was completed and the string was not there
 258:Core/Src/esp32.c ****         if (result == 2) // It was find the "ERROR" String in the receiving information
 259:Core/Src/esp32.c ****             break;
 260:Core/Src/esp32.c ****         returnVal = true;
 261:Core/Src/esp32.c ****     } while (0);
 262:Core/Src/esp32.c ****     return returnVal;
 263:Core/Src/esp32.c **** }
 264:Core/Src/esp32.c **** // ################################################################################################
 265:Core/Src/esp32.c **** bool Wifi_FactoryReset(void)
 266:Core/Src/esp32.c **** {
 267:Core/Src/esp32.c ****     uint8_t result;
 268:Core/Src/esp32.c ****     bool returnVal = false;
 269:Core/Src/esp32.c ****     do
 270:Core/Src/esp32.c ****     {
 271:Core/Src/esp32.c ****         Wifi_RxClear();
 272:Core/Src/esp32.c ****         sprintf((char *)Buffs.TxBuffer, "AT+RESTORE\r\n");
 273:Core/Src/esp32.c ****         if (Wifi_SendString((char *)Buffs.TxBuffer) == false)
 274:Core/Src/esp32.c ****             break;
 275:Core/Src/esp32.c ****         if (Wifi_WaitForString(_WIFI_WAIT_TIME_LOW, &result, 2, "OK", "ERROR") == false)
 276:Core/Src/esp32.c ****             break;       // The timeout was completed and the string was not there
 277:Core/Src/esp32.c ****         if (result == 2) // It was find the "ERROR" String in the receiving information
 278:Core/Src/esp32.c ****             break;
 279:Core/Src/esp32.c ****         returnVal = true;
 280:Core/Src/esp32.c ****     } while (0);
 281:Core/Src/esp32.c ****     return returnVal;
 282:Core/Src/esp32.c **** }
 283:Core/Src/esp32.c **** // ################################################################################################
 284:Core/Src/esp32.c **** bool Wifi_Update(void)
 285:Core/Src/esp32.c **** {
 286:Core/Src/esp32.c ****     // Update the version of AT Commands when the device is connected to Internet
 287:Core/Src/esp32.c **** 
 288:Core/Src/esp32.c ****     uint8_t result;
 289:Core/Src/esp32.c ****     bool returnVal = false;
 290:Core/Src/esp32.c ****     do
 291:Core/Src/esp32.c ****     {
 292:Core/Src/esp32.c ****         Wifi_RxClear();
 293:Core/Src/esp32.c ****         sprintf((char *)Buffs.TxBuffer, "AT+CIUPDATE\r\n");
 294:Core/Src/esp32.c ****         if (Wifi_SendString((char *)Buffs.TxBuffer) == false)
 295:Core/Src/esp32.c ****             break;
 296:Core/Src/esp32.c ****         if (Wifi_WaitForString(1000 * 60 * 5, &result, 2, "OK", "ERROR") == false)
 297:Core/Src/esp32.c ****             break;       // The timeout was completed and the string was not there
 298:Core/Src/esp32.c ****         if (result == 2) // It was find the "ERROR" String in the receiving information
 299:Core/Src/esp32.c ****             break;
 300:Core/Src/esp32.c ****         returnVal = true;
 301:Core/Src/esp32.c ****     } while (0);
 302:Core/Src/esp32.c ****     return returnVal;
 303:Core/Src/esp32.c **** }
 304:Core/Src/esp32.c **** // ################################################################################################
 305:Core/Src/esp32.c **** bool Wifi_SetRfPower(uint8_t Power_0_to_82)
 306:Core/Src/esp32.c **** {
 307:Core/Src/esp32.c ****     uint8_t result;
ARM GAS  /var/folders/9y/n02fl3g16gnf7ppy14xghdy80000gn/T//ccc4kUj2.s 			page 7


 308:Core/Src/esp32.c ****     bool returnVal = false;
 309:Core/Src/esp32.c ****     do
 310:Core/Src/esp32.c ****     {
 311:Core/Src/esp32.c ****         Wifi_RxClear();
 312:Core/Src/esp32.c ****         sprintf((char *)Buffs.TxBuffer, "AT+RFPOWER=%d\r\n", Power_0_to_82);
 313:Core/Src/esp32.c ****         if (Wifi_SendString((char *)Buffs.TxBuffer) == false)
 314:Core/Src/esp32.c ****             break;
 315:Core/Src/esp32.c ****         if (Wifi_WaitForString(_WIFI_WAIT_TIME_LOW, &result, 2, "OK", "ERROR") == false)
 316:Core/Src/esp32.c ****             break;       // The timeout was completed and the string was not there
 317:Core/Src/esp32.c ****         if (result == 2) // It was find the "ERROR" String in the receiving information
 318:Core/Src/esp32.c ****             break;
 319:Core/Src/esp32.c ****         returnVal = true;
 320:Core/Src/esp32.c ****     } while (0);
 321:Core/Src/esp32.c ****     return returnVal;
 322:Core/Src/esp32.c **** }
 323:Core/Src/esp32.c **** // ################################################################################################
 324:Core/Src/esp32.c **** // ################################################################################################
 325:Core/Src/esp32.c **** // ################################################################################################
 326:Core/Src/esp32.c **** // ################################################################################################
 327:Core/Src/esp32.c **** bool Wifi_SetMode(WifiMode_t WifiMode_)
 328:Core/Src/esp32.c **** {
 329:Core/Src/esp32.c ****     uint8_t result;
 330:Core/Src/esp32.c ****     bool returnVal = false;
 331:Core/Src/esp32.c ****     do
 332:Core/Src/esp32.c ****     {
 333:Core/Src/esp32.c ****         Wifi_RxClear();
 334:Core/Src/esp32.c ****         sprintf((char *)Buffs.TxBuffer, "AT+CWMODE=%d\r\n", WifiMode_);
 335:Core/Src/esp32.c ****         if (Wifi_SendString((char *)Buffs.TxBuffer) == false)
 336:Core/Src/esp32.c ****             break;
 337:Core/Src/esp32.c ****         if (Wifi_WaitForString(_WIFI_WAIT_TIME_LOW, &result, 2, "OK", "ERROR") == false)
 338:Core/Src/esp32.c ****             break;       // The timeout was completed and the string was not there
 339:Core/Src/esp32.c ****         if (result == 2) // It was find the "ERROR" String in the receiving information
 340:Core/Src/esp32.c ****             break;
 341:Core/Src/esp32.c ****         Wifi.Mode = WifiMode_;
 342:Core/Src/esp32.c ****         returnVal = true;
 343:Core/Src/esp32.c ****     } while (0);
 344:Core/Src/esp32.c ****     return returnVal;
 345:Core/Src/esp32.c **** }
 346:Core/Src/esp32.c **** // ################################################################################################
 347:Core/Src/esp32.c **** bool Wifi_GetMode(void)
 348:Core/Src/esp32.c **** {
 349:Core/Src/esp32.c ****     uint8_t result;
 350:Core/Src/esp32.c ****     bool returnVal = false;
 351:Core/Src/esp32.c ****     do
 352:Core/Src/esp32.c ****     {
 353:Core/Src/esp32.c ****         Wifi_RxClear();
 354:Core/Src/esp32.c ****         sprintf((char *)Buffs.TxBuffer, "AT+CWMODE?\r\n");
 355:Core/Src/esp32.c ****         if (Wifi_SendString((char *)Buffs.TxBuffer) == false)
 356:Core/Src/esp32.c ****             break;
 357:Core/Src/esp32.c ****         if (Wifi_WaitForString(_WIFI_WAIT_TIME_LOW, &result, 2, "OK", "ERROR") == false)
 358:Core/Src/esp32.c ****             break;       // The timeout was completed and the string was not there
 359:Core/Src/esp32.c ****         if (result == 2) // It was find the "ERROR" String in the receiving information
 360:Core/Src/esp32.c ****             break;
 361:Core/Src/esp32.c **** 
 362:Core/Src/esp32.c ****         if (Wifi_ReturnInteger((int32_t *)&result, 1, ":"))
 363:Core/Src/esp32.c ****             Wifi.Mode = (WifiMode_t)result;
 364:Core/Src/esp32.c ****         else
ARM GAS  /var/folders/9y/n02fl3g16gnf7ppy14xghdy80000gn/T//ccc4kUj2.s 			page 8


 365:Core/Src/esp32.c ****             Wifi.Mode = WifiMode_Error;
 366:Core/Src/esp32.c ****         returnVal = true;
 367:Core/Src/esp32.c ****     } while (0);
 368:Core/Src/esp32.c ****     return returnVal;
 369:Core/Src/esp32.c **** }
 370:Core/Src/esp32.c **** bool Wifi_GetMyIp(void)
 371:Core/Src/esp32.c **** {
 372:Core/Src/esp32.c ****     uint8_t result;
 373:Core/Src/esp32.c ****     bool returnVal = false;
 374:Core/Src/esp32.c ****     do
 375:Core/Src/esp32.c ****     {
 376:Core/Src/esp32.c ****         Wifi_RxClear();
 377:Core/Src/esp32.c ****         sprintf((char *)Buffs.TxBuffer, "AT+CIFSR\r\n");
 378:Core/Src/esp32.c ****         if (Wifi_SendString((char *)Buffs.TxBuffer) == false)
 379:Core/Src/esp32.c ****             break;
 380:Core/Src/esp32.c ****         if (Wifi_WaitForString(_WIFI_WAIT_TIME_LOW, &result, 2, "OK", "ERROR") == false)
 381:Core/Src/esp32.c ****             break;       // The timeout was completed and the string was not there
 382:Core/Src/esp32.c ****         if (result == 2) // It was find the "ERROR" String in the receiving information
 383:Core/Src/esp32.c ****             break;
 384:Core/Src/esp32.c ****         sscanf((char *)Buffs.RxBuffer.buff, "AT+CIFSR\r\r\n+CIFSR:APIP,\"%[^\"]", Wifi.MyIP);
 385:Core/Src/esp32.c ****         sscanf((char *)Buffs.RxBuffer.buff, "AT+CIFSR\r\r\n+CIFSR:STAIP,\"%[^\"]", Wifi.MyIP);
 386:Core/Src/esp32.c ****         returnVal = true;
 387:Core/Src/esp32.c ****     } while (0);
 388:Core/Src/esp32.c ****     return returnVal;
 389:Core/Src/esp32.c **** }
 390:Core/Src/esp32.c **** // ################################################################################################
 391:Core/Src/esp32.c **** // ################################################################################################
 392:Core/Src/esp32.c **** // ################################################################################################
 393:Core/Src/esp32.c **** // ################################################################################################
 394:Core/Src/esp32.c **** bool Wifi_Station_ConnectToAp(char *SSID, char *Pass, char *MAC)
 395:Core/Src/esp32.c **** {
 396:Core/Src/esp32.c ****     uint8_t result;
 397:Core/Src/esp32.c ****     bool returnVal = false;
 398:Core/Src/esp32.c ****     do
 399:Core/Src/esp32.c ****     {
 400:Core/Src/esp32.c ****         /*
 401:Core/Src/esp32.c ****          * It connects to a WiFi network who has all the parameters correctly
 402:Core/Src/esp32.c ****          */
 403:Core/Src/esp32.c ****         Wifi_RxClear();
 404:Core/Src/esp32.c ****         if (MAC == NULL)
 405:Core/Src/esp32.c ****             sprintf((char *)Buffs.TxBuffer, "AT+CWJAP=\"%s\",\"%s\"\r\n", SSID, Pass);
 406:Core/Src/esp32.c ****         else
 407:Core/Src/esp32.c ****             sprintf((char *)Buffs.TxBuffer, "AT+CWJAP=\"%s\",\"%s\",\"%s\"\r\n", SSID, Pass, MAC);
 408:Core/Src/esp32.c ****         if (Wifi_SendString((char *)Buffs.TxBuffer) == false)
 409:Core/Src/esp32.c ****             break;
 410:Core/Src/esp32.c ****         if (Wifi_WaitForString(_WIFI_WAIT_TIME_VERYHIGH, &result, 3, "\r\nOK\r\n", "\r\nERROR\r\n",
 411:Core/Src/esp32.c ****             break;
 412:Core/Src/esp32.c ****         if (result > 1) // If the result is higher to 1 is because there were an error
 413:Core/Src/esp32.c ****             break;      // in the communication
 414:Core/Src/esp32.c ****         returnVal = true;
 415:Core/Src/esp32.c ****     } while (0);
 416:Core/Src/esp32.c ****     return returnVal;
 417:Core/Src/esp32.c **** }
 418:Core/Src/esp32.c **** // ################################################################################################
 419:Core/Src/esp32.c **** bool Wifi_Station_Disconnect(void)
 420:Core/Src/esp32.c **** {
 421:Core/Src/esp32.c ****     uint8_t result;
ARM GAS  /var/folders/9y/n02fl3g16gnf7ppy14xghdy80000gn/T//ccc4kUj2.s 			page 9


 422:Core/Src/esp32.c ****     bool returnVal = false;
 423:Core/Src/esp32.c ****     do
 424:Core/Src/esp32.c ****     {
 425:Core/Src/esp32.c ****         Wifi_RxClear();
 426:Core/Src/esp32.c ****         sprintf((char *)Buffs.TxBuffer, "AT+CWQAP\r\n");
 427:Core/Src/esp32.c ****         if (Wifi_SendString((char *)Buffs.TxBuffer) == false)
 428:Core/Src/esp32.c ****             break;
 429:Core/Src/esp32.c ****         if (Wifi_WaitForString(_WIFI_WAIT_TIME_LOW, &result, 2, "OK", "ERROR") == false)
 430:Core/Src/esp32.c ****             break;       // The timeout was completed and the string was not there
 431:Core/Src/esp32.c ****         if (result == 2) // It was find the "ERROR" String in the receiving information
 432:Core/Src/esp32.c ****             break;
 433:Core/Src/esp32.c ****         returnVal = true;
 434:Core/Src/esp32.c ****     } while (0);
 435:Core/Src/esp32.c ****     return returnVal;
 436:Core/Src/esp32.c **** }
 437:Core/Src/esp32.c **** // ################################################################################################
 438:Core/Src/esp32.c **** bool Wifi_Station_SetIp(char *IP, char *GateWay, char *NetMask)
 439:Core/Src/esp32.c **** {
 440:Core/Src/esp32.c ****     uint8_t result;
 441:Core/Src/esp32.c ****     bool returnVal = false;
 442:Core/Src/esp32.c ****     do
 443:Core/Src/esp32.c ****     {
 444:Core/Src/esp32.c ****         Wifi_RxClear();
 445:Core/Src/esp32.c ****         sprintf((char *)Buffs.TxBuffer, "AT+CIPSTA=\"%s\",\"%s\",\"%s\"\r\n", IP, GateWay, NetMask)
 446:Core/Src/esp32.c ****         if (Wifi_SendString((char *)Buffs.TxBuffer) == false)
 447:Core/Src/esp32.c ****             break;
 448:Core/Src/esp32.c ****         if (Wifi_WaitForString(_WIFI_WAIT_TIME_LOW, &result, 2, "OK", "ERROR") == false)
 449:Core/Src/esp32.c ****             break;       // The timeout was completed and the string was not there
 450:Core/Src/esp32.c ****         if (result == 2) // It was find the "ERROR" String in the receiving information
 451:Core/Src/esp32.c ****             break;
 452:Core/Src/esp32.c ****         Wifi.StationDhcp = false;
 453:Core/Src/esp32.c ****         returnVal = true;
 454:Core/Src/esp32.c ****     } while (0);
 455:Core/Src/esp32.c ****     return returnVal;
 456:Core/Src/esp32.c **** }
 457:Core/Src/esp32.c **** // ################################################################################################
 458:Core/Src/esp32.c **** bool Wifi_Station_DhcpEnable(bool Enable)
 459:Core/Src/esp32.c **** {
 460:Core/Src/esp32.c ****     uint8_t result;
 461:Core/Src/esp32.c ****     bool returnVal = false;
 462:Core/Src/esp32.c ****     do
 463:Core/Src/esp32.c ****     {
 464:Core/Src/esp32.c ****         /*
 465:Core/Src/esp32.c ****          * It makes the DHCP from the Station Mode enable
 466:Core/Src/esp32.c ****          */
 467:Core/Src/esp32.c ****         Wifi_RxClear();
 468:Core/Src/esp32.c ****         sprintf((char *)Buffs.TxBuffer, "AT+CWDHCP=1,%d\r\n", Enable);
 469:Core/Src/esp32.c ****         if (Wifi_SendString((char *)Buffs.TxBuffer) == false)
 470:Core/Src/esp32.c ****             break;
 471:Core/Src/esp32.c ****         if (Wifi_WaitForString(_WIFI_WAIT_TIME_LOW, &result, 2, "OK", "ERROR") == false)
 472:Core/Src/esp32.c ****             break;       // The timeout was completed and the string was not there
 473:Core/Src/esp32.c ****         if (result == 2) // It was find the "ERROR" String in the receiving information
 474:Core/Src/esp32.c ****             break;
 475:Core/Src/esp32.c ****         Wifi.StationDhcp = Enable;
 476:Core/Src/esp32.c ****         returnVal = true;
 477:Core/Src/esp32.c ****     } while (0);
 478:Core/Src/esp32.c ****     return returnVal;
ARM GAS  /var/folders/9y/n02fl3g16gnf7ppy14xghdy80000gn/T//ccc4kUj2.s 			page 10


 479:Core/Src/esp32.c **** }
 480:Core/Src/esp32.c **** // ################################################################################################
 481:Core/Src/esp32.c **** bool Wifi_Station_DhcpIsEnable(void)
 482:Core/Src/esp32.c **** {
 483:Core/Src/esp32.c ****     uint8_t result;
 484:Core/Src/esp32.c ****     bool returnVal = false;
 485:Core/Src/esp32.c ****     do
 486:Core/Src/esp32.c ****     {
 487:Core/Src/esp32.c ****         /*
 488:Core/Src/esp32.c ****          * It makes a question to the micro-controller to know how is the status of the
 489:Core/Src/esp32.c ****          * DHCP process inside of it
 490:Core/Src/esp32.c ****          */
 491:Core/Src/esp32.c ****         Wifi_RxClear();
 492:Core/Src/esp32.c ****         sprintf((char *)Buffs.TxBuffer, "AT+CWDHCP?\r\n");
 493:Core/Src/esp32.c ****         if (Wifi_SendString((char *)Buffs.TxBuffer) == false)
 494:Core/Src/esp32.c ****             break;
 495:Core/Src/esp32.c ****         if (Wifi_WaitForString(_WIFI_WAIT_TIME_LOW, &result, 2, "OK", "ERROR") == false)
 496:Core/Src/esp32.c ****             break;       // The timeout was completed and the string was not there
 497:Core/Src/esp32.c ****         if (result == 2) // It was find the "ERROR" String in the receiving information
 498:Core/Src/esp32.c ****             break;
 499:Core/Src/esp32.c ****         if (Wifi_ReturnInteger((int32_t *)&result, 1, ":") == false)
 500:Core/Src/esp32.c ****             break; // It searches for a ':' Character to know
 501:Core/Src/esp32.c ****                    // the next integer value after that
 502:Core/Src/esp32.c ****         switch (result)
 503:Core/Src/esp32.c ****         {
 504:Core/Src/esp32.c ****         case 0:
 505:Core/Src/esp32.c ****             Wifi.StationDhcp = false;
 506:Core/Src/esp32.c ****             Wifi.SoftApDhcp = false;
 507:Core/Src/esp32.c ****             break;
 508:Core/Src/esp32.c ****         case 1:
 509:Core/Src/esp32.c ****             Wifi.StationDhcp = false;
 510:Core/Src/esp32.c ****             Wifi.SoftApDhcp = true;
 511:Core/Src/esp32.c ****             break;
 512:Core/Src/esp32.c ****         case 2:
 513:Core/Src/esp32.c ****             Wifi.StationDhcp = true;
 514:Core/Src/esp32.c ****             Wifi.SoftApDhcp = false;
 515:Core/Src/esp32.c ****             break;
 516:Core/Src/esp32.c ****         case 3:
 517:Core/Src/esp32.c ****             Wifi.StationDhcp = true;
 518:Core/Src/esp32.c ****             Wifi.SoftApDhcp = true;
 519:Core/Src/esp32.c ****             break;
 520:Core/Src/esp32.c ****         }
 521:Core/Src/esp32.c ****         returnVal = true;
 522:Core/Src/esp32.c ****     } while (0);
 523:Core/Src/esp32.c ****     return returnVal;
 524:Core/Src/esp32.c **** }
 525:Core/Src/esp32.c **** // ################################################################################################
 526:Core/Src/esp32.c **** // ################################################################################################
 527:Core/Src/esp32.c **** // ################################################################################################
 528:Core/Src/esp32.c **** // ################################################################################################
 529:Core/Src/esp32.c **** bool Wifi_SoftAp_Create(char *SSID, char *password, uint8_t channel, WifiEncryptionType_t WifiEncry
 530:Core/Src/esp32.c **** {
 531:Core/Src/esp32.c ****     uint8_t result;
 532:Core/Src/esp32.c ****     bool returnVal = false;
 533:Core/Src/esp32.c ****     do
 534:Core/Src/esp32.c ****     {
 535:Core/Src/esp32.c ****         /*
ARM GAS  /var/folders/9y/n02fl3g16gnf7ppy14xghdy80000gn/T//ccc4kUj2.s 			page 11


 536:Core/Src/esp32.c ****          * It creates the SoftAP (Small WiFi Network) that it is possible with the ESP8266
 537:Core/Src/esp32.c ****          * the data of this network is defined by the inputs of the function
 538:Core/Src/esp32.c ****          */
 539:Core/Src/esp32.c ****         Wifi_RxClear();
 540:Core/Src/esp32.c ****         sprintf((char *)Buffs.TxBuffer, "AT+CWSAP=\"%s\",\"%s\",%d,%d,%d,%d\r\n", SSID, password, c
 541:Core/Src/esp32.c ****         if (Wifi_SendString((char *)Buffs.TxBuffer) == false)
 542:Core/Src/esp32.c ****             break;
 543:Core/Src/esp32.c ****         if (Wifi_WaitForString(_WIFI_WAIT_TIME_LOW, &result, 2, "OK", "ERROR") == false)
 544:Core/Src/esp32.c ****             break;       // The timeout was completed and the string was not there
 545:Core/Src/esp32.c ****         if (result == 2) // It was find the "ERROR" String in the receiving information
 546:Core/Src/esp32.c ****             break;
 547:Core/Src/esp32.c **** 
 548:Core/Src/esp32.c ****         returnVal = true;
 549:Core/Src/esp32.c ****     } while (0);
 550:Core/Src/esp32.c ****     return returnVal;
 551:Core/Src/esp32.c **** }
 552:Core/Src/esp32.c **** // ################################################################################################
 553:Core/Src/esp32.c **** bool Wifi_GetApConnection(void)
 554:Core/Src/esp32.c **** {
 555:Core/Src/esp32.c ****     bool returnVal = false;
 556:Core/Src/esp32.c ****     uint8_t result;
 557:Core/Src/esp32.c ****     do
 558:Core/Src/esp32.c ****     {
 559:Core/Src/esp32.c ****         Wifi_RxClear();
 560:Core/Src/esp32.c ****         // Get the name of the AP Connection
 561:Core/Src/esp32.c ****         sprintf((char *)Buffs.TxBuffer, "AT+CWJAP?\r\n");
 562:Core/Src/esp32.c ****         if (Wifi_SendString((char *)Buffs.TxBuffer) == false)
 563:Core/Src/esp32.c ****             break;
 564:Core/Src/esp32.c ****         if (Wifi_WaitForString(_WIFI_WAIT_TIME_LOW, &result, 2, "OK", "ERROR") == false)
 565:Core/Src/esp32.c ****             break;       // The timeout was completed and the string was not there
 566:Core/Src/esp32.c ****         if (result == 2) // It was find the "ERROR" String in the receiving information
 567:Core/Src/esp32.c ****             break;
 568:Core/Src/esp32.c ****         /*
 569:Core/Src/esp32.c ****          * The previous AT Command has a response like the next example:
 570:Core/Src/esp32.c ****          * 			AT+CWJAP?
 571:Core/Src/esp32.c ****          * 			+CWJAP:<ssid>,<bssid>,<channel>,<rssi>
 572:Core/Src/esp32.c ****          * 			OK
 573:Core/Src/esp32.c ****          * The previous function checks the OK Response and the next lines search for the
 574:Core/Src/esp32.c ****          * information of the SSID, taking in count the position of that information in
 575:Core/Src/esp32.c ****          * the string. It uses pointers to get the start and the final position and the
 576:Core/Src/esp32.c ****          * value is saved in the structure of the Wifi Connection.
 577:Core/Src/esp32.c ****          */
 578:Core/Src/esp32.c **** 
 579:Core/Src/esp32.c ****         char *str1 = strstr((char *)Buffs.RxBuffer.buff, ":\"");
 580:Core/Src/esp32.c ****         if (str1 == NULL)
 581:Core/Src/esp32.c ****         {
 582:Core/Src/esp32.c ****             str1 = strstr((char *)Buffs.RxBuffer.buff, "No AP");
 583:Core/Src/esp32.c ****             if (str1 == NULL)
 584:Core/Src/esp32.c ****                 break;
 585:Core/Src/esp32.c ****             else
 586:Core/Src/esp32.c ****             {
 587:Core/Src/esp32.c ****                 memset(Wifi.SSID_Connected, (uint8_t)'\0', 20);
 588:Core/Src/esp32.c ****                 returnVal = true;
 589:Core/Src/esp32.c ****             }
 590:Core/Src/esp32.c ****         }
 591:Core/Src/esp32.c ****         else
 592:Core/Src/esp32.c ****         {
ARM GAS  /var/folders/9y/n02fl3g16gnf7ppy14xghdy80000gn/T//ccc4kUj2.s 			page 12


 593:Core/Src/esp32.c ****             str1 = str1 + 2;
 594:Core/Src/esp32.c ****             char *str2 = strstr(str1, "\"");
 595:Core/Src/esp32.c ****             size_t len = str2 - str1;
 596:Core/Src/esp32.c ****             strncpy(Wifi.SSID_Connected, str1, len);
 597:Core/Src/esp32.c ****             Wifi.SSID_Connected[len] = '\0';
 598:Core/Src/esp32.c ****             returnVal = true;
 599:Core/Src/esp32.c ****         }
 600:Core/Src/esp32.c ****     } while (0);
 601:Core/Src/esp32.c **** 
 602:Core/Src/esp32.c ****     return returnVal;
 603:Core/Src/esp32.c **** }
 604:Core/Src/esp32.c **** 
 605:Core/Src/esp32.c **** // ################################################################################################
 606:Core/Src/esp32.c **** bool Wifi_SoftAp_GetConnectedDevices(void)
 607:Core/Src/esp32.c **** {
 608:Core/Src/esp32.c ****     uint8_t result;
 609:Core/Src/esp32.c ****     bool returnVal = false;
 610:Core/Src/esp32.c ****     do
 611:Core/Src/esp32.c ****     {
 612:Core/Src/esp32.c ****         /*
 613:Core/Src/esp32.c ****          * The ESP8266 has the possibility to have in a SoftAP (Small WiFi Network) four
 614:Core/Src/esp32.c ****          * devices connected at the same time. This function save the information about
 615:Core/Src/esp32.c ****          * the devices, which is the IP address and the MAC Address of every device
 616:Core/Src/esp32.c ****          */
 617:Core/Src/esp32.c ****         Wifi_RxClear();
 618:Core/Src/esp32.c ****         sprintf((char *)Buffs.TxBuffer, "AT+CWLIF\r\n");
 619:Core/Src/esp32.c ****         if (Wifi_SendString((char *)Buffs.TxBuffer) == false)
 620:Core/Src/esp32.c ****             break;
 621:Core/Src/esp32.c ****         if (Wifi_WaitForString(_WIFI_WAIT_TIME_LOW, &result, 2, "OK", "ERROR") == false)
 622:Core/Src/esp32.c ****             break;       // The timeout was completed and the string was not there
 623:Core/Src/esp32.c ****         if (result == 2) // It was find the "ERROR" String in the receiving information
 624:Core/Src/esp32.c ****             break;
 625:Core/Src/esp32.c **** 
 626:Core/Src/esp32.c ****         Wifi_RemoveChar((char *)Buffs.RxBuffer.buff, '\r');
 627:Core/Src/esp32.c ****         Wifi_ReturnStrings((char *)Buffs.RxBuffer.buff, "\n,", 10, Wifi.SoftApConnectedDevicesIp[0]
 628:Core/Src/esp32.c **** 
 629:Core/Src/esp32.c ****         // Search if there is any device or it does not have any
 630:Core/Src/esp32.c ****         for (uint8_t i = 0; i < 6; i++)
 631:Core/Src/esp32.c ****         {
 632:Core/Src/esp32.c ****             if ((Wifi.SoftApConnectedDevicesIp[i][0] < '0') || (Wifi.SoftApConnectedDevicesIp[i][0]
 633:Core/Src/esp32.c ****                 Wifi.SoftApConnectedDevicesIp[i][0] = 0;
 634:Core/Src/esp32.c ****             if ((Wifi.SoftApConnectedDevicesMac[i][0] < '0') || (Wifi.SoftApConnectedDevicesMac[i][
 635:Core/Src/esp32.c ****                 Wifi.SoftApConnectedDevicesMac[i][0] = 0;
 636:Core/Src/esp32.c ****         }
 637:Core/Src/esp32.c **** 
 638:Core/Src/esp32.c ****         returnVal = true;
 639:Core/Src/esp32.c ****     } while (0);
 640:Core/Src/esp32.c ****     return returnVal;
 641:Core/Src/esp32.c **** }
 642:Core/Src/esp32.c **** // ################################################################################################
 643:Core/Src/esp32.c **** // ################################################################################################
 644:Core/Src/esp32.c **** // ################################################################################################
 645:Core/Src/esp32.c **** // ################################################################################################
 646:Core/Src/esp32.c **** bool Wifi_TcpIp_GetConnectionStatus(void)
 647:Core/Src/esp32.c **** {
 648:Core/Src/esp32.c ****     uint8_t result;
 649:Core/Src/esp32.c ****     bool returnVal = false;
ARM GAS  /var/folders/9y/n02fl3g16gnf7ppy14xghdy80000gn/T//ccc4kUj2.s 			page 13


 650:Core/Src/esp32.c ****     do
 651:Core/Src/esp32.c ****     {
 652:Core/Src/esp32.c ****         Wifi_RxClear();
 653:Core/Src/esp32.c ****         // Get the connections status of all the possible connection with the ESP8266
 654:Core/Src/esp32.c ****         sprintf((char *)Buffs.TxBuffer, "AT+CIPSTATUS\r\n");
 655:Core/Src/esp32.c ****         if (Wifi_SendString((char *)Buffs.TxBuffer) == false)
 656:Core/Src/esp32.c ****             break;
 657:Core/Src/esp32.c ****         if (Wifi_WaitForString(_WIFI_WAIT_TIME_LOW, &result, 2, "OK", "ERROR") == false)
 658:Core/Src/esp32.c ****             break;       // The timeout was completed and the string was not there
 659:Core/Src/esp32.c ****         if (result == 2) // It was find the "ERROR" String in the receiving information
 660:Core/Src/esp32.c ****             break;
 661:Core/Src/esp32.c ****         /*
 662:Core/Src/esp32.c ****          * it searches for the string STATUS: to know what is the status of the connection
 663:Core/Src/esp32.c ****          * and save this information in the different variables of the structure. The ESP8266
 664:Core/Src/esp32.c ****          * has five possible connection at the same time, therefore it uses a for to save
 665:Core/Src/esp32.c ****          * all the needed information in the structure. If there are not other connection
 666:Core/Src/esp32.c ****          * the str return a NULL value and the loop is broken.
 667:Core/Src/esp32.c ****          */
 668:Core/Src/esp32.c ****         char *str = strstr((char *)Buffs.RxBuffer.buff, "\nSTATUS:");
 669:Core/Src/esp32.c ****         if (str == NULL)
 670:Core/Src/esp32.c ****             break;
 671:Core/Src/esp32.c ****         str = strchr(str, ':');
 672:Core/Src/esp32.c ****         str++;
 673:Core/Src/esp32.c ****         for (uint8_t i = 0; i < 5; i++)
 674:Core/Src/esp32.c ****             Wifi.TcpIpConnections[i].status = (WifiConnectionStatus_t)atoi(str);
 675:Core/Src/esp32.c ****         str = strstr((char *)Buffs.RxBuffer.buff, "+CIPSTATUS:");
 676:Core/Src/esp32.c ****         for (uint8_t i = 0; i < 5; i++)
 677:Core/Src/esp32.c ****         {
 678:Core/Src/esp32.c ****             sscanf(str, "+CIPSTATUS:%d,\"%3s\",\"%[^\"]\",%d,%d,%d", (int *)&Wifi.TcpIpConnections[
 679:Core/Src/esp32.c ****             str++;
 680:Core/Src/esp32.c ****             str = strstr(str, "+CIPSTATUS:");
 681:Core/Src/esp32.c ****             if (str == NULL)
 682:Core/Src/esp32.c ****                 break;
 683:Core/Src/esp32.c ****         }
 684:Core/Src/esp32.c ****         returnVal = true;
 685:Core/Src/esp32.c **** 
 686:Core/Src/esp32.c ****     } while (0);
 687:Core/Src/esp32.c ****     return returnVal;
 688:Core/Src/esp32.c **** }
 689:Core/Src/esp32.c **** // ################################################################################################
 690:Core/Src/esp32.c **** bool Wifi_TcpIp_Ping(char *PingTo)
 691:Core/Src/esp32.c **** {
 692:Core/Src/esp32.c ****     uint8_t result;
 693:Core/Src/esp32.c ****     bool returnVal = false;
 694:Core/Src/esp32.c ****     do
 695:Core/Src/esp32.c ****     {
 696:Core/Src/esp32.c ****         Wifi_RxClear();
 697:Core/Src/esp32.c ****         sprintf((char *)Buffs.TxBuffer, "AT+PING=\"%s\"\r\n", PingTo);
 698:Core/Src/esp32.c ****         if (Wifi_SendString((char *)Buffs.TxBuffer) == false)
 699:Core/Src/esp32.c ****             break;
 700:Core/Src/esp32.c ****         if (Wifi_WaitForString(_WIFI_WAIT_TIME_MED, &result, 3, "OK", "ERROR") == false)
 701:Core/Src/esp32.c ****             break;       // The timeout was completed and the string was not there
 702:Core/Src/esp32.c ****         if (result == 2) // It was find the "ERROR" String in the receiving information
 703:Core/Src/esp32.c ****             break;
 704:Core/Src/esp32.c ****         if (Wifi_ReturnInteger((int32_t *)&Wifi.TcpIpPingAnswer, 2, "+") == false)
 705:Core/Src/esp32.c ****             break;
 706:Core/Src/esp32.c ****         returnVal = true;
ARM GAS  /var/folders/9y/n02fl3g16gnf7ppy14xghdy80000gn/T//ccc4kUj2.s 			page 14


 707:Core/Src/esp32.c ****     } while (0);
 708:Core/Src/esp32.c ****     return returnVal;
 709:Core/Src/esp32.c **** }
 710:Core/Src/esp32.c **** // ################################################################################################
 711:Core/Src/esp32.c **** bool Wifi_TcpIp_SetMultiConnection(bool EnableMultiConnections)
 712:Core/Src/esp32.c **** {
 713:Core/Src/esp32.c ****     uint8_t result;
 714:Core/Src/esp32.c ****     bool returnVal = false;
 715:Core/Src/esp32.c ****     do
 716:Core/Src/esp32.c ****     {
 717:Core/Src/esp32.c ****         // Enable or Disable the multiconnection possibility
 718:Core/Src/esp32.c ****         Wifi_RxClear();
 719:Core/Src/esp32.c ****         sprintf((char *)Buffs.TxBuffer, "AT+CIPMUX=%d\r\n", EnableMultiConnections);
 720:Core/Src/esp32.c ****         if (Wifi_SendString((char *)Buffs.TxBuffer) == false)
 721:Core/Src/esp32.c ****             break;
 722:Core/Src/esp32.c ****         if (Wifi_WaitForString(_WIFI_WAIT_TIME_LOW, &result, 2, "OK", "ERROR") == false)
 723:Core/Src/esp32.c ****             break;
 724:Core/Src/esp32.c ****         if (result == 2)
 725:Core/Src/esp32.c ****             break;
 726:Core/Src/esp32.c ****         Wifi.TcpIpMultiConnection = EnableMultiConnections;
 727:Core/Src/esp32.c ****         returnVal = true;
 728:Core/Src/esp32.c ****     } while (0);
 729:Core/Src/esp32.c ****     return returnVal;
 730:Core/Src/esp32.c **** }
 731:Core/Src/esp32.c **** // ################################################################################################
 732:Core/Src/esp32.c **** bool Wifi_TcpIp_GetMultiConnection(void)
 733:Core/Src/esp32.c **** {
 734:Core/Src/esp32.c ****     uint8_t result;
 735:Core/Src/esp32.c ****     bool returnVal = false;
 736:Core/Src/esp32.c ****     do
 737:Core/Src/esp32.c ****     {
 738:Core/Src/esp32.c ****         Wifi_RxClear();
 739:Core/Src/esp32.c ****         sprintf((char *)Buffs.TxBuffer, "AT+CIPMUX?\r\n");
 740:Core/Src/esp32.c ****         if (Wifi_SendString((char *)Buffs.TxBuffer) == false)
 741:Core/Src/esp32.c ****             break;
 742:Core/Src/esp32.c ****         if (Wifi_WaitForString(_WIFI_WAIT_TIME_LOW, &result, 2, "OK", "ERROR") == false)
 743:Core/Src/esp32.c ****             break;       // The timeout was completed and the string was not there
 744:Core/Src/esp32.c ****         if (result == 2) // It was find the "ERROR" String in the receiving information
 745:Core/Src/esp32.c ****             break;
 746:Core/Src/esp32.c ****         if (Wifi_ReturnInteger((int32_t *)&result, 1, ":") == false)
 747:Core/Src/esp32.c ****             break;
 748:Core/Src/esp32.c ****         Wifi.TcpIpMultiConnection = (bool)result;
 749:Core/Src/esp32.c ****         returnVal = true;
 750:Core/Src/esp32.c ****     } while (0);
 751:Core/Src/esp32.c ****     return returnVal;
 752:Core/Src/esp32.c **** }
 753:Core/Src/esp32.c **** // ################################################################################################
 754:Core/Src/esp32.c **** bool Wifi_TcpIp_StartTcpConnection(uint8_t LinkId, char *RemoteIp, uint16_t RemotePort, uint16_t Ti
 755:Core/Src/esp32.c **** {
 756:Core/Src/esp32.c ****     uint8_t result;
 757:Core/Src/esp32.c ****     bool returnVal = false;
 758:Core/Src/esp32.c ****     do
 759:Core/Src/esp32.c ****     {
 760:Core/Src/esp32.c ****         /*
 761:Core/Src/esp32.c ****          * It makes a TCP server and then it creates a TCP Connection according to the
 762:Core/Src/esp32.c ****          * settings in the function. It uses a very high time of waiting because the
 763:Core/Src/esp32.c ****          * ESP8266 takes a lot of time to create a connection with a TCP the first time.
ARM GAS  /var/folders/9y/n02fl3g16gnf7ppy14xghdy80000gn/T//ccc4kUj2.s 			page 15


 764:Core/Src/esp32.c ****          */
 765:Core/Src/esp32.c ****         Wifi_RxClear();
 766:Core/Src/esp32.c ****         if (Wifi.TcpIpMultiConnection == true)
 767:Core/Src/esp32.c ****         {
 768:Core/Src/esp32.c ****             sprintf((char *)Buffs.TxBuffer, "AT+CIPSERVER=1,%d\r\n", RemotePort);
 769:Core/Src/esp32.c ****             if (Wifi_SendString((char *)Buffs.TxBuffer) == false)
 770:Core/Src/esp32.c ****                 break;
 771:Core/Src/esp32.c ****             if (Wifi_WaitForString(_WIFI_WAIT_TIME_LOW, &result, 2, "OK", "ERROR") == false)
 772:Core/Src/esp32.c ****                 break;       // The timeout was completed and the string was not there
 773:Core/Src/esp32.c ****             if (result == 2) // It was find the "ERROR" String in the receiving information
 774:Core/Src/esp32.c ****                 break;
 775:Core/Src/esp32.c ****         }
 776:Core/Src/esp32.c ****         Wifi_RxClear();
 777:Core/Src/esp32.c ****         if (Wifi.TcpIpMultiConnection == false)
 778:Core/Src/esp32.c ****             sprintf((char *)Buffs.TxBuffer, "AT+CIPSTART=\"TCP\",\"%s\",%d,%d\r\n", RemoteIp, Remot
 779:Core/Src/esp32.c ****         else
 780:Core/Src/esp32.c ****             sprintf((char *)Buffs.TxBuffer, "AT+CIPSTART=%d,\"TCP\",\"%s\",%d,%d\r\n", LinkId, Remo
 781:Core/Src/esp32.c ****         if (Wifi_SendString((char *)Buffs.TxBuffer) == false)
 782:Core/Src/esp32.c ****             break;
 783:Core/Src/esp32.c ****         if (Wifi_WaitForString(_WIFI_WAIT_TIME_HIGH, &result, 3, "OK", "CONNECT", "ERROR") == false
 784:Core/Src/esp32.c ****             break;
 785:Core/Src/esp32.c ****         if (result == 3)
 786:Core/Src/esp32.c ****             break;
 787:Core/Src/esp32.c ****         returnVal = true;
 788:Core/Src/esp32.c ****     } while (0);
 789:Core/Src/esp32.c ****     return returnVal;
 790:Core/Src/esp32.c **** }
 791:Core/Src/esp32.c **** // ################################################################################################
 792:Core/Src/esp32.c **** bool Wifi_TcpIp_StartUdpConnection(uint8_t LinkId, char *RemoteIp, uint16_t RemotePort, uint16_t Lo
 793:Core/Src/esp32.c **** {
 794:Core/Src/esp32.c ****     uint8_t result;
 795:Core/Src/esp32.c ****     bool returnVal = false;
 796:Core/Src/esp32.c ****     do
 797:Core/Src/esp32.c ****     {
 798:Core/Src/esp32.c ****         Wifi_RxClear();
 799:Core/Src/esp32.c ****         if (Wifi.TcpIpMultiConnection == false)
 800:Core/Src/esp32.c ****             sprintf((char *)Buffs.TxBuffer, "AT+CIPSTART=\"UDP\",\"%s\",%d,%d\r\n", RemoteIp, Remot
 801:Core/Src/esp32.c ****         else
 802:Core/Src/esp32.c ****             sprintf((char *)Buffs.TxBuffer, "AT+CIPSTART=%d,\"UDP\",\"%s\",%d,%d\r\n", LinkId, Remo
 803:Core/Src/esp32.c ****         if (Wifi_SendString((char *)Buffs.TxBuffer) == false)
 804:Core/Src/esp32.c ****             break;
 805:Core/Src/esp32.c ****         if (Wifi_WaitForString(_WIFI_WAIT_TIME_HIGH, &result, 3, "OK", "ALREADY", "ERROR") == false
 806:Core/Src/esp32.c ****             break;
 807:Core/Src/esp32.c ****         if (result == 3) // If the RX String returns a ERROR the function breaks and
 808:Core/Src/esp32.c ****             break;       // send a false
 809:Core/Src/esp32.c ****         returnVal = true;
 810:Core/Src/esp32.c ****     } while (0);
 811:Core/Src/esp32.c ****     return returnVal;
 812:Core/Src/esp32.c **** }
 813:Core/Src/esp32.c **** // ################################################################################################
 814:Core/Src/esp32.c **** bool Wifi_TcpIp_Close(uint8_t LinkId)
 815:Core/Src/esp32.c **** {
 816:Core/Src/esp32.c ****     uint8_t result;
 817:Core/Src/esp32.c ****     bool returnVal = false;
 818:Core/Src/esp32.c ****     do
 819:Core/Src/esp32.c ****     {
 820:Core/Src/esp32.c ****         Wifi_RxClear();
ARM GAS  /var/folders/9y/n02fl3g16gnf7ppy14xghdy80000gn/T//ccc4kUj2.s 			page 16


 821:Core/Src/esp32.c ****         if (Wifi.TcpIpMultiConnection == false)
 822:Core/Src/esp32.c ****             sprintf((char *)Buffs.TxBuffer, "AT+CIPCLOSE\r\n");
 823:Core/Src/esp32.c ****         else
 824:Core/Src/esp32.c ****             sprintf((char *)Buffs.TxBuffer, "AT+CIPCLOSE=%d\r\n", LinkId);
 825:Core/Src/esp32.c ****         if (Wifi_SendString((char *)Buffs.TxBuffer) == false)
 826:Core/Src/esp32.c ****             break;
 827:Core/Src/esp32.c ****         if (Wifi_WaitForString(_WIFI_WAIT_TIME_LOW, &result, 2, "OK", "ERROR") == false)
 828:Core/Src/esp32.c ****             break;       // The timeout was completed and the string was not there
 829:Core/Src/esp32.c ****         if (result == 2) // It was find the "ERROR" String in the receiving information
 830:Core/Src/esp32.c ****             break;
 831:Core/Src/esp32.c ****         returnVal = true;
 832:Core/Src/esp32.c ****     } while (0);
 833:Core/Src/esp32.c ****     return returnVal;
 834:Core/Src/esp32.c **** }
 835:Core/Src/esp32.c **** // ################################################################################################
 836:Core/Src/esp32.c **** bool Wifi_TcpIp_SetEnableTcpServer(uint16_t PortNumber)
 837:Core/Src/esp32.c **** {
 838:Core/Src/esp32.c ****     uint8_t result;
 839:Core/Src/esp32.c ****     bool returnVal = false;
 840:Core/Src/esp32.c ****     do
 841:Core/Src/esp32.c ****     {
 842:Core/Src/esp32.c ****         Wifi_RxClear();
 843:Core/Src/esp32.c ****         if (Wifi.TcpIpMultiConnection == false)
 844:Core/Src/esp32.c ****         {
 845:Core/Src/esp32.c ****             // it actives the Multiconnection first to make a TCP Server
 846:Core/Src/esp32.c ****             sprintf((char *)Buffs.TxBuffer, "AT+CIPMUX=1\r\n");
 847:Core/Src/esp32.c ****             if (Wifi_SendString((char *)Buffs.TxBuffer) == false)
 848:Core/Src/esp32.c ****                 break;
 849:Core/Src/esp32.c ****             if (Wifi_WaitForString(_WIFI_WAIT_TIME_LOW, &result, 2, "OK", "ERROR") == false)
 850:Core/Src/esp32.c ****                 break;       // The timeout was completed and the string was not there
 851:Core/Src/esp32.c ****             if (result == 2) // It was find the "ERROR" String in the receiving information
 852:Core/Src/esp32.c ****                 break;
 853:Core/Src/esp32.c ****             Wifi.TcpIpMultiConnection = true;
 854:Core/Src/esp32.c ****             Wifi_RxClear();
 855:Core/Src/esp32.c ****         }
 856:Core/Src/esp32.c ****         else
 857:Core/Src/esp32.c ****             sprintf((char *)Buffs.TxBuffer, "AT+CIPSERVER=1,%d\r\n", PortNumber);
 858:Core/Src/esp32.c ****         if (Wifi_SendString((char *)Buffs.TxBuffer) == false)
 859:Core/Src/esp32.c ****             break;
 860:Core/Src/esp32.c ****         if (Wifi_WaitForString(_WIFI_WAIT_TIME_LOW, &result, 2, "OK", "ERROR") == false)
 861:Core/Src/esp32.c ****             break;       // The timeout was completed and the string was not there
 862:Core/Src/esp32.c ****         if (result == 2) // It was find the "ERROR" String in the receiving information
 863:Core/Src/esp32.c ****             break;
 864:Core/Src/esp32.c ****         returnVal = true;
 865:Core/Src/esp32.c ****     } while (0);
 866:Core/Src/esp32.c ****     return returnVal;
 867:Core/Src/esp32.c **** }
 868:Core/Src/esp32.c **** // ################################################################################################
 869:Core/Src/esp32.c **** bool Wifi_TcpIp_SetDisableTcpServer(uint16_t PortNumber)
 870:Core/Src/esp32.c **** {
 871:Core/Src/esp32.c ****     uint8_t result;
 872:Core/Src/esp32.c ****     bool returnVal = false;
 873:Core/Src/esp32.c ****     do
 874:Core/Src/esp32.c ****     {
 875:Core/Src/esp32.c ****         Wifi_RxClear();
 876:Core/Src/esp32.c ****         sprintf((char *)Buffs.TxBuffer, "AT+CIPSERVER=0,%d\r\n", PortNumber);
 877:Core/Src/esp32.c ****         if (Wifi_SendString((char *)Buffs.TxBuffer) == false)
ARM GAS  /var/folders/9y/n02fl3g16gnf7ppy14xghdy80000gn/T//ccc4kUj2.s 			page 17


 878:Core/Src/esp32.c ****             break;
 879:Core/Src/esp32.c ****         if (Wifi_WaitForString(_WIFI_WAIT_TIME_LOW, &result, 2, "OK", "ERROR") == false)
 880:Core/Src/esp32.c ****             break;       // The timeout was completed and the string was not there
 881:Core/Src/esp32.c ****         if (result == 2) // It was find the "ERROR" String in the receiving information
 882:Core/Src/esp32.c ****             break;
 883:Core/Src/esp32.c ****         returnVal = true;
 884:Core/Src/esp32.c ****     } while (0);
 885:Core/Src/esp32.c ****     return returnVal;
 886:Core/Src/esp32.c **** }
 887:Core/Src/esp32.c **** // ################################################################################################
 888:Core/Src/esp32.c **** bool Wifi_TcpIp_SendDataUdp(uint8_t LinkId, uint16_t dataLen, uint8_t *data)
 889:Core/Src/esp32.c **** {
 890:Core/Src/esp32.c ****     uint8_t result;
 891:Core/Src/esp32.c ****     bool returnVal = false;
 892:Core/Src/esp32.c ****     do
 893:Core/Src/esp32.c ****     {
 894:Core/Src/esp32.c ****         Wifi_RxClear();
 895:Core/Src/esp32.c ****         if (Wifi.TcpIpMultiConnection == false)
 896:Core/Src/esp32.c ****             sprintf((char *)Buffs.TxBuffer, "AT+CIPSEND=%d\r\n", dataLen);
 897:Core/Src/esp32.c ****         else
 898:Core/Src/esp32.c ****             sprintf((char *)Buffs.TxBuffer, "AT+CIPSEND=%d,%d\r\n", LinkId, dataLen);
 899:Core/Src/esp32.c ****         if (Wifi_SendString((char *)Buffs.TxBuffer) == false)
 900:Core/Src/esp32.c ****             break;
 901:Core/Src/esp32.c ****         if (Wifi_WaitForString(_WIFI_WAIT_TIME_LOW, &result, 2, ">", "ERROR") == false)
 902:Core/Src/esp32.c ****             break;       // The timeout was completed and the string was not there
 903:Core/Src/esp32.c ****         if (result == 2) // It was find the "ERROR" String in the receiving information
 904:Core/Src/esp32.c ****             break;
 905:Core/Src/esp32.c ****         Wifi_RxClear();
 906:Core/Src/esp32.c ****         // Send in this time the information through the connection
 907:Core/Src/esp32.c ****         Wifi_SendRaw(data, dataLen);
 908:Core/Src/esp32.c ****         if (Wifi_WaitForString(_WIFI_WAIT_TIME_LOW, &result, 2, "OK", "ERROR") == false)
 909:Core/Src/esp32.c ****             break;       // The timeout was completed and the string was not there
 910:Core/Src/esp32.c ****         if (result == 2) // It was find the "ERROR" String in the receiving information
 911:Core/Src/esp32.c ****             break;
 912:Core/Src/esp32.c ****         returnVal = true;
 913:Core/Src/esp32.c ****     } while (0);
 914:Core/Src/esp32.c ****     return returnVal;
 915:Core/Src/esp32.c **** }
 916:Core/Src/esp32.c **** // ################################################################################################
 917:Core/Src/esp32.c **** bool Wifi_TcpIp_SendDataTcp(uint8_t LinkId, uint16_t dataLen, uint8_t *data)
 918:Core/Src/esp32.c **** {
 919:Core/Src/esp32.c ****     uint8_t result;
 920:Core/Src/esp32.c ****     bool returnVal = false;
 921:Core/Src/esp32.c ****     do
 922:Core/Src/esp32.c ****     {
 923:Core/Src/esp32.c ****         Wifi_RxClear();
 924:Core/Src/esp32.c ****         if (Wifi.TcpIpMultiConnection == false)
 925:Core/Src/esp32.c ****             sprintf((char *)Buffs.TxBuffer, "AT+CIPSENDBUF=%d\r\n", dataLen);
 926:Core/Src/esp32.c ****         else
 927:Core/Src/esp32.c ****             sprintf((char *)Buffs.TxBuffer, "AT+CIPSENDBUF=%d,%d\r\n", LinkId, dataLen);
 928:Core/Src/esp32.c ****         if (Wifi_SendString((char *)Buffs.TxBuffer) == false)
 929:Core/Src/esp32.c ****             break;
 930:Core/Src/esp32.c ****         if (Wifi_WaitForString(_WIFI_WAIT_TIME_LOW, &result, 2, "OK", "ERROR") == false)
 931:Core/Src/esp32.c ****             break;
 932:Core/Src/esp32.c ****         if (Wifi_WaitForString(_WIFI_WAIT_TIME_LOW, &result, 3, ">", "ERROR", "busy") == false)
 933:Core/Src/esp32.c ****             break;
 934:Core/Src/esp32.c ****         if (result > 1)
ARM GAS  /var/folders/9y/n02fl3g16gnf7ppy14xghdy80000gn/T//ccc4kUj2.s 			page 18


 935:Core/Src/esp32.c ****             break;
 936:Core/Src/esp32.c ****         Wifi_RxClear();
 937:Core/Src/esp32.c ****         Wifi_SendRaw(data, dataLen);
 938:Core/Src/esp32.c ****         if (Wifi_WaitForString(_WIFI_WAIT_TIME_LOW, &result, 2, "OK", "ERROR") == false)
 939:Core/Src/esp32.c ****             break;
 940:Core/Src/esp32.c ****         returnVal = true;
 941:Core/Src/esp32.c ****     } while (0);
 942:Core/Src/esp32.c ****     return returnVal;
 943:Core/Src/esp32.c **** }
 944:Core/Src/esp32.c **** // ################################################################################################
 945:Core/Src/esp32.c **** /* MQTT Commands */
 946:Core/Src/esp32.c **** // ################################################################################################
 947:Core/Src/esp32.c **** bool SNTP_Init(void)
 948:Core/Src/esp32.c **** {
 949:Core/Src/esp32.c ****     SNTP.enable = 1;
 950:Core/Src/esp32.c ****     SNTP.timezone = -7;
 951:Core/Src/esp32.c ****     SNTP.server1 = "pool.ntp.org";
 952:Core/Src/esp32.c **** 
 953:Core/Src/esp32.c ****     SNTP.time_updated = false;
 954:Core/Src/esp32.c ****     while (!SNTP_TimeUpdated())  // TODO figure out why the year won't read
 955:Core/Src/esp32.c ****         SNTP_SetTimeZone(1);
 956:Core/Src/esp32.c ****     return true;
 957:Core/Src/esp32.c **** }
 958:Core/Src/esp32.c **** // ################################################################################################
 959:Core/Src/esp32.c **** bool SNTP_SetTimeZone(size_t numServers)
 960:Core/Src/esp32.c **** {
 961:Core/Src/esp32.c ****     uint8_t result;
 962:Core/Src/esp32.c ****     bool returnVal = false;
 963:Core/Src/esp32.c ****     do
 964:Core/Src/esp32.c ****     {
 965:Core/Src/esp32.c ****         Wifi_RxClear();
 966:Core/Src/esp32.c ****         switch (numServers)
 967:Core/Src/esp32.c ****         {
 968:Core/Src/esp32.c ****         case 3:
 969:Core/Src/esp32.c ****             sprintf((char *)Buffs.TxBuffer, "AT+CIPSNTPCFG=%d,%d,\"%s\",\"%s\",\"%s\"\r\n", SNTP.en
 970:Core/Src/esp32.c ****             break;
 971:Core/Src/esp32.c ****         case 2:
 972:Core/Src/esp32.c ****             sprintf((char *)Buffs.TxBuffer, "AT+CIPSNTPCFG=%d,%d,\"%s\",\"%s\"\r\n", SNTP.enable, S
 973:Core/Src/esp32.c ****             break;
 974:Core/Src/esp32.c ****         default:
 975:Core/Src/esp32.c ****             sprintf((char *)Buffs.TxBuffer, "AT+CIPSNTPCFG=%d,%d,\"%s\"\r\n", SNTP.enable, SNTP.tim
 976:Core/Src/esp32.c ****             break;
 977:Core/Src/esp32.c ****         }
 978:Core/Src/esp32.c ****         if (Wifi_SendString((char *)Buffs.TxBuffer) == false)
 979:Core/Src/esp32.c ****             break;
 980:Core/Src/esp32.c ****         if (Wifi_WaitForString(_WIFI_WAIT_TIME_LOW, &result, 2, "OK", "ERROR") == false)
 981:Core/Src/esp32.c ****             break;       // The timeout was completed and the string was not there
 982:Core/Src/esp32.c ****         if (result == 2) // It was find the "ERROR" String in the receiving information
 983:Core/Src/esp32.c ****             break;
 984:Core/Src/esp32.c **** 
 985:Core/Src/esp32.c ****         if (Wifi_WaitForString(_WIFI_WAIT_TIME_ULTRAHIGH, &result, 1, "+TIME_UPDATED") == false)
 986:Core/Src/esp32.c ****         {
 987:Core/Src/esp32.c ****             SNTP.time_updated = false;
 988:Core/Src/esp32.c ****             break;
 989:Core/Src/esp32.c ****         }
 990:Core/Src/esp32.c ****         else
 991:Core/Src/esp32.c ****             SNTP.time_updated = true;
ARM GAS  /var/folders/9y/n02fl3g16gnf7ppy14xghdy80000gn/T//ccc4kUj2.s 			page 19


 992:Core/Src/esp32.c **** 
 993:Core/Src/esp32.c ****         returnVal = true;
 994:Core/Src/esp32.c ****     } while (0);
 995:Core/Src/esp32.c ****     return returnVal;
 996:Core/Src/esp32.c **** }
 997:Core/Src/esp32.c **** // ################################################################################################
 998:Core/Src/esp32.c **** bool SNTP_TimeUpdated(void)
 999:Core/Src/esp32.c **** {
1000:Core/Src/esp32.c ****     uint8_t result;
1001:Core/Src/esp32.c ****     bool returnVal = false;
1002:Core/Src/esp32.c ****     do
1003:Core/Src/esp32.c ****     {
1004:Core/Src/esp32.c ****         Wifi_RxClear();
1005:Core/Src/esp32.c **** 
1006:Core/Src/esp32.c ****         sprintf((char *)Buffs.TxBuffer, "AT+CIPSNTPTIME?\r\n");
1007:Core/Src/esp32.c ****         if (Wifi_SendString((char *)Buffs.TxBuffer) == false)
1008:Core/Src/esp32.c ****             break;
1009:Core/Src/esp32.c ****         if (Wifi_WaitForString(_WIFI_WAIT_TIME_LOW, &result, 2, "OK", "ERROR") == false)
1010:Core/Src/esp32.c ****             break;       // The timeout was completed and the string was not there
1011:Core/Src/esp32.c ****         if (result == 2) // It was find the "ERROR" String in the receiving information
1012:Core/Src/esp32.c ****             break;
1013:Core/Src/esp32.c **** 
1014:Core/Src/esp32.c ****         char* search_str = "+CIPSNTPTIME:";
1015:Core/Src/esp32.c ****         char* search_year = "2023";
1016:Core/Src/esp32.c ****         size_t search_idx = 0;
1017:Core/Src/esp32.c ****         lwrb_find(&Buffs.RxBuffer, (void*)search_str, strlen(search_str), 0, &search_idx);
1018:Core/Src/esp32.c ****         if(!lwrb_find(&Buffs.RxBuffer, (void*)search_year, strlen(search_year), search_idx, &search
1019:Core/Src/esp32.c ****             break;
1020:Core/Src/esp32.c ****         }
1021:Core/Src/esp32.c ****         //  = strstr((char *)Buffs.RxBuffer.buff, "+CIPSNTPTIME:");
1022:Core/Src/esp32.c ****         // sscanf(((char*)&Buffs.RxBuffer_Data + search_idx + strlen(search_str)), "%3s %3s %hhu %h
1023:Core/Src/esp32.c **** 
1024:Core/Src/esp32.c ****         returnVal = true;
1025:Core/Src/esp32.c ****     } while (0);
1026:Core/Src/esp32.c **** 
1027:Core/Src/esp32.c ****     return returnVal;
1028:Core/Src/esp32.c **** }
1029:Core/Src/esp32.c **** bool MQTT_Init(void)
1030:Core/Src/esp32.c **** {
1031:Core/Src/esp32.c ****     uint32_t(*unique_id_1) = (uint32_t *)(UID_BASE);      // BASE address
1032:Core/Src/esp32.c ****     uint32_t(*unique_id_2) = (uint32_t *)(UID_BASE + 4);  // BASE address + 0x04 offset
1033:Core/Src/esp32.c ****     uint32_t(*unique_id_3) = (uint32_t *)(UID_BASE + 14); // BASE address + 0x14 0ffset
1034:Core/Src/esp32.c **** 
1035:Core/Src/esp32.c ****     MQTT_GetConnection();
1036:Core/Src/esp32.c ****     if (!MQTT.connected)
1037:Core/Src/esp32.c ****     {
1038:Core/Src/esp32.c ****         MQTT.link_id = 0;
1039:Core/Src/esp32.c ****         MQTT.scheme = MQTTSchemes_TlsBothCert;
1040:Core/Src/esp32.c ****         sprintf(MQTT.client_id, "%p%p%p", unique_id_1, unique_id_2, unique_id_3);
1041:Core/Src/esp32.c ****         strcpy(MQTT.username, "Jpwolfe");
1042:Core/Src/esp32.c ****         strcpy(MQTT.password, "1234567890");
1043:Core/Src/esp32.c ****         strcpy(MQTT.host, "a1k7aswhvntcg-ats.iot.us-west-1.amazonaws.com");
1044:Core/Src/esp32.c ****         MQTT.port = 8883;
1045:Core/Src/esp32.c ****         MQTT.reconnect = 1;
1046:Core/Src/esp32.c ****         strcpy(MQTT.path, "");
1047:Core/Src/esp32.c **** 
1048:Core/Src/esp32.c ****         MQTT_SetUserConfig();
ARM GAS  /var/folders/9y/n02fl3g16gnf7ppy14xghdy80000gn/T//ccc4kUj2.s 			page 20


1049:Core/Src/esp32.c ****         MQTT_Connect();
1050:Core/Src/esp32.c ****         MQTT_GetConnection();
1051:Core/Src/esp32.c ****     }
1052:Core/Src/esp32.c ****     return true;
1053:Core/Src/esp32.c **** }
1054:Core/Src/esp32.c **** 
1055:Core/Src/esp32.c **** // ################################################################################################
1056:Core/Src/esp32.c **** bool MQTT_SetUserConfig(void)
1057:Core/Src/esp32.c **** {
1058:Core/Src/esp32.c ****     uint8_t result;
1059:Core/Src/esp32.c ****     bool returnVal = false;
1060:Core/Src/esp32.c ****     do
1061:Core/Src/esp32.c ****     {
1062:Core/Src/esp32.c ****         Wifi_RxClear();
1063:Core/Src/esp32.c ****         // memset(Buffs.TxBuffer, '\0', sizeof(Buffs.TxBuffer));
1064:Core/Src/esp32.c ****         sprintf((char *)Buffs.TxBuffer, "AT+MQTTUSERCFG=%u,%d,\"%s\",\"%s\",\"%s\",0,0,\"%s\"\r\n",
1065:Core/Src/esp32.c ****         if (Wifi_SendString((char *)Buffs.TxBuffer) == false)
1066:Core/Src/esp32.c ****             break;
1067:Core/Src/esp32.c ****         if (Wifi_WaitForString(_WIFI_WAIT_TIME_LOW, &result, 2, "OK", "ERROR") == false)
1068:Core/Src/esp32.c ****             break;       // The timeout was completed and the string was not there
1069:Core/Src/esp32.c ****         if (result == 2) // It was find the "ERROR" String in the receiving information
1070:Core/Src/esp32.c ****             break;
1071:Core/Src/esp32.c ****         returnVal = true;
1072:Core/Src/esp32.c ****     } while (0);
1073:Core/Src/esp32.c ****     return returnVal;
1074:Core/Src/esp32.c **** }
1075:Core/Src/esp32.c **** // ################################################################################################
1076:Core/Src/esp32.c **** bool MQTT_SetClientID(void)
1077:Core/Src/esp32.c **** {
1078:Core/Src/esp32.c ****     uint8_t result;
1079:Core/Src/esp32.c ****     bool returnVal = false;
1080:Core/Src/esp32.c ****     do
1081:Core/Src/esp32.c ****     {
1082:Core/Src/esp32.c ****         Wifi_RxClear();
1083:Core/Src/esp32.c ****         sprintf((char *)Buffs.TxBuffer, "AT+MQTTCLIENTID=%u,\"%s\"\r\n", MQTT.link_id, MQTT.client_
1084:Core/Src/esp32.c ****         if (Wifi_SendString((char *)Buffs.TxBuffer) == false)
1085:Core/Src/esp32.c ****             break;
1086:Core/Src/esp32.c ****         if (Wifi_WaitForString(_WIFI_WAIT_TIME_LOW, &result, 2, "OK", "ERROR") == false)
1087:Core/Src/esp32.c ****             break;       // The timeout was completed and the string was not there
1088:Core/Src/esp32.c ****         if (result == 2) // It was find the "ERROR" String in the receiving information
1089:Core/Src/esp32.c ****             break;
1090:Core/Src/esp32.c ****         returnVal = true;
1091:Core/Src/esp32.c ****     } while (0);
1092:Core/Src/esp32.c ****     return returnVal;
1093:Core/Src/esp32.c **** }
1094:Core/Src/esp32.c **** // ################################################################################################
1095:Core/Src/esp32.c **** bool MQTT_SetUsername(void)
1096:Core/Src/esp32.c **** {
1097:Core/Src/esp32.c ****     uint8_t result;
1098:Core/Src/esp32.c ****     bool returnVal = false;
1099:Core/Src/esp32.c ****     do
1100:Core/Src/esp32.c ****     {
1101:Core/Src/esp32.c ****         Wifi_RxClear();
1102:Core/Src/esp32.c ****         sprintf((char *)Buffs.TxBuffer, "AT+MQTTUSERNAME=%u,\"%s\"\r\n", MQTT.link_id, MQTT.usernam
1103:Core/Src/esp32.c ****         if (Wifi_SendString((char *)Buffs.TxBuffer) == false)
1104:Core/Src/esp32.c ****             break;
1105:Core/Src/esp32.c ****         if (Wifi_WaitForString(_WIFI_WAIT_TIME_LOW, &result, 2, "OK", "ERROR") == false)
ARM GAS  /var/folders/9y/n02fl3g16gnf7ppy14xghdy80000gn/T//ccc4kUj2.s 			page 21


1106:Core/Src/esp32.c ****             break;       // The timeout was completed and the string was not there
1107:Core/Src/esp32.c ****         if (result == 2) // It was find the "ERROR" String in the receiving information
1108:Core/Src/esp32.c ****             break;
1109:Core/Src/esp32.c ****         returnVal = true;
1110:Core/Src/esp32.c ****     } while (0);
1111:Core/Src/esp32.c ****     return returnVal;
1112:Core/Src/esp32.c **** }
1113:Core/Src/esp32.c **** // ################################################################################################
1114:Core/Src/esp32.c **** bool MQTT_SetPassword(void)
1115:Core/Src/esp32.c **** {
1116:Core/Src/esp32.c ****     uint8_t result;
1117:Core/Src/esp32.c ****     bool returnVal = false;
1118:Core/Src/esp32.c ****     do
1119:Core/Src/esp32.c ****     {
1120:Core/Src/esp32.c ****         Wifi_RxClear();
1121:Core/Src/esp32.c ****         sprintf((char *)Buffs.TxBuffer, "AT+MQTTPASSWORD=%u,\"%s\"\r\n", MQTT.link_id, MQTT.passwor
1122:Core/Src/esp32.c ****         if (Wifi_SendString((char *)Buffs.TxBuffer) == false)
1123:Core/Src/esp32.c ****             break;
1124:Core/Src/esp32.c ****         if (Wifi_WaitForString(_WIFI_WAIT_TIME_LOW, &result, 2, "OK", "ERROR") == false)
1125:Core/Src/esp32.c ****             break;       // The timeout was completed and the string was not there
1126:Core/Src/esp32.c ****         if (result == 2) // It was find the "ERROR" String in the receiving information
1127:Core/Src/esp32.c ****             break;
1128:Core/Src/esp32.c ****         returnVal = true;
1129:Core/Src/esp32.c ****     } while (0);
1130:Core/Src/esp32.c ****     return returnVal;
1131:Core/Src/esp32.c **** }
1132:Core/Src/esp32.c **** // ################################################################################################
1133:Core/Src/esp32.c **** bool MQTT_SetConnectionConfig(void)
1134:Core/Src/esp32.c **** {
1135:Core/Src/esp32.c ****     uint8_t result;
1136:Core/Src/esp32.c ****     bool returnVal = false;
1137:Core/Src/esp32.c ****     do
1138:Core/Src/esp32.c ****     {
1139:Core/Src/esp32.c ****         Wifi_RxClear();
1140:Core/Src/esp32.c ****         sprintf((char *)Buffs.TxBuffer, "AT+MQTTPASSWORD=%u,\"%s\"\r\n", MQTT.link_id, MQTT.passwor
1141:Core/Src/esp32.c ****         if (Wifi_SendString((char *)Buffs.TxBuffer) == false)
1142:Core/Src/esp32.c ****             break;
1143:Core/Src/esp32.c ****         if (Wifi_WaitForString(_WIFI_WAIT_TIME_LOW, &result, 2, "OK", "ERROR") == false)
1144:Core/Src/esp32.c ****             break;       // The timeout was completed and the string was not there
1145:Core/Src/esp32.c ****         if (result == 2) // It was find the "ERROR" String in the receiving information
1146:Core/Src/esp32.c ****             break;
1147:Core/Src/esp32.c ****         returnVal = true;
1148:Core/Src/esp32.c ****     } while (0);
1149:Core/Src/esp32.c ****     return returnVal;
1150:Core/Src/esp32.c **** }
1151:Core/Src/esp32.c **** // ################################################################################################
1152:Core/Src/esp32.c **** bool MQTT_Connect(void)
1153:Core/Src/esp32.c **** {
1154:Core/Src/esp32.c ****     uint8_t result;
1155:Core/Src/esp32.c ****     bool returnVal = false;
1156:Core/Src/esp32.c ****     MQTT.connected = false;
1157:Core/Src/esp32.c ****     do
1158:Core/Src/esp32.c ****     {
1159:Core/Src/esp32.c ****         Wifi_RxClear();
1160:Core/Src/esp32.c ****         sprintf((char *)Buffs.TxBuffer, "AT+MQTTCONN=%u,\"%s\",%u,%d\r\n", MQTT.link_id, MQTT.host,
1161:Core/Src/esp32.c ****         if (Wifi_SendString((char *)Buffs.TxBuffer) == false)
1162:Core/Src/esp32.c ****             break;
ARM GAS  /var/folders/9y/n02fl3g16gnf7ppy14xghdy80000gn/T//ccc4kUj2.s 			page 22


1163:Core/Src/esp32.c ****         if (Wifi_WaitForString(_WIFI_WAIT_TIME_LOW, &result, 2, "OK", "ERROR") == false)
1164:Core/Src/esp32.c ****             break;       // The timeout was completed and the string was not there
1165:Core/Src/esp32.c ****         if (result == 2) // It was find the "ERROR" String in the receiving information
1166:Core/Src/esp32.c ****             break;
1167:Core/Src/esp32.c ****         /* Wait for connection */
1168:Core/Src/esp32.c ****         if (Wifi_WaitForString(_WIFI_WAIT_TIME_VERYHIGH, &result, 1, "+MQTTCONNECTED") == false)
1169:Core/Src/esp32.c ****             break; // The timeout was completed and the string was not there
1170:Core/Src/esp32.c ****         MQTT.connected = true;
1171:Core/Src/esp32.c ****         returnVal = true;
1172:Core/Src/esp32.c ****     } while (0);
1173:Core/Src/esp32.c ****     return returnVal;
1174:Core/Src/esp32.c **** }
1175:Core/Src/esp32.c **** // ################################################################################################
1176:Core/Src/esp32.c **** bool MQTT_GetConnection(void)
1177:Core/Src/esp32.c **** {
1178:Core/Src/esp32.c ****     uint8_t result;
1179:Core/Src/esp32.c ****     bool returnVal = false;
1180:Core/Src/esp32.c ****     static char* items[6];
1181:Core/Src/esp32.c ****     uint8_t items_size = 0;
1182:Core/Src/esp32.c ****     do
1183:Core/Src/esp32.c ****     {
1184:Core/Src/esp32.c ****         Wifi_RxClear();
1185:Core/Src/esp32.c ****         sprintf((char *)Buffs.TxBuffer, "AT+MQTTCONN?\r\n");
1186:Core/Src/esp32.c ****         if (Wifi_SendString((char *)Buffs.TxBuffer) == false)
1187:Core/Src/esp32.c ****             break;
1188:Core/Src/esp32.c ****         if (Wifi_WaitForString(_WIFI_WAIT_TIME_LOW, &result, 2, "OK", "ERROR") == false)
1189:Core/Src/esp32.c ****             break;       // The timeout was completed and the string was not there
1190:Core/Src/esp32.c ****         if (result == 2) // It was find the "ERROR" String in the receiving information
1191:Core/Src/esp32.c ****             break;
1192:Core/Src/esp32.c **** 
1193:Core/Src/esp32.c ****         char *str = strstr((char *)Buffs.RxBuffer.buff, "+MQTTCONN:");
1194:Core/Src/esp32.c ****         // if (sscanf(str, "+MQTTCONN:0,%d,%d,\"%[^\"]\",\"%u\",\"\",%d", (int *)&MQTT.state, (int 
1195:Core/Src/esp32.c ****         //     break;
1196:Core/Src/esp32.c ****         if(!split_string(str, items, &items_size))
1197:Core/Src/esp32.c ****             break;
1198:Core/Src/esp32.c ****         MQTT.state = (MQTTStates_e)atoi(items[0]);
1199:Core/Src/esp32.c ****         MQTT.scheme = (MQTTSchemes_e)atoi(items[1]);
1200:Core/Src/esp32.c ****         strcpy(MQTT.host, items[2]);
1201:Core/Src/esp32.c ****         MQTT.port = (uint16_t)atoi(items[3]);
1202:Core/Src/esp32.c ****         MQTT.reconnect = (bool)atoi(items[5]);
1203:Core/Src/esp32.c ****         
1204:Core/Src/esp32.c ****         if ((MQTT.state >= MQTTStates_Established) && (MQTT.host != NULL))
1205:Core/Src/esp32.c ****             MQTT.connected = true;
1206:Core/Src/esp32.c ****         else
1207:Core/Src/esp32.c ****             MQTT.connected = false;
1208:Core/Src/esp32.c ****         returnVal = true;
1209:Core/Src/esp32.c ****     } while (0);
1210:Core/Src/esp32.c ****     return returnVal;
1211:Core/Src/esp32.c **** }
1212:Core/Src/esp32.c **** // ################################################################################################
1213:Core/Src/esp32.c **** bool MQTT_Publish(MQTT_Message_t Message)
1214:Core/Src/esp32.c **** {
1215:Core/Src/esp32.c ****     uint8_t result;
1216:Core/Src/esp32.c ****     bool returnVal = false;
1217:Core/Src/esp32.c ****     do
1218:Core/Src/esp32.c ****     {
1219:Core/Src/esp32.c ****         Wifi_RxClear();
ARM GAS  /var/folders/9y/n02fl3g16gnf7ppy14xghdy80000gn/T//ccc4kUj2.s 			page 23


1220:Core/Src/esp32.c ****         sprintf((char *)Buffs.TxBuffer, "AT+MQTTPUB=%u,\"%s\",\"%s\",0,0\r\n", MQTT.link_id, Messag
1221:Core/Src/esp32.c ****         if (Wifi_SendString((char *)Buffs.TxBuffer) == false)
1222:Core/Src/esp32.c ****             break;
1223:Core/Src/esp32.c ****         if (Wifi_WaitForString(_WIFI_WAIT_TIME_LOW, &result, 2, "OK", "ERROR") == false)
1224:Core/Src/esp32.c ****             break;       // The timeout was completed and the string was not there
1225:Core/Src/esp32.c ****         if (result == 2) // It was find the "ERROR" String in the receiving information
1226:Core/Src/esp32.c ****             break;
1227:Core/Src/esp32.c ****         returnVal = true;
1228:Core/Src/esp32.c ****     } while (0);
1229:Core/Src/esp32.c ****     return returnVal;
1230:Core/Src/esp32.c **** }
1231:Core/Src/esp32.c **** // ################################################################################################
1232:Core/Src/esp32.c **** bool MQTT_PublishRaw(MQTT_Message_t Message)
1233:Core/Src/esp32.c **** {
1234:Core/Src/esp32.c ****     uint8_t result;
1235:Core/Src/esp32.c ****     bool returnVal = false;
1236:Core/Src/esp32.c ****     do
1237:Core/Src/esp32.c ****     {
1238:Core/Src/esp32.c ****         Wifi_RxClear();
1239:Core/Src/esp32.c ****         sprintf((char *)Buffs.TxBuffer, "AT+MQTTPUBRAW=%u,\"%s\",%u,0,0\r\n", MQTT.link_id, Message
1240:Core/Src/esp32.c ****         if (Wifi_SendString((char *)Buffs.TxBuffer) == false)
1241:Core/Src/esp32.c ****             break;
1242:Core/Src/esp32.c ****         if (Wifi_WaitForString(_WIFI_WAIT_TIME_LOW, &result, 2, "OK", "ERROR") == false)
1243:Core/Src/esp32.c ****             break;       // The timeout was completed and the string was not there
1244:Core/Src/esp32.c ****         if (result == 2) // It was find the "ERROR" String in the receiving information
1245:Core/Src/esp32.c ****             break;
1246:Core/Src/esp32.c ****         /* Send all data */
1247:Core/Src/esp32.c ****         // usart1TransmitDma((uint8_t *)Message.data, (size_t)Message.length);
1248:Core/Src/esp32.c ****         usart_transmit_dma(Message.data);
1249:Core/Src/esp32.c ****         /* Wait for response */
1250:Core/Src/esp32.c ****         if (Wifi_WaitForString(_WIFI_WAIT_TIME_LOW, &result, 2, "+MQTTPUB:OK", "+MQTTPUB:FAIL") == 
1251:Core/Src/esp32.c ****         {
1252:Core/Src/esp32.c ****             usart_transmit_dma(" 0;0 0;0 0;0 0;0 0;0 0;0 0;0 0;0 0;0 0;0 0;0 0;0 0;0 0;0 0;0 0;0 0;
1253:Core/Src/esp32.c ****             break;       // The timeout was completed and the string was not there
1254:Core/Src/esp32.c ****         }
1255:Core/Src/esp32.c ****         if (result == 2) // It was find the "FAIL" String in the receiving information
1256:Core/Src/esp32.c ****             break;
1257:Core/Src/esp32.c ****         returnVal = true;
1258:Core/Src/esp32.c ****     } while (0);
1259:Core/Src/esp32.c ****     return returnVal;
1260:Core/Src/esp32.c **** }
1261:Core/Src/esp32.c **** // ################################################################################################
1262:Core/Src/esp32.c **** bool MQTT_Subscribe(MQTT_Message_t Message)
1263:Core/Src/esp32.c **** {
1264:Core/Src/esp32.c ****     uint8_t result;
1265:Core/Src/esp32.c ****     bool returnVal = false;
1266:Core/Src/esp32.c ****     do
1267:Core/Src/esp32.c ****     {
1268:Core/Src/esp32.c ****         Wifi_RxClear();
1269:Core/Src/esp32.c ****         sprintf((char *)Buffs.TxBuffer, "AT+MQTTSUB=%u,\"%s\",0\r\n", MQTT.link_id, Message.topic);
1270:Core/Src/esp32.c ****         if (Wifi_SendString((char *)Buffs.TxBuffer) == false)
1271:Core/Src/esp32.c ****             break;
1272:Core/Src/esp32.c ****         if (Wifi_WaitForString(_WIFI_WAIT_TIME_LOW, &result, 2, "OK", "ERROR") == false)
1273:Core/Src/esp32.c ****             break;       // The timeout was completed and the string was not there
1274:Core/Src/esp32.c ****         if (result == 2) // It was find the "ERROR" String in the receiving information
1275:Core/Src/esp32.c ****             break;
1276:Core/Src/esp32.c ****         returnVal = true;
ARM GAS  /var/folders/9y/n02fl3g16gnf7ppy14xghdy80000gn/T//ccc4kUj2.s 			page 24


1277:Core/Src/esp32.c ****     } while (0);
1278:Core/Src/esp32.c ****     return returnVal;
1279:Core/Src/esp32.c **** }
1280:Core/Src/esp32.c **** // ################################################################################################
1281:Core/Src/esp32.c **** bool MQTT_Unsubscribe(MQTT_Message_t Message)
1282:Core/Src/esp32.c **** {
1283:Core/Src/esp32.c ****     uint8_t result;
1284:Core/Src/esp32.c ****     bool returnVal = false;
1285:Core/Src/esp32.c ****     do
1286:Core/Src/esp32.c ****     {
1287:Core/Src/esp32.c ****         Wifi_RxClear();
1288:Core/Src/esp32.c ****         sprintf((char *)Buffs.TxBuffer, "AT+MQTTUNSUB=%u,\"%s\"\r\n", MQTT.link_id, Message.topic);
1289:Core/Src/esp32.c ****         if (Wifi_SendString((char *)Buffs.TxBuffer) == false)
1290:Core/Src/esp32.c ****             break;
1291:Core/Src/esp32.c ****         if (Wifi_WaitForString(_WIFI_WAIT_TIME_LOW, &result, 2, "OK", "ERROR") == false)
1292:Core/Src/esp32.c ****             break;       // The timeout was completed and the string was not there
1293:Core/Src/esp32.c ****         if (result == 2) // It was find the "ERROR" String in the receiving information
1294:Core/Src/esp32.c ****             break;
1295:Core/Src/esp32.c ****         returnVal = true;
1296:Core/Src/esp32.c ****     } while (0);
1297:Core/Src/esp32.c ****     return returnVal;
1298:Core/Src/esp32.c **** }
1299:Core/Src/esp32.c **** // ################################################################################################
1300:Core/Src/esp32.c **** bool MQTT_CheckSubscription(MQTT_Message_t *Message)
1301:Core/Src/esp32.c **** {
1302:Core/Src/esp32.c ****     uint8_t result;
1303:Core/Src/esp32.c ****     bool returnVal = false;
1304:Core/Src/esp32.c ****     do
1305:Core/Src/esp32.c ****     {
1306:Core/Src/esp32.c ****         Wifi_RxClear();
1307:Core/Src/esp32.c ****         sprintf((char *)Buffs.TxBuffer, "AT+MQTTSUB?\r\n");
1308:Core/Src/esp32.c ****         if (Wifi_SendString((char *)Buffs.TxBuffer) == false)
1309:Core/Src/esp32.c ****             break;
1310:Core/Src/esp32.c ****         if (Wifi_WaitForString(_WIFI_WAIT_TIME_LOW, &result, 2, "OK", "ERROR") == false)
1311:Core/Src/esp32.c ****             break;       // The timeout was completed and the string was not there
1312:Core/Src/esp32.c ****         if (result == 2) // It was find the "ERROR" String in the receiving information
1313:Core/Src/esp32.c ****             break;
1314:Core/Src/esp32.c **** 
1315:Core/Src/esp32.c ****         char *str = strstr((char *)Buffs.RxBuffer.buff, "+MQTTSUB");
1316:Core/Src/esp32.c ****         if (sscanf(str, "+MQTTSUB:0,\"%[^\"]\",%d,0", Message->topic, (int *)&MQTT.state) == false)
1317:Core/Src/esp32.c ****             break;
1318:Core/Src/esp32.c **** 
1319:Core/Src/esp32.c ****         returnVal = true;
1320:Core/Src/esp32.c ****     } while (0);
1321:Core/Src/esp32.c ****     return returnVal;
1322:Core/Src/esp32.c **** }
1323:Core/Src/esp32.c **** // ################################################################################################
1324:Core/Src/esp32.c **** bool MQTT_Disconnect(void)
1325:Core/Src/esp32.c **** {
1326:Core/Src/esp32.c ****     uint8_t result;
1327:Core/Src/esp32.c ****     bool returnVal = false;
1328:Core/Src/esp32.c ****     do
1329:Core/Src/esp32.c ****     {
1330:Core/Src/esp32.c ****         Wifi_RxClear();
1331:Core/Src/esp32.c ****         sprintf((char *)Buffs.TxBuffer, "AT+MQTTCLEAN=%u\r\n", MQTT.link_id);
1332:Core/Src/esp32.c ****         if (Wifi_SendString((char *)Buffs.TxBuffer) == false)
1333:Core/Src/esp32.c ****             break;
ARM GAS  /var/folders/9y/n02fl3g16gnf7ppy14xghdy80000gn/T//ccc4kUj2.s 			page 25


1334:Core/Src/esp32.c ****         if (Wifi_WaitForString(_WIFI_WAIT_TIME_LOW, &result, 2, "OK", "ERROR") == false)
1335:Core/Src/esp32.c ****             break;       // The timeout was completed and the string was not there
1336:Core/Src/esp32.c ****         if (result == 2) // It was find the "ERROR" String in the receiving information
1337:Core/Src/esp32.c ****             break;
1338:Core/Src/esp32.c ****         returnVal = true;
1339:Core/Src/esp32.c ****     } while (0);
1340:Core/Src/esp32.c ****     return returnVal;
1341:Core/Src/esp32.c **** }
1342:Core/Src/esp32.c **** // ################################################################################################
1343:Core/Src/esp32.c **** bool MQTT_WaitForMessage(MQTT_Message_t *Message, uint32_t waitTime)
1344:Core/Src/esp32.c **** {
1345:Core/Src/esp32.c ****     uint8_t result;
1346:Core/Src/esp32.c ****     bool returnVal = false;
1347:Core/Src/esp32.c ****     do
1348:Core/Src/esp32.c ****     {
1349:Core/Src/esp32.c ****         Wifi_RxClear();
1350:Core/Src/esp32.c ****         memset(Message->data, '\0', strlen(Message->data));
1351:Core/Src/esp32.c ****         if (Wifi_WaitForString(waitTime, &result, 1, "+MQTTSUBRECV") == false)
1352:Core/Src/esp32.c ****             break; // The timeout was completed and the string was not there
1353:Core/Src/esp32.c **** 
1354:Core/Src/esp32.c ****         char *str = strstr((char *)Buffs.RxBuffer.buff, "+MQTTSUBRECV");
1355:Core/Src/esp32.c ****         if (sscanf(str, "+MQTTSUBRECV:0,\"%[^\"]\",%zu,%[^\r]", Message->topic, &Message->length, M
1356:Core/Src/esp32.c ****             break;
1357:Core/Src/esp32.c **** 
1358:Core/Src/esp32.c ****         returnVal = true;
1359:Core/Src/esp32.c ****     } while (0);
1360:Core/Src/esp32.c ****     return returnVal;
1361:Core/Src/esp32.c **** }
1362:Core/Src/esp32.c **** // ################################################################################################
1363:Core/Src/esp32.c **** bool MQTT_ListenForMessage(MQTT_Message_t *Message, char *findStr, size_t* start_idx)
1364:Core/Src/esp32.c **** {
1365:Core/Src/esp32.c ****     bool returnVal = false;
1366:Core/Src/esp32.c ****     size_t find_idx = 0;
1367:Core/Src/esp32.c ****     char* items[3];
1368:Core/Src/esp32.c ****     uint8_t items_size;
1369:Core/Src/esp32.c ****     do
1370:Core/Src/esp32.c ****     {
1371:Core/Src/esp32.c ****         if (lwrb_find(&Buffs.RxBuffer, (void *)findStr, strlen(findStr), *start_idx, &find_idx))
1372:Core/Src/esp32.c ****         {
1373:Core/Src/esp32.c ****             char *str = (char *)Buffs.RxBuffer.buff + find_idx;
1374:Core/Src/esp32.c ****             *start_idx = find_idx;   // start new search at last index
1375:Core/Src/esp32.c ****             if (!split_string(str, items, &items_size))
1376:Core/Src/esp32.c ****                 break;
1377:Core/Src/esp32.c ****             strcpy(Message->topic, items[0]);
1378:Core/Src/esp32.c ****             Message->length = atoi(items[1]);
1379:Core/Src/esp32.c ****             strcpy(Message->data, items[2]);
1380:Core/Src/esp32.c ****             returnVal = true;
1381:Core/Src/esp32.c ****         }
1382:Core/Src/esp32.c **** 
1383:Core/Src/esp32.c ****     } while (0);
1384:Core/Src/esp32.c ****     return returnVal;
1385:Core/Src/esp32.c **** }
1386:Core/Src/esp32.c **** 
1387:Core/Src/esp32.c **** static bool split_string(char* input_string, char* output_array[], uint8_t* output_size)
1388:Core/Src/esp32.c **** {
  36              		.loc 1 1388 1 view -0
  37              		.cfi_startproc
ARM GAS  /var/folders/9y/n02fl3g16gnf7ppy14xghdy80000gn/T//ccc4kUj2.s 			page 26


  38              		@ args = 0, pretend = 0, frame = 0
  39              		@ frame_needed = 0, uses_anonymous_args = 0
  40              		.loc 1 1388 1 is_stmt 0 view .LVU1
  41 0000 F8B5     		push	{r3, r4, r5, r6, r7, lr}
  42              		.cfi_def_cfa_offset 24
  43              		.cfi_offset 3, -24
  44              		.cfi_offset 4, -20
  45              		.cfi_offset 5, -16
  46              		.cfi_offset 6, -12
  47              		.cfi_offset 7, -8
  48              		.cfi_offset 14, -4
  49 0002 0E46     		mov	r6, r1
  50 0004 1746     		mov	r7, r2
1389:Core/Src/esp32.c ****     char *token;
  51              		.loc 1 1389 5 is_stmt 1 view .LVU2
1390:Core/Src/esp32.c ****     int i = 0;
  52              		.loc 1 1390 5 view .LVU3
  53              	.LVL1:
1391:Core/Src/esp32.c **** 
1392:Core/Src/esp32.c ****     // Get the first token
1393:Core/Src/esp32.c ****     token = strtok(input_string, ",");
  54              		.loc 1 1393 5 view .LVU4
  55              		.loc 1 1393 13 is_stmt 0 view .LVU5
  56 0006 134C     		ldr	r4, .L9
  57 0008 2146     		mov	r1, r4
  58              	.LVL2:
  59              		.loc 1 1393 13 view .LVU6
  60 000a FFF7FEFF 		bl	strtok
  61              	.LVL3:
1394:Core/Src/esp32.c ****     token = strtok(NULL, ","); // disregard header string
  62              		.loc 1 1394 5 is_stmt 1 view .LVU7
  63              		.loc 1 1394 13 is_stmt 0 view .LVU8
  64 000e 2146     		mov	r1, r4
  65 0010 0020     		movs	r0, #0
  66 0012 FFF7FEFF 		bl	strtok
  67              	.LVL4:
  68 0016 0446     		mov	r4, r0
  69              	.LVL5:
1395:Core/Src/esp32.c **** 
1396:Core/Src/esp32.c ****     // Loop through the input string and split it by delimiter
1397:Core/Src/esp32.c ****     while (token != NULL)
  70              		.loc 1 1397 5 is_stmt 1 view .LVU9
1390:Core/Src/esp32.c **** 
  71              		.loc 1 1390 9 is_stmt 0 view .LVU10
  72 0018 0025     		movs	r5, #0
  73              		.loc 1 1397 11 view .LVU11
  74 001a 0CE0     		b	.L2
  75              	.LVL6:
  76              	.L8:
1398:Core/Src/esp32.c ****     {
1399:Core/Src/esp32.c ****         if (*token == '\"') // strip "" from string
1400:Core/Src/esp32.c ****         {
1401:Core/Src/esp32.c ****             if (*(token + 1) == '\"')
1402:Core/Src/esp32.c ****                 token = NULL;
1403:Core/Src/esp32.c ****             else
1404:Core/Src/esp32.c ****                 sscanf(token, "\"%[^\"]\"", token);
  77              		.loc 1 1404 17 is_stmt 1 view .LVU12
ARM GAS  /var/folders/9y/n02fl3g16gnf7ppy14xghdy80000gn/T//ccc4kUj2.s 			page 27


  78 001c 2246     		mov	r2, r4
  79 001e 0E49     		ldr	r1, .L9+4
  80 0020 2046     		mov	r0, r4
  81              	.LVL7:
  82              		.loc 1 1404 17 is_stmt 0 view .LVU13
  83 0022 FFF7FEFF 		bl	sscanf
  84              	.LVL8:
  85              	.L3:
1405:Core/Src/esp32.c ****         }
1406:Core/Src/esp32.c ****         output_array[i] = token;
  86              		.loc 1 1406 9 is_stmt 1 view .LVU14
  87              		.loc 1 1406 25 is_stmt 0 view .LVU15
  88 0026 46F82540 		str	r4, [r6, r5, lsl #2]
1407:Core/Src/esp32.c ****         i++;
  89              		.loc 1 1407 9 is_stmt 1 view .LVU16
  90              		.loc 1 1407 10 is_stmt 0 view .LVU17
  91 002a 0135     		adds	r5, r5, #1
  92              	.LVL9:
1408:Core/Src/esp32.c ****         token = strtok(NULL, ",");
  93              		.loc 1 1408 9 is_stmt 1 view .LVU18
  94              		.loc 1 1408 17 is_stmt 0 view .LVU19
  95 002c 0949     		ldr	r1, .L9
  96 002e 0020     		movs	r0, #0
  97 0030 FFF7FEFF 		bl	strtok
  98              	.LVL10:
  99 0034 0446     		mov	r4, r0
 100              	.LVL11:
 101              	.L2:
1397:Core/Src/esp32.c ****     {
 102              		.loc 1 1397 11 is_stmt 1 view .LVU20
 103 0036 3CB1     		cbz	r4, .L7
1399:Core/Src/esp32.c ****         {
 104              		.loc 1 1399 9 view .LVU21
1399:Core/Src/esp32.c ****         {
 105              		.loc 1 1399 13 is_stmt 0 view .LVU22
 106 0038 2378     		ldrb	r3, [r4]	@ zero_extendqisi2
1399:Core/Src/esp32.c ****         {
 107              		.loc 1 1399 12 view .LVU23
 108 003a 222B     		cmp	r3, #34
 109 003c F3D1     		bne	.L3
1401:Core/Src/esp32.c ****                 token = NULL;
 110              		.loc 1 1401 13 is_stmt 1 view .LVU24
1401:Core/Src/esp32.c ****                 token = NULL;
 111              		.loc 1 1401 17 is_stmt 0 view .LVU25
 112 003e 6378     		ldrb	r3, [r4, #1]	@ zero_extendqisi2
1401:Core/Src/esp32.c ****                 token = NULL;
 113              		.loc 1 1401 16 view .LVU26
 114 0040 222B     		cmp	r3, #34
 115 0042 EBD1     		bne	.L8
1402:Core/Src/esp32.c ****             else
 116              		.loc 1 1402 23 view .LVU27
 117 0044 0024     		movs	r4, #0
 118 0046 EEE7     		b	.L3
 119              	.L7:
1409:Core/Src/esp32.c ****     }
1410:Core/Src/esp32.c **** 
1411:Core/Src/esp32.c ****     *output_size = i;
ARM GAS  /var/folders/9y/n02fl3g16gnf7ppy14xghdy80000gn/T//ccc4kUj2.s 			page 28


 120              		.loc 1 1411 5 is_stmt 1 view .LVU28
 121              		.loc 1 1411 18 is_stmt 0 view .LVU29
 122 0048 3D70     		strb	r5, [r7]
1412:Core/Src/esp32.c **** 
1413:Core/Src/esp32.c ****     // Return true if string is successfully split, false otherwise
1414:Core/Src/esp32.c ****     return i > 0;
 123              		.loc 1 1414 5 is_stmt 1 view .LVU30
1415:Core/Src/esp32.c **** }...
 124              		.loc 1 1415 1 is_stmt 0 view .LVU31
 125 004a 002D     		cmp	r5, #0
 126 004c D4BF     		ite	le
 127 004e 0020     		movle	r0, #0
 128              	.LVL12:
 129              		.loc 1 1415 1 view .LVU32
 130 0050 0120     		movgt	r0, #1
 131 0052 F8BD     		pop	{r3, r4, r5, r6, r7, pc}
 132              	.LVL13:
 133              	.L10:
 134              		.loc 1 1415 1 view .LVU33
 135              		.align	2
 136              	.L9:
 137 0054 00000000 		.word	.LC0
 138 0058 04000000 		.word	.LC1
 139              		.cfi_endproc
 140              	.LFE1214:
 142              		.section	.text.Wifi_SendRaw,"ax",%progbits
 143              		.align	1
 144              		.global	Wifi_SendRaw
 145              		.syntax unified
 146              		.thumb
 147              		.thumb_func
 148              		.fpu fpv4-sp-d16
 150              	Wifi_SendRaw:
 151              	.LVL14:
 152              	.LFB1155:
  11:Core/Src/esp32.c **** {
 153              		.loc 1 11 1 is_stmt 1 view -0
 154              		.cfi_startproc
 155              		@ args = 0, pretend = 0, frame = 0
 156              		@ frame_needed = 0, uses_anonymous_args = 0
  12:Core/Src/esp32.c ****     if (len <= _WIFI_TX_SIZE)
 157              		.loc 1 12 5 view .LVU35
  12:Core/Src/esp32.c ****     if (len <= _WIFI_TX_SIZE)
 158              		.loc 1 12 8 is_stmt 0 view .LVU36
 159 0000 B1F5806F 		cmp	r1, #1024
 160 0004 01D9     		bls	.L18
  19:Core/Src/esp32.c ****         return false;
 161              		.loc 1 19 16 view .LVU37
 162 0006 0020     		movs	r0, #0
 163              	.LVL15:
  20:Core/Src/esp32.c **** }
 164              		.loc 1 20 1 view .LVU38
 165 0008 7047     		bx	lr
 166              	.LVL16:
 167              	.L18:
  11:Core/Src/esp32.c **** {
 168              		.loc 1 11 1 view .LVU39
ARM GAS  /var/folders/9y/n02fl3g16gnf7ppy14xghdy80000gn/T//ccc4kUj2.s 			page 29


 169 000a 08B5     		push	{r3, lr}
 170              		.cfi_def_cfa_offset 8
 171              		.cfi_offset 3, -8
 172              		.cfi_offset 14, -4
  15:Core/Src/esp32.c ****         usart_transmit_dma((char*)data);
 173              		.loc 1 15 9 is_stmt 1 view .LVU40
 174 000c FFF7FEFF 		bl	usart_transmit_dma
 175              	.LVL17:
  16:Core/Src/esp32.c ****         return true;
 176              		.loc 1 16 9 view .LVU41
  16:Core/Src/esp32.c ****         return true;
 177              		.loc 1 16 16 is_stmt 0 view .LVU42
 178 0010 0120     		movs	r0, #1
  20:Core/Src/esp32.c **** }
 179              		.loc 1 20 1 view .LVU43
 180 0012 08BD     		pop	{r3, pc}
 181              		.cfi_endproc
 182              	.LFE1155:
 184              		.section	.text.Wifi_SendString,"ax",%progbits
 185              		.align	1
 186              		.global	Wifi_SendString
 187              		.syntax unified
 188              		.thumb
 189              		.thumb_func
 190              		.fpu fpv4-sp-d16
 192              	Wifi_SendString:
 193              	.LVL18:
 194              	.LFB1156:
  23:Core/Src/esp32.c **** {
 195              		.loc 1 23 1 is_stmt 1 view -0
 196              		.cfi_startproc
 197              		@ args = 0, pretend = 0, frame = 0
 198              		@ frame_needed = 0, uses_anonymous_args = 0
  23:Core/Src/esp32.c **** {
 199              		.loc 1 23 1 is_stmt 0 view .LVU45
 200 0000 10B5     		push	{r4, lr}
 201              		.cfi_def_cfa_offset 8
 202              		.cfi_offset 4, -8
 203              		.cfi_offset 14, -4
 204 0002 0446     		mov	r4, r0
  24:Core/Src/esp32.c ****     return Wifi_SendRaw((uint8_t *)data, strlen(data));
 205              		.loc 1 24 5 is_stmt 1 view .LVU46
  24:Core/Src/esp32.c ****     return Wifi_SendRaw((uint8_t *)data, strlen(data));
 206              		.loc 1 24 42 is_stmt 0 view .LVU47
 207 0004 FFF7FEFF 		bl	strlen
 208              	.LVL19:
  24:Core/Src/esp32.c ****     return Wifi_SendRaw((uint8_t *)data, strlen(data));
 209              		.loc 1 24 12 view .LVU48
 210 0008 81B2     		uxth	r1, r0
 211 000a 2046     		mov	r0, r4
 212 000c FFF7FEFF 		bl	Wifi_SendRaw
 213              	.LVL20:
  25:Core/Src/esp32.c **** }
 214              		.loc 1 25 1 view .LVU49
 215 0010 10BD     		pop	{r4, pc}
  25:Core/Src/esp32.c **** }
 216              		.loc 1 25 1 view .LVU50
ARM GAS  /var/folders/9y/n02fl3g16gnf7ppy14xghdy80000gn/T//ccc4kUj2.s 			page 30


 217              		.cfi_endproc
 218              	.LFE1156:
 220              		.section	.text.Wifi_SendStringAndWait,"ax",%progbits
 221              		.align	1
 222              		.global	Wifi_SendStringAndWait
 223              		.syntax unified
 224              		.thumb
 225              		.thumb_func
 226              		.fpu fpv4-sp-d16
 228              	Wifi_SendStringAndWait:
 229              	.LVL21:
 230              	.LFB1157:
  28:Core/Src/esp32.c **** {
 231              		.loc 1 28 1 is_stmt 1 view -0
 232              		.cfi_startproc
 233              		@ args = 0, pretend = 0, frame = 0
 234              		@ frame_needed = 0, uses_anonymous_args = 0
  28:Core/Src/esp32.c **** {
 235              		.loc 1 28 1 is_stmt 0 view .LVU52
 236 0000 38B5     		push	{r3, r4, r5, lr}
 237              		.cfi_def_cfa_offset 16
 238              		.cfi_offset 3, -16
 239              		.cfi_offset 4, -12
 240              		.cfi_offset 5, -8
 241              		.cfi_offset 14, -4
 242 0002 0446     		mov	r4, r0
 243 0004 0D46     		mov	r5, r1
  29:Core/Src/esp32.c ****     if (Wifi_SendRaw((uint8_t *)data, strlen(data)) == false)
 244              		.loc 1 29 5 is_stmt 1 view .LVU53
  29:Core/Src/esp32.c ****     if (Wifi_SendRaw((uint8_t *)data, strlen(data)) == false)
 245              		.loc 1 29 39 is_stmt 0 view .LVU54
 246 0006 FFF7FEFF 		bl	strlen
 247              	.LVL22:
  29:Core/Src/esp32.c ****     if (Wifi_SendRaw((uint8_t *)data, strlen(data)) == false)
 248              		.loc 1 29 9 view .LVU55
 249 000a 81B2     		uxth	r1, r0
 250 000c 2046     		mov	r0, r4
 251 000e FFF7FEFF 		bl	Wifi_SendRaw
 252              	.LVL23:
  29:Core/Src/esp32.c ****     if (Wifi_SendRaw((uint8_t *)data, strlen(data)) == false)
 253              		.loc 1 29 8 view .LVU56
 254 0012 0446     		mov	r4, r0
 255              	.LVL24:
  29:Core/Src/esp32.c ****     if (Wifi_SendRaw((uint8_t *)data, strlen(data)) == false)
 256              		.loc 1 29 8 view .LVU57
 257 0014 08B9     		cbnz	r0, .L24
 258              	.L22:
  33:Core/Src/esp32.c **** }
 259              		.loc 1 33 1 view .LVU58
 260 0016 2046     		mov	r0, r4
 261 0018 38BD     		pop	{r3, r4, r5, pc}
 262              	.L24:
  31:Core/Src/esp32.c ****     delayMicroseconds(DelayUs);
 263              		.loc 1 31 5 is_stmt 1 view .LVU59
 264 001a 2846     		mov	r0, r5
 265 001c FFF7FEFF 		bl	delayMicroseconds
 266              	.LVL25:
ARM GAS  /var/folders/9y/n02fl3g16gnf7ppy14xghdy80000gn/T//ccc4kUj2.s 			page 31


  32:Core/Src/esp32.c ****     return true;
 267              		.loc 1 32 5 view .LVU60
  32:Core/Src/esp32.c ****     return true;
 268              		.loc 1 32 12 is_stmt 0 view .LVU61
 269 0020 F9E7     		b	.L22
 270              		.cfi_endproc
 271              	.LFE1157:
 273              		.section	.text.Wifi_WaitForString,"ax",%progbits
 274              		.align	1
 275              		.global	Wifi_WaitForString
 276              		.syntax unified
 277              		.thumb
 278              		.thumb_func
 279              		.fpu fpv4-sp-d16
 281              	Wifi_WaitForString:
 282              	.LVL26:
 283              	.LFB1158:
  36:Core/Src/esp32.c **** {
 284              		.loc 1 36 1 is_stmt 1 view -0
 285              		.cfi_startproc
 286              		@ args = 4, pretend = 8, frame = 8
 287              		@ frame_needed = 1, uses_anonymous_args = 1
  36:Core/Src/esp32.c **** {
 288              		.loc 1 36 1 is_stmt 0 view .LVU63
 289 0000 0CB4     		push	{r2, r3}
 290              		.cfi_def_cfa_offset 8
 291              		.cfi_offset 2, -8
 292              		.cfi_offset 3, -4
 293 0002 2DE9F047 		push	{r4, r5, r6, r7, r8, r9, r10, lr}
 294              		.cfi_def_cfa_offset 40
 295              		.cfi_offset 4, -40
 296              		.cfi_offset 5, -36
 297              		.cfi_offset 6, -32
 298              		.cfi_offset 7, -28
 299              		.cfi_offset 8, -24
 300              		.cfi_offset 9, -20
 301              		.cfi_offset 10, -16
 302              		.cfi_offset 14, -12
 303 0006 82B0     		sub	sp, sp, #8
 304              		.cfi_def_cfa_offset 48
 305 0008 00AF     		add	r7, sp, #0
 306              		.cfi_def_cfa_register 7
 307 000a 97F82850 		ldrb	r5, [r7, #40]	@ zero_extendqisi2
  50:Core/Src/esp32.c ****     if (result == NULL)
 308              		.loc 1 50 5 is_stmt 1 view .LVU64
  50:Core/Src/esp32.c ****     if (result == NULL)
 309              		.loc 1 50 8 is_stmt 0 view .LVU65
 310 000e 0029     		cmp	r1, #0
 311 0010 40D0     		beq	.L34
 312 0012 8146     		mov	r9, r0
 313 0014 8846     		mov	r8, r1
  52:Core/Src/esp32.c ****     if (CountOfParameter == 0)
 314              		.loc 1 52 5 is_stmt 1 view .LVU66
  52:Core/Src/esp32.c ****     if (CountOfParameter == 0)
 315              		.loc 1 52 8 is_stmt 0 view .LVU67
 316 0016 35B9     		cbnz	r5, .L37
  53:Core/Src/esp32.c ****         return false;
ARM GAS  /var/folders/9y/n02fl3g16gnf7ppy14xghdy80000gn/T//ccc4kUj2.s 			page 32


 317              		.loc 1 53 16 view .LVU68
 318 0018 0020     		movs	r0, #0
 319              	.LVL27:
 320              	.L26:
  79:Core/Src/esp32.c **** }
 321              		.loc 1 79 1 view .LVU69
 322 001a 0837     		adds	r7, r7, #8
 323              		.cfi_remember_state
 324              		.cfi_def_cfa_offset 40
 325 001c BD46     		mov	sp, r7
 326              		.cfi_def_cfa_register 13
 327              		@ sp needed
 328 001e BDE8F047 		pop	{r4, r5, r6, r7, r8, r9, r10, lr}
 329              		.cfi_restore 14
 330              		.cfi_restore 10
 331              		.cfi_restore 9
 332              		.cfi_restore 8
 333              		.cfi_restore 7
 334              		.cfi_restore 6
 335              		.cfi_restore 5
 336              		.cfi_restore 4
 337              		.cfi_def_cfa_offset 8
 338 0022 02B0     		add	sp, sp, #8
 339              		.cfi_restore 3
 340              		.cfi_restore 2
 341              		.cfi_def_cfa_offset 0
 342 0024 7047     		bx	lr
 343              	.LVL28:
 344              	.L37:
 345              		.cfi_restore_state
  55:Core/Src/esp32.c ****     *result = 0;
 346              		.loc 1 55 5 is_stmt 1 view .LVU70
  55:Core/Src/esp32.c ****     *result = 0;
 347              		.loc 1 55 13 is_stmt 0 view .LVU71
 348 0026 0023     		movs	r3, #0
 349 0028 0B70     		strb	r3, [r1]
  57:Core/Src/esp32.c ****     va_list tag;
 350              		.loc 1 57 5 is_stmt 1 view .LVU72
  58:Core/Src/esp32.c ****     va_start(tag, CountOfParameter);
 351              		.loc 1 58 5 view .LVU73
 352 002a 07F12C02 		add	r2, r7, #44
 353 002e 7A60     		str	r2, [r7, #4]
  59:Core/Src/esp32.c ****     char *arg[CountOfParameter];
 354              		.loc 1 59 5 view .LVU74
 355              	.LVL29:
  59:Core/Src/esp32.c ****     char *arg[CountOfParameter];
 356              		.loc 1 59 11 is_stmt 0 view .LVU75
 357 0030 AA00     		lsls	r2, r5, #2
 358 0032 0732     		adds	r2, r2, #7
 359 0034 02F4FF62 		and	r2, r2, #2040
 360 0038 ADEB020D 		sub	sp, sp, r2
 361 003c 6E46     		mov	r6, sp
 362              	.LVL30:
  60:Core/Src/esp32.c ****     for (uint8_t i = 0; i < CountOfParameter; i++)
 363              		.loc 1 60 5 is_stmt 1 view .LVU76
 364              	.LBB2:
  60:Core/Src/esp32.c ****     for (uint8_t i = 0; i < CountOfParameter; i++)
ARM GAS  /var/folders/9y/n02fl3g16gnf7ppy14xghdy80000gn/T//ccc4kUj2.s 			page 33


 365              		.loc 1 60 10 view .LVU77
 366              	.L27:
  60:Core/Src/esp32.c ****     for (uint8_t i = 0; i < CountOfParameter; i++)
 367              		.loc 1 60 25 discriminator 1 view .LVU78
  60:Core/Src/esp32.c ****     for (uint8_t i = 0; i < CountOfParameter; i++)
 368              		.loc 1 60 5 is_stmt 0 discriminator 1 view .LVU79
 369 003e AB42     		cmp	r3, r5
 370 0040 08D2     		bcs	.L38
  61:Core/Src/esp32.c ****         arg[i] = va_arg(tag, char *);
 371              		.loc 1 61 9 is_stmt 1 discriminator 3 view .LVU80
  61:Core/Src/esp32.c ****         arg[i] = va_arg(tag, char *);
 372              		.loc 1 61 18 is_stmt 0 discriminator 3 view .LVU81
 373 0042 7A68     		ldr	r2, [r7, #4]
 374 0044 111D     		adds	r1, r2, #4
 375 0046 7960     		str	r1, [r7, #4]
 376 0048 1268     		ldr	r2, [r2]
  61:Core/Src/esp32.c ****         arg[i] = va_arg(tag, char *);
 377              		.loc 1 61 16 discriminator 3 view .LVU82
 378 004a 46F82320 		str	r2, [r6, r3, lsl #2]
  60:Core/Src/esp32.c ****     for (uint8_t i = 0; i < CountOfParameter; i++)
 379              		.loc 1 60 47 is_stmt 1 discriminator 3 view .LVU83
  60:Core/Src/esp32.c ****     for (uint8_t i = 0; i < CountOfParameter; i++)
 380              		.loc 1 60 48 is_stmt 0 discriminator 3 view .LVU84
 381 004e 0133     		adds	r3, r3, #1
 382              	.LVL31:
  60:Core/Src/esp32.c ****     for (uint8_t i = 0; i < CountOfParameter; i++)
 383              		.loc 1 60 48 discriminator 3 view .LVU85
 384 0050 DBB2     		uxtb	r3, r3
 385              	.LVL32:
  60:Core/Src/esp32.c ****     for (uint8_t i = 0; i < CountOfParameter; i++)
 386              		.loc 1 60 48 discriminator 3 view .LVU86
 387 0052 F4E7     		b	.L27
 388              	.L38:
  60:Core/Src/esp32.c ****     for (uint8_t i = 0; i < CountOfParameter; i++)
 389              		.loc 1 60 48 discriminator 3 view .LVU87
 390              	.LBE2:
 391              	.LBB3:
  64:Core/Src/esp32.c ****     for (uint32_t t = 0; t < TimeOut_ms; t += 20)
 392              		.loc 1 64 19 view .LVU88
 393 0054 4FF0000A 		mov	r10, #0
 394              	.LVL33:
 395              	.L29:
  64:Core/Src/esp32.c ****     for (uint32_t t = 0; t < TimeOut_ms; t += 20)
 396              		.loc 1 64 26 is_stmt 1 discriminator 1 view .LVU89
  64:Core/Src/esp32.c ****     for (uint32_t t = 0; t < TimeOut_ms; t += 20)
 397              		.loc 1 64 5 is_stmt 0 discriminator 1 view .LVU90
 398 0058 CA45     		cmp	r10, r9
 399 005a 19D2     		bcs	.L39
  66:Core/Src/esp32.c ****         delayMicroseconds(20000);
 400              		.loc 1 66 9 is_stmt 1 view .LVU91
 401 005c 44F62060 		movw	r0, #20000
 402 0060 FFF7FEFF 		bl	delayMicroseconds
 403              	.LVL34:
  67:Core/Src/esp32.c ****         for (uint8_t mx = 0; mx < CountOfParameter; mx++)
 404              		.loc 1 67 9 view .LVU92
 405              	.LBB4:
  67:Core/Src/esp32.c ****         for (uint8_t mx = 0; mx < CountOfParameter; mx++)
ARM GAS  /var/folders/9y/n02fl3g16gnf7ppy14xghdy80000gn/T//ccc4kUj2.s 			page 34


 406              		.loc 1 67 14 view .LVU93
  67:Core/Src/esp32.c ****         for (uint8_t mx = 0; mx < CountOfParameter; mx++)
 407              		.loc 1 67 22 is_stmt 0 view .LVU94
 408 0064 0024     		movs	r4, #0
 409              	.LVL35:
 410              	.L30:
  67:Core/Src/esp32.c ****         for (uint8_t mx = 0; mx < CountOfParameter; mx++)
 411              		.loc 1 67 30 is_stmt 1 discriminator 1 view .LVU95
  67:Core/Src/esp32.c ****         for (uint8_t mx = 0; mx < CountOfParameter; mx++)
 412              		.loc 1 67 9 is_stmt 0 discriminator 1 view .LVU96
 413 0066 AC42     		cmp	r4, r5
 414 0068 0FD2     		bcs	.L40
  69:Core/Src/esp32.c ****             if (strstr((char *)Buffs.RxBuffer.buff, arg[mx]) != NULL)  // TODO change to lwrb_find(
 415              		.loc 1 69 13 is_stmt 1 view .LVU97
  69:Core/Src/esp32.c ****             if (strstr((char *)Buffs.RxBuffer.buff, arg[mx]) != NULL)  // TODO change to lwrb_find(
 416              		.loc 1 69 17 is_stmt 0 view .LVU98
 417 006a 56F82410 		ldr	r1, [r6, r4, lsl #2]
 418 006e 0A4B     		ldr	r3, .L42
 419 0070 D3F80008 		ldr	r0, [r3, #2048]
 420 0074 FFF7FEFF 		bl	strstr
 421              	.LVL36:
  69:Core/Src/esp32.c ****             if (strstr((char *)Buffs.RxBuffer.buff, arg[mx]) != NULL)  // TODO change to lwrb_find(
 422              		.loc 1 69 16 view .LVU99
 423 0078 10B9     		cbnz	r0, .L41
  67:Core/Src/esp32.c ****         for (uint8_t mx = 0; mx < CountOfParameter; mx++)
 424              		.loc 1 67 53 is_stmt 1 discriminator 2 view .LVU100
  67:Core/Src/esp32.c ****         for (uint8_t mx = 0; mx < CountOfParameter; mx++)
 425              		.loc 1 67 55 is_stmt 0 discriminator 2 view .LVU101
 426 007a 0134     		adds	r4, r4, #1
 427              	.LVL37:
  67:Core/Src/esp32.c ****         for (uint8_t mx = 0; mx < CountOfParameter; mx++)
 428              		.loc 1 67 55 discriminator 2 view .LVU102
 429 007c E4B2     		uxtb	r4, r4
 430              	.LVL38:
  67:Core/Src/esp32.c ****         for (uint8_t mx = 0; mx < CountOfParameter; mx++)
 431              		.loc 1 67 55 discriminator 2 view .LVU103
 432 007e F2E7     		b	.L30
 433              	.L41:
  72:Core/Src/esp32.c ****                 *result = mx + 1;
 434              		.loc 1 72 17 is_stmt 1 view .LVU104
  72:Core/Src/esp32.c ****                 *result = mx + 1;
 435              		.loc 1 72 30 is_stmt 0 view .LVU105
 436 0080 0134     		adds	r4, r4, #1
 437              	.LVL39:
  72:Core/Src/esp32.c ****                 *result = mx + 1;
 438              		.loc 1 72 25 view .LVU106
 439 0082 88F80040 		strb	r4, [r8]
  73:Core/Src/esp32.c ****                 return true;
 440              		.loc 1 73 17 is_stmt 1 view .LVU107
  73:Core/Src/esp32.c ****                 return true;
 441              		.loc 1 73 24 is_stmt 0 view .LVU108
 442 0086 0120     		movs	r0, #1
 443 0088 C7E7     		b	.L26
 444              	.LVL40:
 445              	.L40:
  73:Core/Src/esp32.c ****                 return true;
 446              		.loc 1 73 24 view .LVU109
ARM GAS  /var/folders/9y/n02fl3g16gnf7ppy14xghdy80000gn/T//ccc4kUj2.s 			page 35


 447              	.LBE4:
  64:Core/Src/esp32.c ****     for (uint32_t t = 0; t < TimeOut_ms; t += 20)
 448              		.loc 1 64 42 is_stmt 1 discriminator 2 view .LVU110
  64:Core/Src/esp32.c ****     for (uint32_t t = 0; t < TimeOut_ms; t += 20)
 449              		.loc 1 64 44 is_stmt 0 discriminator 2 view .LVU111
 450 008a 0AF1140A 		add	r10, r10, #20
 451              	.LVL41:
  64:Core/Src/esp32.c ****     for (uint32_t t = 0; t < TimeOut_ms; t += 20)
 452              		.loc 1 64 44 discriminator 2 view .LVU112
 453 008e E3E7     		b	.L29
 454              	.LVL42:
 455              	.L39:
  64:Core/Src/esp32.c ****     for (uint32_t t = 0; t < TimeOut_ms; t += 20)
 456              		.loc 1 64 44 discriminator 2 view .LVU113
 457              	.LBE3:
  78:Core/Src/esp32.c ****     return false;
 458              		.loc 1 78 12 view .LVU114
 459 0090 0020     		movs	r0, #0
 460              	.LBB5:
 461 0092 C2E7     		b	.L26
 462              	.LVL43:
 463              	.L34:
  78:Core/Src/esp32.c ****     return false;
 464              		.loc 1 78 12 view .LVU115
 465              	.LBE5:
  51:Core/Src/esp32.c ****         return false;
 466              		.loc 1 51 16 view .LVU116
 467 0094 0020     		movs	r0, #0
 468              	.LVL44:
  51:Core/Src/esp32.c ****         return false;
 469              		.loc 1 51 16 view .LVU117
 470 0096 C0E7     		b	.L26
 471              	.L43:
 472              		.align	2
 473              	.L42:
 474 0098 00000000 		.word	Buffs
 475              		.cfi_endproc
 476              	.LFE1158:
 478              		.section	.text.Wifi_ReturnString,"ax",%progbits
 479              		.align	1
 480              		.global	Wifi_ReturnString
 481              		.syntax unified
 482              		.thumb
 483              		.thumb_func
 484              		.fpu fpv4-sp-d16
 486              	Wifi_ReturnString:
 487              	.LVL45:
 488              	.LFB1159:
  82:Core/Src/esp32.c **** {
 489              		.loc 1 82 1 is_stmt 1 view -0
 490              		.cfi_startproc
 491              		@ args = 0, pretend = 0, frame = 0
 492              		@ frame_needed = 0, uses_anonymous_args = 0
  83:Core/Src/esp32.c ****     if (result == NULL)
 493              		.loc 1 83 5 view .LVU119
  83:Core/Src/esp32.c ****     if (result == NULL)
 494              		.loc 1 83 8 is_stmt 0 view .LVU120
ARM GAS  /var/folders/9y/n02fl3g16gnf7ppy14xghdy80000gn/T//ccc4kUj2.s 			page 36


 495 0000 20B3     		cbz	r0, .L49
  82:Core/Src/esp32.c **** {
 496              		.loc 1 82 1 view .LVU121
 497 0002 70B5     		push	{r4, r5, r6, lr}
 498              		.cfi_def_cfa_offset 16
 499              		.cfi_offset 4, -16
 500              		.cfi_offset 5, -12
 501              		.cfi_offset 6, -8
 502              		.cfi_offset 14, -4
 503 0004 0C46     		mov	r4, r1
 504 0006 1546     		mov	r5, r2
 505 0008 0646     		mov	r6, r0
  85:Core/Src/esp32.c ****     if (WantWhichOne == 0)
 506              		.loc 1 85 5 is_stmt 1 view .LVU122
  85:Core/Src/esp32.c ****     if (WantWhichOne == 0)
 507              		.loc 1 85 8 is_stmt 0 view .LVU123
 508 000a 09B9     		cbnz	r1, .L55
  86:Core/Src/esp32.c ****         return false;
 509              		.loc 1 86 16 view .LVU124
 510 000c 0020     		movs	r0, #0
 511              	.LVL46:
 512              	.L45:
 109:Core/Src/esp32.c **** }
 513              		.loc 1 109 1 view .LVU125
 514 000e 70BD     		pop	{r4, r5, r6, pc}
 515              	.LVL47:
 516              	.L55:
  88:Core/Src/esp32.c ****     char *str = (char *)Buffs.RxBuffer.buff;
 517              		.loc 1 88 5 is_stmt 1 view .LVU126
  90:Core/Src/esp32.c ****     str = strtok(str, SplitterChars);
 518              		.loc 1 90 5 view .LVU127
  90:Core/Src/esp32.c ****     str = strtok(str, SplitterChars);
 519              		.loc 1 90 11 is_stmt 0 view .LVU128
 520 0010 1146     		mov	r1, r2
 521              	.LVL48:
  90:Core/Src/esp32.c ****     str = strtok(str, SplitterChars);
 522              		.loc 1 90 11 view .LVU129
 523 0012 0F4B     		ldr	r3, .L58
 524 0014 D3F80008 		ldr	r0, [r3, #2048]
 525              	.LVL49:
  90:Core/Src/esp32.c ****     str = strtok(str, SplitterChars);
 526              		.loc 1 90 11 view .LVU130
 527 0018 FFF7FEFF 		bl	strtok
 528              	.LVL50:
  91:Core/Src/esp32.c ****     if (str == NULL)
 529              		.loc 1 91 5 is_stmt 1 view .LVU131
  91:Core/Src/esp32.c ****     if (str == NULL)
 530              		.loc 1 91 8 is_stmt 0 view .LVU132
 531 001c 0146     		mov	r1, r0
 532 001e 10B9     		cbnz	r0, .L46
  93:Core/Src/esp32.c ****         strcpy(result, "");
 533              		.loc 1 93 9 is_stmt 1 view .LVU133
 534 0020 3070     		strb	r0, [r6]
  94:Core/Src/esp32.c ****         return false;
 535              		.loc 1 94 9 view .LVU134
  94:Core/Src/esp32.c ****         return false;
 536              		.loc 1 94 16 is_stmt 0 view .LVU135
ARM GAS  /var/folders/9y/n02fl3g16gnf7ppy14xghdy80000gn/T//ccc4kUj2.s 			page 37


 537 0022 F4E7     		b	.L45
 538              	.LVL51:
 539              	.L47:
 101:Core/Src/esp32.c ****         if (WantWhichOne == 0)
 540              		.loc 1 101 9 is_stmt 1 view .LVU136
 101:Core/Src/esp32.c ****         if (WantWhichOne == 0)
 541              		.loc 1 101 12 is_stmt 0 view .LVU137
 542 0024 54B1     		cbz	r4, .L56
 543              	.LVL52:
 544              	.L46:
  96:Core/Src/esp32.c ****     while (str != NULL)
 545              		.loc 1 96 11 is_stmt 1 view .LVU138
 546 0026 71B1     		cbz	r1, .L57
  98:Core/Src/esp32.c ****         str = strtok(NULL, SplitterChars);
 547              		.loc 1 98 9 view .LVU139
  98:Core/Src/esp32.c ****         str = strtok(NULL, SplitterChars);
 548              		.loc 1 98 15 is_stmt 0 view .LVU140
 549 0028 2946     		mov	r1, r5
 550 002a 0020     		movs	r0, #0
 551              	.LVL53:
  98:Core/Src/esp32.c ****         str = strtok(NULL, SplitterChars);
 552              		.loc 1 98 15 view .LVU141
 553 002c FFF7FEFF 		bl	strtok
 554              	.LVL54:
  99:Core/Src/esp32.c ****         if (str != NULL)
 555              		.loc 1 99 9 is_stmt 1 view .LVU142
  99:Core/Src/esp32.c ****         if (str != NULL)
 556              		.loc 1 99 12 is_stmt 0 view .LVU143
 557 0030 0146     		mov	r1, r0
 558 0032 0028     		cmp	r0, #0
 559 0034 F6D0     		beq	.L47
 100:Core/Src/esp32.c ****             WantWhichOne--;
 560              		.loc 1 100 13 is_stmt 1 view .LVU144
 100:Core/Src/esp32.c ****             WantWhichOne--;
 561              		.loc 1 100 25 is_stmt 0 view .LVU145
 562 0036 013C     		subs	r4, r4, #1
 563              	.LVL55:
 100:Core/Src/esp32.c ****             WantWhichOne--;
 564              		.loc 1 100 25 view .LVU146
 565 0038 E4B2     		uxtb	r4, r4
 566              	.LVL56:
 100:Core/Src/esp32.c ****             WantWhichOne--;
 567              		.loc 1 100 25 view .LVU147
 568 003a F3E7     		b	.L47
 569              	.L56:
 103:Core/Src/esp32.c ****             strcpy(result, str);
 570              		.loc 1 103 13 is_stmt 1 view .LVU148
 571 003c 3046     		mov	r0, r6
 572              	.LVL57:
 103:Core/Src/esp32.c ****             strcpy(result, str);
 573              		.loc 1 103 13 is_stmt 0 view .LVU149
 574 003e FFF7FEFF 		bl	strcpy
 575              	.LVL58:
 104:Core/Src/esp32.c ****             return true;
 576              		.loc 1 104 13 is_stmt 1 view .LVU150
 104:Core/Src/esp32.c ****             return true;
 577              		.loc 1 104 20 is_stmt 0 view .LVU151
ARM GAS  /var/folders/9y/n02fl3g16gnf7ppy14xghdy80000gn/T//ccc4kUj2.s 			page 38


 578 0042 0120     		movs	r0, #1
 579 0044 E3E7     		b	.L45
 580              	.LVL59:
 581              	.L57:
 107:Core/Src/esp32.c ****     strcpy(result, "");
 582              		.loc 1 107 5 is_stmt 1 view .LVU152
 583 0046 0020     		movs	r0, #0
 584              	.LVL60:
 107:Core/Src/esp32.c ****     strcpy(result, "");
 585              		.loc 1 107 5 is_stmt 0 view .LVU153
 586 0048 3070     		strb	r0, [r6]
 108:Core/Src/esp32.c ****     return false;
 587              		.loc 1 108 5 is_stmt 1 view .LVU154
 108:Core/Src/esp32.c ****     return false;
 588              		.loc 1 108 12 is_stmt 0 view .LVU155
 589 004a E0E7     		b	.L45
 590              	.LVL61:
 591              	.L49:
 592              		.cfi_def_cfa_offset 0
 593              		.cfi_restore 4
 594              		.cfi_restore 5
 595              		.cfi_restore 6
 596              		.cfi_restore 14
  84:Core/Src/esp32.c ****         return false;
 597              		.loc 1 84 16 view .LVU156
 598 004c 0020     		movs	r0, #0
 599              	.LVL62:
 109:Core/Src/esp32.c **** }
 600              		.loc 1 109 1 view .LVU157
 601 004e 7047     		bx	lr
 602              	.L59:
 603              		.align	2
 604              	.L58:
 605 0050 00000000 		.word	Buffs
 606              		.cfi_endproc
 607              	.LFE1159:
 609              		.section	.text.Wifi_ReturnStrings,"ax",%progbits
 610              		.align	1
 611              		.global	Wifi_ReturnStrings
 612              		.syntax unified
 613              		.thumb
 614              		.thumb_func
 615              		.fpu fpv4-sp-d16
 617              	Wifi_ReturnStrings:
 618              	.LVL63:
 619              	.LFB1160:
 112:Core/Src/esp32.c **** {
 620              		.loc 1 112 1 is_stmt 1 view -0
 621              		.cfi_startproc
 622              		@ args = 4, pretend = 8, frame = 8
 623              		@ frame_needed = 1, uses_anonymous_args = 1
 112:Core/Src/esp32.c **** {
 624              		.loc 1 112 1 is_stmt 0 view .LVU159
 625 0000 0CB4     		push	{r2, r3}
 626              		.cfi_def_cfa_offset 8
 627              		.cfi_offset 2, -8
 628              		.cfi_offset 3, -4
ARM GAS  /var/folders/9y/n02fl3g16gnf7ppy14xghdy80000gn/T//ccc4kUj2.s 			page 39


 629 0002 2DE9F043 		push	{r4, r5, r6, r7, r8, r9, lr}
 630              		.cfi_def_cfa_offset 36
 631              		.cfi_offset 4, -36
 632              		.cfi_offset 5, -32
 633              		.cfi_offset 6, -28
 634              		.cfi_offset 7, -24
 635              		.cfi_offset 8, -20
 636              		.cfi_offset 9, -16
 637              		.cfi_offset 14, -12
 638 0006 83B0     		sub	sp, sp, #12
 639              		.cfi_def_cfa_offset 48
 640 0008 00AF     		add	r7, sp, #0
 641              		.cfi_def_cfa_register 7
 642 000a 97F82840 		ldrb	r4, [r7, #40]	@ zero_extendqisi2
 113:Core/Src/esp32.c ****     if (CountOfParameter == 0)
 643              		.loc 1 113 5 is_stmt 1 view .LVU160
 113:Core/Src/esp32.c ****     if (CountOfParameter == 0)
 644              		.loc 1 113 8 is_stmt 0 view .LVU161
 645 000e 34B9     		cbnz	r4, .L71
 114:Core/Src/esp32.c ****         return false;
 646              		.loc 1 114 16 view .LVU162
 647 0010 0020     		movs	r0, #0
 648              	.LVL64:
 649              	.L61:
 140:Core/Src/esp32.c **** }
 650              		.loc 1 140 1 view .LVU163
 651 0012 0C37     		adds	r7, r7, #12
 652              		.cfi_remember_state
 653              		.cfi_def_cfa_offset 36
 654 0014 BD46     		mov	sp, r7
 655              		.cfi_def_cfa_register 13
 656              		@ sp needed
 657 0016 BDE8F043 		pop	{r4, r5, r6, r7, r8, r9, lr}
 658              		.cfi_restore 14
 659              		.cfi_restore 9
 660              		.cfi_restore 8
 661              		.cfi_restore 7
 662              		.cfi_restore 6
 663              		.cfi_restore 5
 664              		.cfi_restore 4
 665              		.cfi_def_cfa_offset 8
 666 001a 02B0     		add	sp, sp, #8
 667              		.cfi_restore 3
 668              		.cfi_restore 2
 669              		.cfi_def_cfa_offset 0
 670 001c 7047     		bx	lr
 671              	.LVL65:
 672              	.L71:
 673              		.cfi_restore_state
 140:Core/Src/esp32.c **** }
 674              		.loc 1 140 1 view .LVU164
 675 001e 8846     		mov	r8, r1
 115:Core/Src/esp32.c ****     va_list tag;
 676              		.loc 1 115 5 is_stmt 1 view .LVU165
 116:Core/Src/esp32.c ****     va_start(tag, CountOfParameter);
 677              		.loc 1 116 5 view .LVU166
 678 0020 07F12C03 		add	r3, r7, #44
ARM GAS  /var/folders/9y/n02fl3g16gnf7ppy14xghdy80000gn/T//ccc4kUj2.s 			page 40


 679 0024 7B60     		str	r3, [r7, #4]
 117:Core/Src/esp32.c ****     char *arg[CountOfParameter];
 680              		.loc 1 117 5 view .LVU167
 681              	.LVL66:
 117:Core/Src/esp32.c ****     char *arg[CountOfParameter];
 682              		.loc 1 117 11 is_stmt 0 view .LVU168
 683 0026 A300     		lsls	r3, r4, #2
 684 0028 0733     		adds	r3, r3, #7
 685 002a 03F4FF63 		and	r3, r3, #2040
 686 002e ADEB030D 		sub	sp, sp, r3
 687 0032 6E46     		mov	r6, sp
 688              	.LVL67:
 118:Core/Src/esp32.c ****     for (uint8_t i = 0; i < CountOfParameter; i++)
 689              		.loc 1 118 5 is_stmt 1 view .LVU169
 690              	.LBB6:
 118:Core/Src/esp32.c ****     for (uint8_t i = 0; i < CountOfParameter; i++)
 691              		.loc 1 118 10 view .LVU170
 118:Core/Src/esp32.c ****     for (uint8_t i = 0; i < CountOfParameter; i++)
 692              		.loc 1 118 18 is_stmt 0 view .LVU171
 693 0034 0023     		movs	r3, #0
 118:Core/Src/esp32.c ****     for (uint8_t i = 0; i < CountOfParameter; i++)
 694              		.loc 1 118 5 view .LVU172
 695 0036 07E0     		b	.L62
 696              	.LVL68:
 697              	.L63:
 119:Core/Src/esp32.c ****         arg[i] = va_arg(tag, char *);
 698              		.loc 1 119 9 is_stmt 1 discriminator 3 view .LVU173
 119:Core/Src/esp32.c ****         arg[i] = va_arg(tag, char *);
 699              		.loc 1 119 18 is_stmt 0 discriminator 3 view .LVU174
 700 0038 7A68     		ldr	r2, [r7, #4]
 701 003a 111D     		adds	r1, r2, #4
 702 003c 7960     		str	r1, [r7, #4]
 703 003e 1268     		ldr	r2, [r2]
 119:Core/Src/esp32.c ****         arg[i] = va_arg(tag, char *);
 704              		.loc 1 119 16 discriminator 3 view .LVU175
 705 0040 46F82320 		str	r2, [r6, r3, lsl #2]
 118:Core/Src/esp32.c ****     for (uint8_t i = 0; i < CountOfParameter; i++)
 706              		.loc 1 118 47 is_stmt 1 discriminator 3 view .LVU176
 118:Core/Src/esp32.c ****     for (uint8_t i = 0; i < CountOfParameter; i++)
 707              		.loc 1 118 48 is_stmt 0 discriminator 3 view .LVU177
 708 0044 0133     		adds	r3, r3, #1
 709              	.LVL69:
 118:Core/Src/esp32.c ****     for (uint8_t i = 0; i < CountOfParameter; i++)
 710              		.loc 1 118 48 discriminator 3 view .LVU178
 711 0046 DBB2     		uxtb	r3, r3
 712              	.LVL70:
 713              	.L62:
 118:Core/Src/esp32.c ****     for (uint8_t i = 0; i < CountOfParameter; i++)
 714              		.loc 1 118 25 is_stmt 1 discriminator 1 view .LVU179
 118:Core/Src/esp32.c ****     for (uint8_t i = 0; i < CountOfParameter; i++)
 715              		.loc 1 118 5 is_stmt 0 discriminator 1 view .LVU180
 716 0048 A342     		cmp	r3, r4
 717 004a F5D3     		bcc	.L63
 718              	.LBE6:
 120:Core/Src/esp32.c ****     va_end(tag);
 719              		.loc 1 120 5 is_stmt 1 view .LVU181
 122:Core/Src/esp32.c ****     char *str;
ARM GAS  /var/folders/9y/n02fl3g16gnf7ppy14xghdy80000gn/T//ccc4kUj2.s 			page 41


 720              		.loc 1 122 5 view .LVU182
 123:Core/Src/esp32.c ****     str = strtok(InputString, SplitterChars);
 721              		.loc 1 123 5 view .LVU183
 123:Core/Src/esp32.c ****     str = strtok(InputString, SplitterChars);
 722              		.loc 1 123 11 is_stmt 0 view .LVU184
 723 004c 4146     		mov	r1, r8
 724 004e FFF7FEFF 		bl	strtok
 725              	.LVL71:
 124:Core/Src/esp32.c ****     if (str == NULL)
 726              		.loc 1 124 5 is_stmt 1 view .LVU185
 124:Core/Src/esp32.c ****     if (str == NULL)
 727              		.loc 1 124 8 is_stmt 0 view .LVU186
 728 0052 8146     		mov	r9, r0
 729 0054 C0B1     		cbz	r0, .L68
 126:Core/Src/esp32.c ****     uint8_t i = 0;
 730              		.loc 1 126 13 view .LVU187
 731 0056 0025     		movs	r5, #0
 732 0058 07E0     		b	.L64
 733              	.LVL72:
 734              	.L65:
 132:Core/Src/esp32.c ****         strcpy(arg[i], str);
 735              		.loc 1 132 9 is_stmt 1 view .LVU188
 736 005a 4946     		mov	r1, r9
 737 005c 56F82500 		ldr	r0, [r6, r5, lsl #2]
 738              	.LVL73:
 132:Core/Src/esp32.c ****         strcpy(arg[i], str);
 739              		.loc 1 132 9 is_stmt 0 view .LVU189
 740 0060 FFF7FEFF 		bl	strcpy
 741              	.LVL74:
 133:Core/Src/esp32.c ****         i++;
 742              		.loc 1 133 9 is_stmt 1 view .LVU190
 133:Core/Src/esp32.c ****         i++;
 743              		.loc 1 133 10 is_stmt 0 view .LVU191
 744 0064 0135     		adds	r5, r5, #1
 745              	.LVL75:
 133:Core/Src/esp32.c ****         i++;
 746              		.loc 1 133 10 view .LVU192
 747 0066 EDB2     		uxtb	r5, r5
 748              	.LVL76:
 134:Core/Src/esp32.c ****         if (CountOfParameter == 0)
 749              		.loc 1 134 9 is_stmt 1 view .LVU193
 134:Core/Src/esp32.c ****         if (CountOfParameter == 0)
 750              		.loc 1 134 12 is_stmt 0 view .LVU194
 751 0068 84B1     		cbz	r4, .L69
 752              	.LVL77:
 753              	.L64:
 127:Core/Src/esp32.c ****     while (str != NULL)
 754              		.loc 1 127 11 is_stmt 1 view .LVU195
 755 006a B9F1000F 		cmp	r9, #0
 756 006e 09D0     		beq	.L72
 129:Core/Src/esp32.c ****         str = strtok(NULL, SplitterChars);
 757              		.loc 1 129 9 view .LVU196
 129:Core/Src/esp32.c ****         str = strtok(NULL, SplitterChars);
 758              		.loc 1 129 15 is_stmt 0 view .LVU197
 759 0070 4146     		mov	r1, r8
 760 0072 0020     		movs	r0, #0
 761 0074 FFF7FEFF 		bl	strtok
ARM GAS  /var/folders/9y/n02fl3g16gnf7ppy14xghdy80000gn/T//ccc4kUj2.s 			page 42


 762              	.LVL78:
 130:Core/Src/esp32.c ****         if (str != NULL)
 763              		.loc 1 130 9 is_stmt 1 view .LVU198
 130:Core/Src/esp32.c ****         if (str != NULL)
 764              		.loc 1 130 12 is_stmt 0 view .LVU199
 765 0078 8146     		mov	r9, r0
 766 007a 0028     		cmp	r0, #0
 767 007c EDD0     		beq	.L65
 131:Core/Src/esp32.c ****             CountOfParameter--;
 768              		.loc 1 131 13 is_stmt 1 view .LVU200
 131:Core/Src/esp32.c ****             CountOfParameter--;
 769              		.loc 1 131 29 is_stmt 0 view .LVU201
 770 007e 013C     		subs	r4, r4, #1
 771              	.LVL79:
 131:Core/Src/esp32.c ****             CountOfParameter--;
 772              		.loc 1 131 29 view .LVU202
 773 0080 E4B2     		uxtb	r4, r4
 774              	.LVL80:
 131:Core/Src/esp32.c ****             CountOfParameter--;
 775              		.loc 1 131 29 view .LVU203
 776 0082 EAE7     		b	.L65
 777              	.LVL81:
 778              	.L72:
 139:Core/Src/esp32.c ****     return false;
 779              		.loc 1 139 12 view .LVU204
 780 0084 0020     		movs	r0, #0
 781 0086 C4E7     		b	.L61
 782              	.LVL82:
 783              	.L68:
 125:Core/Src/esp32.c ****         return false;
 784              		.loc 1 125 16 view .LVU205
 785 0088 0020     		movs	r0, #0
 786              	.LVL83:
 125:Core/Src/esp32.c ****         return false;
 787              		.loc 1 125 16 view .LVU206
 788 008a C2E7     		b	.L61
 789              	.LVL84:
 790              	.L69:
 136:Core/Src/esp32.c ****             return true;
 791              		.loc 1 136 20 view .LVU207
 792 008c 0120     		movs	r0, #1
 793 008e C0E7     		b	.L61
 794              		.cfi_endproc
 795              	.LFE1160:
 797              		.section	.text.Wifi_ReturnInteger,"ax",%progbits
 798              		.align	1
 799              		.global	Wifi_ReturnInteger
 800              		.syntax unified
 801              		.thumb
 802              		.thumb_func
 803              		.fpu fpv4-sp-d16
 805              	Wifi_ReturnInteger:
 806              	.LVL85:
 807              	.LFB1161:
 143:Core/Src/esp32.c **** {
 808              		.loc 1 143 1 is_stmt 1 view -0
 809              		.cfi_startproc
ARM GAS  /var/folders/9y/n02fl3g16gnf7ppy14xghdy80000gn/T//ccc4kUj2.s 			page 43


 810              		@ args = 0, pretend = 0, frame = 0
 811              		@ frame_needed = 0, uses_anonymous_args = 0
 143:Core/Src/esp32.c **** {
 812              		.loc 1 143 1 is_stmt 0 view .LVU209
 813 0000 38B5     		push	{r3, r4, r5, lr}
 814              		.cfi_def_cfa_offset 16
 815              		.cfi_offset 3, -16
 816              		.cfi_offset 4, -12
 817              		.cfi_offset 5, -8
 818              		.cfi_offset 14, -4
 819 0002 0446     		mov	r4, r0
 144:Core/Src/esp32.c ****     if ((char *)Buffs.RxBuffer.buff == NULL)
 820              		.loc 1 144 5 is_stmt 1 view .LVU210
 144:Core/Src/esp32.c ****     if ((char *)Buffs.RxBuffer.buff == NULL)
 821              		.loc 1 144 31 is_stmt 0 view .LVU211
 822 0004 094B     		ldr	r3, .L78
 823 0006 D3F80008 		ldr	r0, [r3, #2048]
 824              	.LVL86:
 144:Core/Src/esp32.c ****     if ((char *)Buffs.RxBuffer.buff == NULL)
 825              		.loc 1 144 8 view .LVU212
 826 000a 60B1     		cbz	r0, .L75
 146:Core/Src/esp32.c ****     if (Wifi_ReturnString((char *)Buffs.RxBuffer.buff, WantWhichOne, SplitterChars) == false)
 827              		.loc 1 146 5 is_stmt 1 view .LVU213
 146:Core/Src/esp32.c ****     if (Wifi_ReturnString((char *)Buffs.RxBuffer.buff, WantWhichOne, SplitterChars) == false)
 828              		.loc 1 146 9 is_stmt 0 view .LVU214
 829 000c FFF7FEFF 		bl	Wifi_ReturnString
 830              	.LVL87:
 146:Core/Src/esp32.c ****     if (Wifi_ReturnString((char *)Buffs.RxBuffer.buff, WantWhichOne, SplitterChars) == false)
 831              		.loc 1 146 8 view .LVU215
 832 0010 0546     		mov	r5, r0
 833 0012 08B9     		cbnz	r0, .L77
 834              	.L74:
 150:Core/Src/esp32.c **** }
 835              		.loc 1 150 1 view .LVU216
 836 0014 2846     		mov	r0, r5
 837 0016 38BD     		pop	{r3, r4, r5, pc}
 838              	.LVL88:
 839              	.L77:
 148:Core/Src/esp32.c ****     *result = atoi((char *)Buffs.RxBuffer.buff);
 840              		.loc 1 148 5 is_stmt 1 view .LVU217
 148:Core/Src/esp32.c ****     *result = atoi((char *)Buffs.RxBuffer.buff);
 841              		.loc 1 148 15 is_stmt 0 view .LVU218
 842 0018 044B     		ldr	r3, .L78
 843 001a D3F80008 		ldr	r0, [r3, #2048]
 844 001e FFF7FEFF 		bl	atoi
 845              	.LVL89:
 148:Core/Src/esp32.c ****     *result = atoi((char *)Buffs.RxBuffer.buff);
 846              		.loc 1 148 13 view .LVU219
 847 0022 2060     		str	r0, [r4]
 149:Core/Src/esp32.c ****     return true;
 848              		.loc 1 149 5 is_stmt 1 view .LVU220
 149:Core/Src/esp32.c ****     return true;
 849              		.loc 1 149 12 is_stmt 0 view .LVU221
 850 0024 F6E7     		b	.L74
 851              	.LVL90:
 852              	.L75:
 145:Core/Src/esp32.c ****         return false;
ARM GAS  /var/folders/9y/n02fl3g16gnf7ppy14xghdy80000gn/T//ccc4kUj2.s 			page 44


 853              		.loc 1 145 16 view .LVU222
 854 0026 0025     		movs	r5, #0
 855 0028 F4E7     		b	.L74
 856              	.L79:
 857 002a 00BF     		.align	2
 858              	.L78:
 859 002c 00000000 		.word	Buffs
 860              		.cfi_endproc
 861              	.LFE1161:
 863              		.global	__aeabi_d2f
 864              		.section	.text.Wifi_ReturnFloat,"ax",%progbits
 865              		.align	1
 866              		.global	Wifi_ReturnFloat
 867              		.syntax unified
 868              		.thumb
 869              		.thumb_func
 870              		.fpu fpv4-sp-d16
 872              	Wifi_ReturnFloat:
 873              	.LVL91:
 874              	.LFB1162:
 154:Core/Src/esp32.c **** {
 875              		.loc 1 154 1 is_stmt 1 view -0
 876              		.cfi_startproc
 877              		@ args = 0, pretend = 0, frame = 0
 878              		@ frame_needed = 0, uses_anonymous_args = 0
 154:Core/Src/esp32.c **** {
 879              		.loc 1 154 1 is_stmt 0 view .LVU224
 880 0000 38B5     		push	{r3, r4, r5, lr}
 881              		.cfi_def_cfa_offset 16
 882              		.cfi_offset 3, -16
 883              		.cfi_offset 4, -12
 884              		.cfi_offset 5, -8
 885              		.cfi_offset 14, -4
 886 0002 0446     		mov	r4, r0
 155:Core/Src/esp32.c ****     if ((char *)Buffs.RxBuffer.buff == NULL)
 887              		.loc 1 155 5 is_stmt 1 view .LVU225
 155:Core/Src/esp32.c ****     if ((char *)Buffs.RxBuffer.buff == NULL)
 888              		.loc 1 155 31 is_stmt 0 view .LVU226
 889 0004 0B4B     		ldr	r3, .L85
 890 0006 D3F80008 		ldr	r0, [r3, #2048]
 891              	.LVL92:
 155:Core/Src/esp32.c ****     if ((char *)Buffs.RxBuffer.buff == NULL)
 892              		.loc 1 155 8 view .LVU227
 893 000a 80B1     		cbz	r0, .L82
 157:Core/Src/esp32.c ****     if (Wifi_ReturnString((char *)Buffs.RxBuffer.buff, WantWhichOne, SplitterChars) == false)
 894              		.loc 1 157 5 is_stmt 1 view .LVU228
 157:Core/Src/esp32.c ****     if (Wifi_ReturnString((char *)Buffs.RxBuffer.buff, WantWhichOne, SplitterChars) == false)
 895              		.loc 1 157 9 is_stmt 0 view .LVU229
 896 000c FFF7FEFF 		bl	Wifi_ReturnString
 897              	.LVL93:
 157:Core/Src/esp32.c ****     if (Wifi_ReturnString((char *)Buffs.RxBuffer.buff, WantWhichOne, SplitterChars) == false)
 898              		.loc 1 157 8 view .LVU230
 899 0010 0546     		mov	r5, r0
 900 0012 08B9     		cbnz	r0, .L84
 901              	.L81:
 161:Core/Src/esp32.c **** }
 902              		.loc 1 161 1 view .LVU231
ARM GAS  /var/folders/9y/n02fl3g16gnf7ppy14xghdy80000gn/T//ccc4kUj2.s 			page 45


 903 0014 2846     		mov	r0, r5
 904 0016 38BD     		pop	{r3, r4, r5, pc}
 905              	.LVL94:
 906              	.L84:
 159:Core/Src/esp32.c ****     *result = atof((char *)Buffs.RxBuffer.buff);
 907              		.loc 1 159 5 is_stmt 1 view .LVU232
 159:Core/Src/esp32.c ****     *result = atof((char *)Buffs.RxBuffer.buff);
 908              		.loc 1 159 15 is_stmt 0 view .LVU233
 909 0018 064B     		ldr	r3, .L85
 910 001a D3F80008 		ldr	r0, [r3, #2048]
 911 001e FFF7FEFF 		bl	atof
 912              	.LVL95:
 913 0022 51EC100B 		vmov	r0, r1, d0
 914 0026 FFF7FEFF 		bl	__aeabi_d2f
 915              	.LVL96:
 159:Core/Src/esp32.c ****     *result = atof((char *)Buffs.RxBuffer.buff);
 916              		.loc 1 159 13 view .LVU234
 917 002a 2060     		str	r0, [r4]	@ float
 160:Core/Src/esp32.c ****     return true;
 918              		.loc 1 160 5 is_stmt 1 view .LVU235
 160:Core/Src/esp32.c ****     return true;
 919              		.loc 1 160 12 is_stmt 0 view .LVU236
 920 002c F2E7     		b	.L81
 921              	.LVL97:
 922              	.L82:
 156:Core/Src/esp32.c ****         return false;
 923              		.loc 1 156 16 view .LVU237
 924 002e 0025     		movs	r5, #0
 925 0030 F0E7     		b	.L81
 926              	.L86:
 927 0032 00BF     		.align	2
 928              	.L85:
 929 0034 00000000 		.word	Buffs
 930              		.cfi_endproc
 931              	.LFE1162:
 933              		.section	.text.Wifi_RemoveChar,"ax",%progbits
 934              		.align	1
 935              		.global	Wifi_RemoveChar
 936              		.syntax unified
 937              		.thumb
 938              		.thumb_func
 939              		.fpu fpv4-sp-d16
 941              	Wifi_RemoveChar:
 942              	.LVL98:
 943              	.LFB1163:
 164:Core/Src/esp32.c **** {
 944              		.loc 1 164 1 is_stmt 1 view -0
 945              		.cfi_startproc
 946              		@ args = 0, pretend = 0, frame = 0
 947              		@ frame_needed = 0, uses_anonymous_args = 0
 948              		@ link register save eliminated.
 165:Core/Src/esp32.c ****     char *src, *dst;
 949              		.loc 1 165 5 view .LVU239
 166:Core/Src/esp32.c ****     for (src = dst = str; *src != '\0'; src++)
 950              		.loc 1 166 5 view .LVU240
 166:Core/Src/esp32.c ****     for (src = dst = str; *src != '\0'; src++)
 951              		.loc 1 166 20 is_stmt 0 view .LVU241
ARM GAS  /var/folders/9y/n02fl3g16gnf7ppy14xghdy80000gn/T//ccc4kUj2.s 			page 46


 952 0000 0246     		mov	r2, r0
 166:Core/Src/esp32.c ****     for (src = dst = str; *src != '\0'; src++)
 953              		.loc 1 166 5 view .LVU242
 954 0002 00E0     		b	.L88
 955              	.LVL99:
 956              	.L89:
 166:Core/Src/esp32.c ****     for (src = dst = str; *src != '\0'; src++)
 957              		.loc 1 166 41 is_stmt 1 discriminator 2 view .LVU243
 166:Core/Src/esp32.c ****     for (src = dst = str; *src != '\0'; src++)
 958              		.loc 1 166 44 is_stmt 0 discriminator 2 view .LVU244
 959 0004 0130     		adds	r0, r0, #1
 960              	.LVL100:
 961              	.L88:
 166:Core/Src/esp32.c ****     for (src = dst = str; *src != '\0'; src++)
 962              		.loc 1 166 27 is_stmt 1 discriminator 1 view .LVU245
 963 0006 0378     		ldrb	r3, [r0]	@ zero_extendqisi2
 166:Core/Src/esp32.c ****     for (src = dst = str; *src != '\0'; src++)
 964              		.loc 1 166 5 is_stmt 0 discriminator 1 view .LVU246
 965 0008 23B1     		cbz	r3, .L91
 168:Core/Src/esp32.c ****         *dst = *src;
 966              		.loc 1 168 9 is_stmt 1 view .LVU247
 168:Core/Src/esp32.c ****         *dst = *src;
 967              		.loc 1 168 14 is_stmt 0 view .LVU248
 968 000a 1370     		strb	r3, [r2]
 169:Core/Src/esp32.c ****         if (*dst != garbage)
 969              		.loc 1 169 9 is_stmt 1 view .LVU249
 169:Core/Src/esp32.c ****         if (*dst != garbage)
 970              		.loc 1 169 12 is_stmt 0 view .LVU250
 971 000c 8B42     		cmp	r3, r1
 972 000e F9D0     		beq	.L89
 170:Core/Src/esp32.c ****             dst++;
 973              		.loc 1 170 13 is_stmt 1 view .LVU251
 170:Core/Src/esp32.c ****             dst++;
 974              		.loc 1 170 16 is_stmt 0 view .LVU252
 975 0010 0132     		adds	r2, r2, #1
 976              	.LVL101:
 170:Core/Src/esp32.c ****             dst++;
 977              		.loc 1 170 16 view .LVU253
 978 0012 F7E7     		b	.L89
 979              	.L91:
 172:Core/Src/esp32.c ****     *dst = '\0';
 980              		.loc 1 172 5 is_stmt 1 view .LVU254
 172:Core/Src/esp32.c ****     *dst = '\0';
 981              		.loc 1 172 10 is_stmt 0 view .LVU255
 982 0014 1370     		strb	r3, [r2]
 173:Core/Src/esp32.c **** }
 983              		.loc 1 173 1 view .LVU256
 984 0016 7047     		bx	lr
 985              		.cfi_endproc
 986              	.LFE1163:
 988              		.section	.text.Wifi_RxClear,"ax",%progbits
 989              		.align	1
 990              		.global	Wifi_RxClear
 991              		.syntax unified
 992              		.thumb
 993              		.thumb_func
 994              		.fpu fpv4-sp-d16
ARM GAS  /var/folders/9y/n02fl3g16gnf7ppy14xghdy80000gn/T//ccc4kUj2.s 			page 47


 996              	Wifi_RxClear:
 997              	.LFB1164:
 176:Core/Src/esp32.c **** {
 998              		.loc 1 176 1 is_stmt 1 view -0
 999              		.cfi_startproc
 1000              		@ args = 0, pretend = 0, frame = 0
 1001              		@ frame_needed = 0, uses_anonymous_args = 0
 1002 0000 08B5     		push	{r3, lr}
 1003              		.cfi_def_cfa_offset 8
 1004              		.cfi_offset 3, -8
 1005              		.cfi_offset 14, -4
 177:Core/Src/esp32.c ****     lwrb_reset(&Buffs.RxBuffer);
 1006              		.loc 1 177 5 view .LVU258
 1007 0002 0248     		ldr	r0, .L94
 1008 0004 FFF7FEFF 		bl	lwrb_reset
 1009              	.LVL102:
 178:Core/Src/esp32.c **** }
 1010              		.loc 1 178 1 is_stmt 0 view .LVU259
 1011 0008 08BD     		pop	{r3, pc}
 1012              	.L95:
 1013 000a 00BF     		.align	2
 1014              	.L94:
 1015 000c 00080000 		.word	Buffs+2048
 1016              		.cfi_endproc
 1017              	.LFE1164:
 1019              		.section	.text.Wifi_TxClear,"ax",%progbits
 1020              		.align	1
 1021              		.global	Wifi_TxClear
 1022              		.syntax unified
 1023              		.thumb
 1024              		.thumb_func
 1025              		.fpu fpv4-sp-d16
 1027              	Wifi_TxClear:
 1028              	.LFB1165:
 181:Core/Src/esp32.c **** {
 1029              		.loc 1 181 1 is_stmt 1 view -0
 1030              		.cfi_startproc
 1031              		@ args = 0, pretend = 0, frame = 0
 1032              		@ frame_needed = 0, uses_anonymous_args = 0
 1033 0000 08B5     		push	{r3, lr}
 1034              		.cfi_def_cfa_offset 8
 1035              		.cfi_offset 3, -8
 1036              		.cfi_offset 14, -4
 182:Core/Src/esp32.c ****     memset(Buffs.TxBuffer, '\0', _WIFI_TX_SIZE);
 1037              		.loc 1 182 5 view .LVU261
 1038 0002 4FF48062 		mov	r2, #1024
 1039 0006 0021     		movs	r1, #0
 1040 0008 0148     		ldr	r0, .L98
 1041 000a FFF7FEFF 		bl	memset
 1042              	.LVL103:
 183:Core/Src/esp32.c **** }
 1043              		.loc 1 183 1 is_stmt 0 view .LVU262
 1044 000e 08BD     		pop	{r3, pc}
 1045              	.L99:
 1046              		.align	2
 1047              	.L98:
 1048 0010 140C0000 		.word	Buffs+3092
ARM GAS  /var/folders/9y/n02fl3g16gnf7ppy14xghdy80000gn/T//ccc4kUj2.s 			page 48


 1049              		.cfi_endproc
 1050              	.LFE1165:
 1052              		.section	.text.Wifi_RxCallBack,"ax",%progbits
 1053              		.align	1
 1054              		.global	Wifi_RxCallBack
 1055              		.syntax unified
 1056              		.thumb
 1057              		.thumb_func
 1058              		.fpu fpv4-sp-d16
 1060              	Wifi_RxCallBack:
 1061              	.LFB1166:
 186:Core/Src/esp32.c **** {
 1062              		.loc 1 186 1 is_stmt 1 view -0
 1063              		.cfi_startproc
 1064              		@ args = 0, pretend = 0, frame = 0
 1065              		@ frame_needed = 0, uses_anonymous_args = 0
 1066              		@ link register save eliminated.
 191:Core/Src/esp32.c **** }
 1067              		.loc 1 191 1 view .LVU264
 1068 0000 7047     		bx	lr
 1069              		.cfi_endproc
 1070              	.LFE1166:
 1072              		.section	.rodata.Wifi_Init.str1.4,"aMS",%progbits,1
 1073              		.align	2
 1074              	.LC2:
 1075 0000 0D0A4154 		.ascii	"\015\012AT\015\012\000"
 1075      0D0A00
 1076 0007 00       		.align	2
 1077              	.LC3:
 1078 0008 4F4B00   		.ascii	"OK\000"
 1079 000b 00       		.align	2
 1080              	.LC4:
 1081 000c 4552524F 		.ascii	"ERROR\000"
 1081      5200
 1082              		.section	.text.Wifi_Init,"ax",%progbits
 1083              		.align	1
 1084              		.global	Wifi_Init
 1085              		.syntax unified
 1086              		.thumb
 1087              		.thumb_func
 1088              		.fpu fpv4-sp-d16
 1090              	Wifi_Init:
 1091              	.LFB1167:
 197:Core/Src/esp32.c **** {
 1092              		.loc 1 197 1 view -0
 1093              		.cfi_startproc
 1094              		@ args = 0, pretend = 0, frame = 8
 1095              		@ frame_needed = 0, uses_anonymous_args = 0
 1096 0000 10B5     		push	{r4, lr}
 1097              		.cfi_def_cfa_offset 8
 1098              		.cfi_offset 4, -8
 1099              		.cfi_offset 14, -4
 1100 0002 84B0     		sub	sp, sp, #16
 1101              		.cfi_def_cfa_offset 24
 198:Core/Src/esp32.c ****     uint8_t result;
 1102              		.loc 1 198 5 view .LVU266
 199:Core/Src/esp32.c ****     bool returnVal = false;
ARM GAS  /var/folders/9y/n02fl3g16gnf7ppy14xghdy80000gn/T//ccc4kUj2.s 			page 49


 1103              		.loc 1 199 5 view .LVU267
 1104              	.LVL104:
 201:Core/Src/esp32.c ****     do
 1105              		.loc 1 201 5 view .LVU268
 205:Core/Src/esp32.c ****         if (Wifi_SendString("\r\nAT\r\n") == false)
 1106              		.loc 1 205 9 view .LVU269
 205:Core/Src/esp32.c ****         if (Wifi_SendString("\r\nAT\r\n") == false)
 1107              		.loc 1 205 13 is_stmt 0 view .LVU270
 1108 0004 0F48     		ldr	r0, .L107
 1109 0006 FFF7FEFF 		bl	Wifi_SendString
 1110              	.LVL105:
 205:Core/Src/esp32.c ****         if (Wifi_SendString("\r\nAT\r\n") == false)
 1111              		.loc 1 205 12 view .LVU271
 1112 000a 0446     		mov	r4, r0
 1113 000c 10B9     		cbnz	r0, .L105
 1114              	.LVL106:
 1115              	.L102:
 215:Core/Src/esp32.c ****     } while (0);
 1116              		.loc 1 215 13 is_stmt 1 view .LVU272
 216:Core/Src/esp32.c ****     return returnVal;
 1117              		.loc 1 216 5 view .LVU273
 217:Core/Src/esp32.c **** }
 1118              		.loc 1 217 1 is_stmt 0 view .LVU274
 1119 000e 2046     		mov	r0, r4
 1120 0010 04B0     		add	sp, sp, #16
 1121              		.cfi_remember_state
 1122              		.cfi_def_cfa_offset 8
 1123              		@ sp needed
 1124 0012 10BD     		pop	{r4, pc}
 1125              	.LVL107:
 1126              	.L105:
 1127              		.cfi_restore_state
 207:Core/Src/esp32.c ****         if (Wifi_WaitForString(_WIFI_WAIT_TIME_LOW, &result, 2, "OK", "ERROR") == false)
 1128              		.loc 1 207 9 is_stmt 1 view .LVU275
 207:Core/Src/esp32.c ****         if (Wifi_WaitForString(_WIFI_WAIT_TIME_LOW, &result, 2, "OK", "ERROR") == false)
 1129              		.loc 1 207 13 is_stmt 0 view .LVU276
 1130 0014 0C4B     		ldr	r3, .L107+4
 1131 0016 0093     		str	r3, [sp]
 1132 0018 0C4B     		ldr	r3, .L107+8
 1133 001a 0222     		movs	r2, #2
 1134 001c 0DF10F01 		add	r1, sp, #15
 1135 0020 4FF47A70 		mov	r0, #1000
 1136 0024 FFF7FEFF 		bl	Wifi_WaitForString
 1137              	.LVL108:
 207:Core/Src/esp32.c ****         if (Wifi_WaitForString(_WIFI_WAIT_TIME_LOW, &result, 2, "OK", "ERROR") == false)
 1138              		.loc 1 207 12 view .LVU277
 1139 0028 0446     		mov	r4, r0
 1140 002a 0028     		cmp	r0, #0
 1141 002c EFD0     		beq	.L102
 209:Core/Src/esp32.c ****         if (result == 2)
 1142              		.loc 1 209 9 is_stmt 1 view .LVU278
 209:Core/Src/esp32.c ****         if (result == 2)
 1143              		.loc 1 209 20 is_stmt 0 view .LVU279
 1144 002e 9DF80F30 		ldrb	r3, [sp, #15]	@ zero_extendqisi2
 209:Core/Src/esp32.c ****         if (result == 2)
 1145              		.loc 1 209 12 view .LVU280
 1146 0032 022B     		cmp	r3, #2
ARM GAS  /var/folders/9y/n02fl3g16gnf7ppy14xghdy80000gn/T//ccc4kUj2.s 			page 50


 1147 0034 01D1     		bne	.L106
 199:Core/Src/esp32.c ****     bool returnVal = false;
 1148              		.loc 1 199 10 view .LVU281
 1149 0036 0024     		movs	r4, #0
 1150 0038 E9E7     		b	.L102
 1151              	.L106:
 211:Core/Src/esp32.c ****         returnVal = true;
 1152              		.loc 1 211 9 is_stmt 1 view .LVU282
 1153              	.LVL109:
 212:Core/Src/esp32.c ****         Wifi_RxClear();
 1154              		.loc 1 212 9 view .LVU283
 1155 003a FFF7FEFF 		bl	Wifi_RxClear
 1156              	.LVL110:
 213:Core/Src/esp32.c ****         Wifi_TxClear();
 1157              		.loc 1 213 9 view .LVU284
 1158 003e FFF7FEFF 		bl	Wifi_TxClear
 1159              	.LVL111:
 1160 0042 E4E7     		b	.L102
 1161              	.L108:
 1162              		.align	2
 1163              	.L107:
 1164 0044 00000000 		.word	.LC2
 1165 0048 0C000000 		.word	.LC4
 1166 004c 08000000 		.word	.LC3
 1167              		.cfi_endproc
 1168              	.LFE1167:
 1170              		.section	.rodata.Wifi_Restart.str1.4,"aMS",%progbits,1
 1171              		.align	2
 1172              	.LC5:
 1173 0000 41542B52 		.ascii	"AT+RST\015\012\000"
 1173      53540D0A 
 1173      00
 1174              		.section	.text.Wifi_Restart,"ax",%progbits
 1175              		.align	1
 1176              		.global	Wifi_Restart
 1177              		.syntax unified
 1178              		.thumb
 1179              		.thumb_func
 1180              		.fpu fpv4-sp-d16
 1182              	Wifi_Restart:
 1183              	.LFB1168:
 224:Core/Src/esp32.c **** {
 1184              		.loc 1 224 1 view -0
 1185              		.cfi_startproc
 1186              		@ args = 0, pretend = 0, frame = 8
 1187              		@ frame_needed = 0, uses_anonymous_args = 0
 1188 0000 10B5     		push	{r4, lr}
 1189              		.cfi_def_cfa_offset 8
 1190              		.cfi_offset 4, -8
 1191              		.cfi_offset 14, -4
 1192 0002 84B0     		sub	sp, sp, #16
 1193              		.cfi_def_cfa_offset 24
 227:Core/Src/esp32.c ****     uint8_t result;
 1194              		.loc 1 227 5 view .LVU286
 228:Core/Src/esp32.c ****     bool returnVal = false;
 1195              		.loc 1 228 5 view .LVU287
 1196              	.LVL112:
ARM GAS  /var/folders/9y/n02fl3g16gnf7ppy14xghdy80000gn/T//ccc4kUj2.s 			page 51


 229:Core/Src/esp32.c ****     do
 1197              		.loc 1 229 5 view .LVU288
 231:Core/Src/esp32.c ****         Wifi_RxClear();
 1198              		.loc 1 231 9 view .LVU289
 1199 0004 FFF7FEFF 		bl	Wifi_RxClear
 1200              	.LVL113:
 232:Core/Src/esp32.c ****         sprintf((char *)Buffs.TxBuffer, "AT+RST\r\n");
 1201              		.loc 1 232 9 view .LVU290
 1202 0008 0E4C     		ldr	r4, .L113
 1203 000a 0F4A     		ldr	r2, .L113+4
 1204 000c 2346     		mov	r3, r4
 1205 000e 07CA     		ldm	r2, {r0, r1, r2}
 1206 0010 03C3     		stmia	r3!, {r0, r1}
 1207 0012 1A70     		strb	r2, [r3]
 233:Core/Src/esp32.c ****         if (Wifi_SendString((char *)Buffs.TxBuffer) == false)
 1208              		.loc 1 233 9 view .LVU291
 233:Core/Src/esp32.c ****         if (Wifi_SendString((char *)Buffs.TxBuffer) == false)
 1209              		.loc 1 233 13 is_stmt 0 view .LVU292
 1210 0014 2046     		mov	r0, r4
 1211 0016 FFF7FEFF 		bl	Wifi_SendString
 1212              	.LVL114:
 233:Core/Src/esp32.c ****         if (Wifi_SendString((char *)Buffs.TxBuffer) == false)
 1213              		.loc 1 233 12 view .LVU293
 1214 001a 08B9     		cbnz	r0, .L112
 1215              	.L110:
 1216              	.LVL115:
 240:Core/Src/esp32.c ****     } while (0);
 1217              		.loc 1 240 13 is_stmt 1 view .LVU294
 241:Core/Src/esp32.c ****     return returnVal;
 1218              		.loc 1 241 5 view .LVU295
 242:Core/Src/esp32.c **** }
 1219              		.loc 1 242 1 is_stmt 0 view .LVU296
 1220 001c 04B0     		add	sp, sp, #16
 1221              		.cfi_remember_state
 1222              		.cfi_def_cfa_offset 8
 1223              		@ sp needed
 1224 001e 10BD     		pop	{r4, pc}
 1225              	.LVL116:
 1226              	.L112:
 1227              		.cfi_restore_state
 235:Core/Src/esp32.c ****         if (Wifi_WaitForString(_WIFI_WAIT_TIME_LOW, &result, 2, "OK", "ERROR") == false)
 1228              		.loc 1 235 9 is_stmt 1 view .LVU297
 235:Core/Src/esp32.c ****         if (Wifi_WaitForString(_WIFI_WAIT_TIME_LOW, &result, 2, "OK", "ERROR") == false)
 1229              		.loc 1 235 13 is_stmt 0 view .LVU298
 1230 0020 0A4B     		ldr	r3, .L113+8
 1231 0022 0093     		str	r3, [sp]
 1232 0024 0A4B     		ldr	r3, .L113+12
 1233 0026 0222     		movs	r2, #2
 1234 0028 0DF10F01 		add	r1, sp, #15
 1235 002c 4FF47A70 		mov	r0, #1000
 1236 0030 FFF7FEFF 		bl	Wifi_WaitForString
 1237              	.LVL117:
 235:Core/Src/esp32.c ****         if (Wifi_WaitForString(_WIFI_WAIT_TIME_LOW, &result, 2, "OK", "ERROR") == false)
 1238              		.loc 1 235 12 view .LVU299
 1239 0034 0028     		cmp	r0, #0
 1240 0036 F1D0     		beq	.L110
 237:Core/Src/esp32.c ****         if (result == 2) // It was find the "ERROR" String in the receiving information
ARM GAS  /var/folders/9y/n02fl3g16gnf7ppy14xghdy80000gn/T//ccc4kUj2.s 			page 52


 1241              		.loc 1 237 9 is_stmt 1 view .LVU300
 237:Core/Src/esp32.c ****         if (result == 2) // It was find the "ERROR" String in the receiving information
 1242              		.loc 1 237 20 is_stmt 0 view .LVU301
 1243 0038 9DF80F30 		ldrb	r3, [sp, #15]	@ zero_extendqisi2
 237:Core/Src/esp32.c ****         if (result == 2) // It was find the "ERROR" String in the receiving information
 1244              		.loc 1 237 12 view .LVU302
 1245 003c 022B     		cmp	r3, #2
 1246 003e EDD1     		bne	.L110
 228:Core/Src/esp32.c ****     bool returnVal = false;
 1247              		.loc 1 228 10 view .LVU303
 1248 0040 0020     		movs	r0, #0
 1249 0042 EBE7     		b	.L110
 1250              	.L114:
 1251              		.align	2
 1252              	.L113:
 1253 0044 140C0000 		.word	Buffs+3092
 1254 0048 00000000 		.word	.LC5
 1255 004c 0C000000 		.word	.LC4
 1256 0050 08000000 		.word	.LC3
 1257              		.cfi_endproc
 1258              	.LFE1168:
 1260              		.section	.rodata.Wifi_DeepSleep.str1.4,"aMS",%progbits,1
 1261              		.align	2
 1262              	.LC6:
 1263 0000 41542B47 		.ascii	"AT+GSLP=%d\015\012\000"
 1263      534C503D 
 1263      25640D0A 
 1263      00
 1264              		.section	.text.Wifi_DeepSleep,"ax",%progbits
 1265              		.align	1
 1266              		.global	Wifi_DeepSleep
 1267              		.syntax unified
 1268              		.thumb
 1269              		.thumb_func
 1270              		.fpu fpv4-sp-d16
 1272              	Wifi_DeepSleep:
 1273              	.LVL118:
 1274              	.LFB1169:
 245:Core/Src/esp32.c **** {
 1275              		.loc 1 245 1 is_stmt 1 view -0
 1276              		.cfi_startproc
 1277              		@ args = 0, pretend = 0, frame = 8
 1278              		@ frame_needed = 0, uses_anonymous_args = 0
 245:Core/Src/esp32.c **** {
 1279              		.loc 1 245 1 is_stmt 0 view .LVU305
 1280 0000 30B5     		push	{r4, r5, lr}
 1281              		.cfi_def_cfa_offset 12
 1282              		.cfi_offset 4, -12
 1283              		.cfi_offset 5, -8
 1284              		.cfi_offset 14, -4
 1285 0002 85B0     		sub	sp, sp, #20
 1286              		.cfi_def_cfa_offset 32
 1287 0004 0446     		mov	r4, r0
 248:Core/Src/esp32.c ****     uint8_t result;
 1288              		.loc 1 248 5 is_stmt 1 view .LVU306
 249:Core/Src/esp32.c ****     bool returnVal = false;
 1289              		.loc 1 249 5 view .LVU307
ARM GAS  /var/folders/9y/n02fl3g16gnf7ppy14xghdy80000gn/T//ccc4kUj2.s 			page 53


 1290              	.LVL119:
 250:Core/Src/esp32.c ****     do
 1291              		.loc 1 250 5 view .LVU308
 252:Core/Src/esp32.c ****         Wifi_RxClear();
 1292              		.loc 1 252 9 view .LVU309
 1293 0006 FFF7FEFF 		bl	Wifi_RxClear
 1294              	.LVL120:
 253:Core/Src/esp32.c ****         sprintf((char *)Buffs.TxBuffer, "AT+GSLP=%d\r\n", DelayMs);
 1295              		.loc 1 253 9 view .LVU310
 1296 000a 0F4D     		ldr	r5, .L119
 1297 000c 2246     		mov	r2, r4
 1298 000e 0F49     		ldr	r1, .L119+4
 1299 0010 2846     		mov	r0, r5
 1300 0012 FFF7FEFF 		bl	sprintf
 1301              	.LVL121:
 254:Core/Src/esp32.c ****         if (Wifi_SendString((char *)Buffs.TxBuffer) == false)
 1302              		.loc 1 254 9 view .LVU311
 254:Core/Src/esp32.c ****         if (Wifi_SendString((char *)Buffs.TxBuffer) == false)
 1303              		.loc 1 254 13 is_stmt 0 view .LVU312
 1304 0016 2846     		mov	r0, r5
 1305 0018 FFF7FEFF 		bl	Wifi_SendString
 1306              	.LVL122:
 254:Core/Src/esp32.c ****         if (Wifi_SendString((char *)Buffs.TxBuffer) == false)
 1307              		.loc 1 254 12 view .LVU313
 1308 001c 08B9     		cbnz	r0, .L118
 1309              	.L116:
 1310              	.LVL123:
 261:Core/Src/esp32.c ****     } while (0);
 1311              		.loc 1 261 13 is_stmt 1 view .LVU314
 262:Core/Src/esp32.c ****     return returnVal;
 1312              		.loc 1 262 5 view .LVU315
 263:Core/Src/esp32.c **** }
 1313              		.loc 1 263 1 is_stmt 0 view .LVU316
 1314 001e 05B0     		add	sp, sp, #20
 1315              		.cfi_remember_state
 1316              		.cfi_def_cfa_offset 12
 1317              		@ sp needed
 1318 0020 30BD     		pop	{r4, r5, pc}
 1319              	.LVL124:
 1320              	.L118:
 1321              		.cfi_restore_state
 256:Core/Src/esp32.c ****         if (Wifi_WaitForString(_WIFI_WAIT_TIME_LOW, &result, 2, "OK", "ERROR") == false)
 1322              		.loc 1 256 9 is_stmt 1 view .LVU317
 256:Core/Src/esp32.c ****         if (Wifi_WaitForString(_WIFI_WAIT_TIME_LOW, &result, 2, "OK", "ERROR") == false)
 1323              		.loc 1 256 13 is_stmt 0 view .LVU318
 1324 0022 0B4B     		ldr	r3, .L119+8
 1325 0024 0093     		str	r3, [sp]
 1326 0026 0B4B     		ldr	r3, .L119+12
 1327 0028 0222     		movs	r2, #2
 1328 002a 0DF10F01 		add	r1, sp, #15
 1329 002e 4FF47A70 		mov	r0, #1000
 1330 0032 FFF7FEFF 		bl	Wifi_WaitForString
 1331              	.LVL125:
 256:Core/Src/esp32.c ****         if (Wifi_WaitForString(_WIFI_WAIT_TIME_LOW, &result, 2, "OK", "ERROR") == false)
 1332              		.loc 1 256 12 view .LVU319
 1333 0036 0028     		cmp	r0, #0
 1334 0038 F1D0     		beq	.L116
ARM GAS  /var/folders/9y/n02fl3g16gnf7ppy14xghdy80000gn/T//ccc4kUj2.s 			page 54


 258:Core/Src/esp32.c ****         if (result == 2) // It was find the "ERROR" String in the receiving information
 1335              		.loc 1 258 9 is_stmt 1 view .LVU320
 258:Core/Src/esp32.c ****         if (result == 2) // It was find the "ERROR" String in the receiving information
 1336              		.loc 1 258 20 is_stmt 0 view .LVU321
 1337 003a 9DF80F30 		ldrb	r3, [sp, #15]	@ zero_extendqisi2
 258:Core/Src/esp32.c ****         if (result == 2) // It was find the "ERROR" String in the receiving information
 1338              		.loc 1 258 12 view .LVU322
 1339 003e 022B     		cmp	r3, #2
 1340 0040 EDD1     		bne	.L116
 249:Core/Src/esp32.c ****     bool returnVal = false;
 1341              		.loc 1 249 10 view .LVU323
 1342 0042 0020     		movs	r0, #0
 1343 0044 EBE7     		b	.L116
 1344              	.L120:
 1345 0046 00BF     		.align	2
 1346              	.L119:
 1347 0048 140C0000 		.word	Buffs+3092
 1348 004c 00000000 		.word	.LC6
 1349 0050 0C000000 		.word	.LC4
 1350 0054 08000000 		.word	.LC3
 1351              		.cfi_endproc
 1352              	.LFE1169:
 1354              		.section	.rodata.Wifi_FactoryReset.str1.4,"aMS",%progbits,1
 1355              		.align	2
 1356              	.LC7:
 1357 0000 41542B52 		.ascii	"AT+RESTORE\015\012\000"
 1357      4553544F 
 1357      52450D0A 
 1357      00
 1358              		.section	.text.Wifi_FactoryReset,"ax",%progbits
 1359              		.align	1
 1360              		.global	Wifi_FactoryReset
 1361              		.syntax unified
 1362              		.thumb
 1363              		.thumb_func
 1364              		.fpu fpv4-sp-d16
 1366              	Wifi_FactoryReset:
 1367              	.LFB1170:
 266:Core/Src/esp32.c **** {
 1368              		.loc 1 266 1 is_stmt 1 view -0
 1369              		.cfi_startproc
 1370              		@ args = 0, pretend = 0, frame = 8
 1371              		@ frame_needed = 0, uses_anonymous_args = 0
 1372 0000 10B5     		push	{r4, lr}
 1373              		.cfi_def_cfa_offset 8
 1374              		.cfi_offset 4, -8
 1375              		.cfi_offset 14, -4
 1376 0002 84B0     		sub	sp, sp, #16
 1377              		.cfi_def_cfa_offset 24
 267:Core/Src/esp32.c ****     uint8_t result;
 1378              		.loc 1 267 5 view .LVU325
 268:Core/Src/esp32.c ****     bool returnVal = false;
 1379              		.loc 1 268 5 view .LVU326
 1380              	.LVL126:
 269:Core/Src/esp32.c ****     do
 1381              		.loc 1 269 5 view .LVU327
 271:Core/Src/esp32.c ****         Wifi_RxClear();
ARM GAS  /var/folders/9y/n02fl3g16gnf7ppy14xghdy80000gn/T//ccc4kUj2.s 			page 55


 1382              		.loc 1 271 9 view .LVU328
 1383 0004 FFF7FEFF 		bl	Wifi_RxClear
 1384              	.LVL127:
 272:Core/Src/esp32.c ****         sprintf((char *)Buffs.TxBuffer, "AT+RESTORE\r\n");
 1385              		.loc 1 272 9 view .LVU329
 1386 0008 0F4C     		ldr	r4, .L125
 1387 000a 104B     		ldr	r3, .L125+4
 1388 000c A446     		mov	ip, r4
 1389 000e 0FCB     		ldm	r3, {r0, r1, r2, r3}
 1390 0010 ACE80700 		stmia	ip!, {r0, r1, r2}
 1391 0014 8CF80030 		strb	r3, [ip]
 273:Core/Src/esp32.c ****         if (Wifi_SendString((char *)Buffs.TxBuffer) == false)
 1392              		.loc 1 273 9 view .LVU330
 273:Core/Src/esp32.c ****         if (Wifi_SendString((char *)Buffs.TxBuffer) == false)
 1393              		.loc 1 273 13 is_stmt 0 view .LVU331
 1394 0018 2046     		mov	r0, r4
 1395 001a FFF7FEFF 		bl	Wifi_SendString
 1396              	.LVL128:
 273:Core/Src/esp32.c ****         if (Wifi_SendString((char *)Buffs.TxBuffer) == false)
 1397              		.loc 1 273 12 view .LVU332
 1398 001e 08B9     		cbnz	r0, .L124
 1399              	.L122:
 1400              	.LVL129:
 280:Core/Src/esp32.c ****     } while (0);
 1401              		.loc 1 280 13 is_stmt 1 view .LVU333
 281:Core/Src/esp32.c ****     return returnVal;
 1402              		.loc 1 281 5 view .LVU334
 282:Core/Src/esp32.c **** }
 1403              		.loc 1 282 1 is_stmt 0 view .LVU335
 1404 0020 04B0     		add	sp, sp, #16
 1405              		.cfi_remember_state
 1406              		.cfi_def_cfa_offset 8
 1407              		@ sp needed
 1408 0022 10BD     		pop	{r4, pc}
 1409              	.LVL130:
 1410              	.L124:
 1411              		.cfi_restore_state
 275:Core/Src/esp32.c ****         if (Wifi_WaitForString(_WIFI_WAIT_TIME_LOW, &result, 2, "OK", "ERROR") == false)
 1412              		.loc 1 275 9 is_stmt 1 view .LVU336
 275:Core/Src/esp32.c ****         if (Wifi_WaitForString(_WIFI_WAIT_TIME_LOW, &result, 2, "OK", "ERROR") == false)
 1413              		.loc 1 275 13 is_stmt 0 view .LVU337
 1414 0024 0A4B     		ldr	r3, .L125+8
 1415 0026 0093     		str	r3, [sp]
 1416 0028 0A4B     		ldr	r3, .L125+12
 1417 002a 0222     		movs	r2, #2
 1418 002c 0DF10F01 		add	r1, sp, #15
 1419 0030 4FF47A70 		mov	r0, #1000
 1420 0034 FFF7FEFF 		bl	Wifi_WaitForString
 1421              	.LVL131:
 275:Core/Src/esp32.c ****         if (Wifi_WaitForString(_WIFI_WAIT_TIME_LOW, &result, 2, "OK", "ERROR") == false)
 1422              		.loc 1 275 12 view .LVU338
 1423 0038 0028     		cmp	r0, #0
 1424 003a F1D0     		beq	.L122
 277:Core/Src/esp32.c ****         if (result == 2) // It was find the "ERROR" String in the receiving information
 1425              		.loc 1 277 9 is_stmt 1 view .LVU339
 277:Core/Src/esp32.c ****         if (result == 2) // It was find the "ERROR" String in the receiving information
 1426              		.loc 1 277 20 is_stmt 0 view .LVU340
ARM GAS  /var/folders/9y/n02fl3g16gnf7ppy14xghdy80000gn/T//ccc4kUj2.s 			page 56


 1427 003c 9DF80F30 		ldrb	r3, [sp, #15]	@ zero_extendqisi2
 277:Core/Src/esp32.c ****         if (result == 2) // It was find the "ERROR" String in the receiving information
 1428              		.loc 1 277 12 view .LVU341
 1429 0040 022B     		cmp	r3, #2
 1430 0042 EDD1     		bne	.L122
 268:Core/Src/esp32.c ****     bool returnVal = false;
 1431              		.loc 1 268 10 view .LVU342
 1432 0044 0020     		movs	r0, #0
 1433 0046 EBE7     		b	.L122
 1434              	.L126:
 1435              		.align	2
 1436              	.L125:
 1437 0048 140C0000 		.word	Buffs+3092
 1438 004c 00000000 		.word	.LC7
 1439 0050 0C000000 		.word	.LC4
 1440 0054 08000000 		.word	.LC3
 1441              		.cfi_endproc
 1442              	.LFE1170:
 1444              		.section	.rodata.Wifi_Update.str1.4,"aMS",%progbits,1
 1445              		.align	2
 1446              	.LC8:
 1447 0000 41542B43 		.ascii	"AT+CIUPDATE\015\012\000"
 1447      49555044 
 1447      4154450D 
 1447      0A00
 1448              		.section	.text.Wifi_Update,"ax",%progbits
 1449              		.align	1
 1450              		.global	Wifi_Update
 1451              		.syntax unified
 1452              		.thumb
 1453              		.thumb_func
 1454              		.fpu fpv4-sp-d16
 1456              	Wifi_Update:
 1457              	.LFB1171:
 285:Core/Src/esp32.c **** {
 1458              		.loc 1 285 1 is_stmt 1 view -0
 1459              		.cfi_startproc
 1460              		@ args = 0, pretend = 0, frame = 8
 1461              		@ frame_needed = 0, uses_anonymous_args = 0
 1462 0000 10B5     		push	{r4, lr}
 1463              		.cfi_def_cfa_offset 8
 1464              		.cfi_offset 4, -8
 1465              		.cfi_offset 14, -4
 1466 0002 84B0     		sub	sp, sp, #16
 1467              		.cfi_def_cfa_offset 24
 288:Core/Src/esp32.c ****     uint8_t result;
 1468              		.loc 1 288 5 view .LVU344
 289:Core/Src/esp32.c ****     bool returnVal = false;
 1469              		.loc 1 289 5 view .LVU345
 1470              	.LVL132:
 290:Core/Src/esp32.c ****     do
 1471              		.loc 1 290 5 view .LVU346
 292:Core/Src/esp32.c ****         Wifi_RxClear();
 1472              		.loc 1 292 9 view .LVU347
 1473 0004 FFF7FEFF 		bl	Wifi_RxClear
 1474              	.LVL133:
 293:Core/Src/esp32.c ****         sprintf((char *)Buffs.TxBuffer, "AT+CIUPDATE\r\n");
ARM GAS  /var/folders/9y/n02fl3g16gnf7ppy14xghdy80000gn/T//ccc4kUj2.s 			page 57


 1475              		.loc 1 293 9 view .LVU348
 1476 0008 0F4C     		ldr	r4, .L131
 1477 000a 104B     		ldr	r3, .L131+4
 1478 000c A446     		mov	ip, r4
 1479 000e 0FCB     		ldm	r3, {r0, r1, r2, r3}
 1480 0010 ACE80700 		stmia	ip!, {r0, r1, r2}
 1481 0014 ACF80030 		strh	r3, [ip]	@ movhi
 294:Core/Src/esp32.c ****         if (Wifi_SendString((char *)Buffs.TxBuffer) == false)
 1482              		.loc 1 294 9 view .LVU349
 294:Core/Src/esp32.c ****         if (Wifi_SendString((char *)Buffs.TxBuffer) == false)
 1483              		.loc 1 294 13 is_stmt 0 view .LVU350
 1484 0018 2046     		mov	r0, r4
 1485 001a FFF7FEFF 		bl	Wifi_SendString
 1486              	.LVL134:
 294:Core/Src/esp32.c ****         if (Wifi_SendString((char *)Buffs.TxBuffer) == false)
 1487              		.loc 1 294 12 view .LVU351
 1488 001e 08B9     		cbnz	r0, .L130
 1489              	.L128:
 1490              	.LVL135:
 301:Core/Src/esp32.c ****     } while (0);
 1491              		.loc 1 301 13 is_stmt 1 view .LVU352
 302:Core/Src/esp32.c ****     return returnVal;
 1492              		.loc 1 302 5 view .LVU353
 303:Core/Src/esp32.c **** }
 1493              		.loc 1 303 1 is_stmt 0 view .LVU354
 1494 0020 04B0     		add	sp, sp, #16
 1495              		.cfi_remember_state
 1496              		.cfi_def_cfa_offset 8
 1497              		@ sp needed
 1498 0022 10BD     		pop	{r4, pc}
 1499              	.LVL136:
 1500              	.L130:
 1501              		.cfi_restore_state
 296:Core/Src/esp32.c ****         if (Wifi_WaitForString(1000 * 60 * 5, &result, 2, "OK", "ERROR") == false)
 1502              		.loc 1 296 9 is_stmt 1 view .LVU355
 296:Core/Src/esp32.c ****         if (Wifi_WaitForString(1000 * 60 * 5, &result, 2, "OK", "ERROR") == false)
 1503              		.loc 1 296 13 is_stmt 0 view .LVU356
 1504 0024 0A4B     		ldr	r3, .L131+8
 1505 0026 0093     		str	r3, [sp]
 1506 0028 0A4B     		ldr	r3, .L131+12
 1507 002a 0222     		movs	r2, #2
 1508 002c 0DF10F01 		add	r1, sp, #15
 1509 0030 0948     		ldr	r0, .L131+16
 1510 0032 FFF7FEFF 		bl	Wifi_WaitForString
 1511              	.LVL137:
 296:Core/Src/esp32.c ****         if (Wifi_WaitForString(1000 * 60 * 5, &result, 2, "OK", "ERROR") == false)
 1512              		.loc 1 296 12 view .LVU357
 1513 0036 0028     		cmp	r0, #0
 1514 0038 F2D0     		beq	.L128
 298:Core/Src/esp32.c ****         if (result == 2) // It was find the "ERROR" String in the receiving information
 1515              		.loc 1 298 9 is_stmt 1 view .LVU358
 298:Core/Src/esp32.c ****         if (result == 2) // It was find the "ERROR" String in the receiving information
 1516              		.loc 1 298 20 is_stmt 0 view .LVU359
 1517 003a 9DF80F30 		ldrb	r3, [sp, #15]	@ zero_extendqisi2
 298:Core/Src/esp32.c ****         if (result == 2) // It was find the "ERROR" String in the receiving information
 1518              		.loc 1 298 12 view .LVU360
 1519 003e 022B     		cmp	r3, #2
ARM GAS  /var/folders/9y/n02fl3g16gnf7ppy14xghdy80000gn/T//ccc4kUj2.s 			page 58


 1520 0040 EED1     		bne	.L128
 289:Core/Src/esp32.c ****     bool returnVal = false;
 1521              		.loc 1 289 10 view .LVU361
 1522 0042 0020     		movs	r0, #0
 1523 0044 ECE7     		b	.L128
 1524              	.L132:
 1525 0046 00BF     		.align	2
 1526              	.L131:
 1527 0048 140C0000 		.word	Buffs+3092
 1528 004c 00000000 		.word	.LC8
 1529 0050 0C000000 		.word	.LC4
 1530 0054 08000000 		.word	.LC3
 1531 0058 E0930400 		.word	300000
 1532              		.cfi_endproc
 1533              	.LFE1171:
 1535              		.section	.rodata.Wifi_SetRfPower.str1.4,"aMS",%progbits,1
 1536              		.align	2
 1537              	.LC9:
 1538 0000 41542B52 		.ascii	"AT+RFPOWER=%d\015\012\000"
 1538      46504F57 
 1538      45523D25 
 1538      640D0A00 
 1539              		.section	.text.Wifi_SetRfPower,"ax",%progbits
 1540              		.align	1
 1541              		.global	Wifi_SetRfPower
 1542              		.syntax unified
 1543              		.thumb
 1544              		.thumb_func
 1545              		.fpu fpv4-sp-d16
 1547              	Wifi_SetRfPower:
 1548              	.LVL138:
 1549              	.LFB1172:
 306:Core/Src/esp32.c **** {
 1550              		.loc 1 306 1 is_stmt 1 view -0
 1551              		.cfi_startproc
 1552              		@ args = 0, pretend = 0, frame = 8
 1553              		@ frame_needed = 0, uses_anonymous_args = 0
 306:Core/Src/esp32.c **** {
 1554              		.loc 1 306 1 is_stmt 0 view .LVU363
 1555 0000 30B5     		push	{r4, r5, lr}
 1556              		.cfi_def_cfa_offset 12
 1557              		.cfi_offset 4, -12
 1558              		.cfi_offset 5, -8
 1559              		.cfi_offset 14, -4
 1560 0002 85B0     		sub	sp, sp, #20
 1561              		.cfi_def_cfa_offset 32
 1562 0004 0446     		mov	r4, r0
 307:Core/Src/esp32.c ****     uint8_t result;
 1563              		.loc 1 307 5 is_stmt 1 view .LVU364
 308:Core/Src/esp32.c ****     bool returnVal = false;
 1564              		.loc 1 308 5 view .LVU365
 1565              	.LVL139:
 309:Core/Src/esp32.c ****     do
 1566              		.loc 1 309 5 view .LVU366
 311:Core/Src/esp32.c ****         Wifi_RxClear();
 1567              		.loc 1 311 9 view .LVU367
 1568 0006 FFF7FEFF 		bl	Wifi_RxClear
ARM GAS  /var/folders/9y/n02fl3g16gnf7ppy14xghdy80000gn/T//ccc4kUj2.s 			page 59


 1569              	.LVL140:
 312:Core/Src/esp32.c ****         sprintf((char *)Buffs.TxBuffer, "AT+RFPOWER=%d\r\n", Power_0_to_82);
 1570              		.loc 1 312 9 view .LVU368
 1571 000a 0F4D     		ldr	r5, .L137
 1572 000c 2246     		mov	r2, r4
 1573 000e 0F49     		ldr	r1, .L137+4
 1574 0010 2846     		mov	r0, r5
 1575 0012 FFF7FEFF 		bl	sprintf
 1576              	.LVL141:
 313:Core/Src/esp32.c ****         if (Wifi_SendString((char *)Buffs.TxBuffer) == false)
 1577              		.loc 1 313 9 view .LVU369
 313:Core/Src/esp32.c ****         if (Wifi_SendString((char *)Buffs.TxBuffer) == false)
 1578              		.loc 1 313 13 is_stmt 0 view .LVU370
 1579 0016 2846     		mov	r0, r5
 1580 0018 FFF7FEFF 		bl	Wifi_SendString
 1581              	.LVL142:
 313:Core/Src/esp32.c ****         if (Wifi_SendString((char *)Buffs.TxBuffer) == false)
 1582              		.loc 1 313 12 view .LVU371
 1583 001c 08B9     		cbnz	r0, .L136
 1584              	.L134:
 1585              	.LVL143:
 320:Core/Src/esp32.c ****     } while (0);
 1586              		.loc 1 320 13 is_stmt 1 view .LVU372
 321:Core/Src/esp32.c ****     return returnVal;
 1587              		.loc 1 321 5 view .LVU373
 322:Core/Src/esp32.c **** }
 1588              		.loc 1 322 1 is_stmt 0 view .LVU374
 1589 001e 05B0     		add	sp, sp, #20
 1590              		.cfi_remember_state
 1591              		.cfi_def_cfa_offset 12
 1592              		@ sp needed
 1593 0020 30BD     		pop	{r4, r5, pc}
 1594              	.LVL144:
 1595              	.L136:
 1596              		.cfi_restore_state
 315:Core/Src/esp32.c ****         if (Wifi_WaitForString(_WIFI_WAIT_TIME_LOW, &result, 2, "OK", "ERROR") == false)
 1597              		.loc 1 315 9 is_stmt 1 view .LVU375
 315:Core/Src/esp32.c ****         if (Wifi_WaitForString(_WIFI_WAIT_TIME_LOW, &result, 2, "OK", "ERROR") == false)
 1598              		.loc 1 315 13 is_stmt 0 view .LVU376
 1599 0022 0B4B     		ldr	r3, .L137+8
 1600 0024 0093     		str	r3, [sp]
 1601 0026 0B4B     		ldr	r3, .L137+12
 1602 0028 0222     		movs	r2, #2
 1603 002a 0DF10F01 		add	r1, sp, #15
 1604 002e 4FF47A70 		mov	r0, #1000
 1605 0032 FFF7FEFF 		bl	Wifi_WaitForString
 1606              	.LVL145:
 315:Core/Src/esp32.c ****         if (Wifi_WaitForString(_WIFI_WAIT_TIME_LOW, &result, 2, "OK", "ERROR") == false)
 1607              		.loc 1 315 12 view .LVU377
 1608 0036 0028     		cmp	r0, #0
 1609 0038 F1D0     		beq	.L134
 317:Core/Src/esp32.c ****         if (result == 2) // It was find the "ERROR" String in the receiving information
 1610              		.loc 1 317 9 is_stmt 1 view .LVU378
 317:Core/Src/esp32.c ****         if (result == 2) // It was find the "ERROR" String in the receiving information
 1611              		.loc 1 317 20 is_stmt 0 view .LVU379
 1612 003a 9DF80F30 		ldrb	r3, [sp, #15]	@ zero_extendqisi2
 317:Core/Src/esp32.c ****         if (result == 2) // It was find the "ERROR" String in the receiving information
ARM GAS  /var/folders/9y/n02fl3g16gnf7ppy14xghdy80000gn/T//ccc4kUj2.s 			page 60


 1613              		.loc 1 317 12 view .LVU380
 1614 003e 022B     		cmp	r3, #2
 1615 0040 EDD1     		bne	.L134
 308:Core/Src/esp32.c ****     bool returnVal = false;
 1616              		.loc 1 308 10 view .LVU381
 1617 0042 0020     		movs	r0, #0
 1618 0044 EBE7     		b	.L134
 1619              	.L138:
 1620 0046 00BF     		.align	2
 1621              	.L137:
 1622 0048 140C0000 		.word	Buffs+3092
 1623 004c 00000000 		.word	.LC9
 1624 0050 0C000000 		.word	.LC4
 1625 0054 08000000 		.word	.LC3
 1626              		.cfi_endproc
 1627              	.LFE1172:
 1629              		.section	.rodata.Wifi_SetMode.str1.4,"aMS",%progbits,1
 1630              		.align	2
 1631              	.LC10:
 1632 0000 41542B43 		.ascii	"AT+CWMODE=%d\015\012\000"
 1632      574D4F44 
 1632      453D2564 
 1632      0D0A00
 1633              		.section	.text.Wifi_SetMode,"ax",%progbits
 1634              		.align	1
 1635              		.global	Wifi_SetMode
 1636              		.syntax unified
 1637              		.thumb
 1638              		.thumb_func
 1639              		.fpu fpv4-sp-d16
 1641              	Wifi_SetMode:
 1642              	.LVL146:
 1643              	.LFB1173:
 328:Core/Src/esp32.c **** {
 1644              		.loc 1 328 1 is_stmt 1 view -0
 1645              		.cfi_startproc
 1646              		@ args = 0, pretend = 0, frame = 8
 1647              		@ frame_needed = 0, uses_anonymous_args = 0
 328:Core/Src/esp32.c **** {
 1648              		.loc 1 328 1 is_stmt 0 view .LVU383
 1649 0000 30B5     		push	{r4, r5, lr}
 1650              		.cfi_def_cfa_offset 12
 1651              		.cfi_offset 4, -12
 1652              		.cfi_offset 5, -8
 1653              		.cfi_offset 14, -4
 1654 0002 85B0     		sub	sp, sp, #20
 1655              		.cfi_def_cfa_offset 32
 1656 0004 0446     		mov	r4, r0
 329:Core/Src/esp32.c ****     uint8_t result;
 1657              		.loc 1 329 5 is_stmt 1 view .LVU384
 330:Core/Src/esp32.c ****     bool returnVal = false;
 1658              		.loc 1 330 5 view .LVU385
 1659              	.LVL147:
 331:Core/Src/esp32.c ****     do
 1660              		.loc 1 331 5 view .LVU386
 333:Core/Src/esp32.c ****         Wifi_RxClear();
 1661              		.loc 1 333 9 view .LVU387
ARM GAS  /var/folders/9y/n02fl3g16gnf7ppy14xghdy80000gn/T//ccc4kUj2.s 			page 61


 1662 0006 FFF7FEFF 		bl	Wifi_RxClear
 1663              	.LVL148:
 334:Core/Src/esp32.c ****         sprintf((char *)Buffs.TxBuffer, "AT+CWMODE=%d\r\n", WifiMode_);
 1664              		.loc 1 334 9 view .LVU388
 1665 000a 104D     		ldr	r5, .L144
 1666 000c 2246     		mov	r2, r4
 1667 000e 1049     		ldr	r1, .L144+4
 1668 0010 2846     		mov	r0, r5
 1669 0012 FFF7FEFF 		bl	sprintf
 1670              	.LVL149:
 335:Core/Src/esp32.c ****         if (Wifi_SendString((char *)Buffs.TxBuffer) == false)
 1671              		.loc 1 335 9 view .LVU389
 335:Core/Src/esp32.c ****         if (Wifi_SendString((char *)Buffs.TxBuffer) == false)
 1672              		.loc 1 335 13 is_stmt 0 view .LVU390
 1673 0016 2846     		mov	r0, r5
 1674 0018 FFF7FEFF 		bl	Wifi_SendString
 1675              	.LVL150:
 335:Core/Src/esp32.c ****         if (Wifi_SendString((char *)Buffs.TxBuffer) == false)
 1676              		.loc 1 335 12 view .LVU391
 1677 001c 08B9     		cbnz	r0, .L143
 1678              	.LVL151:
 1679              	.L140:
 343:Core/Src/esp32.c ****     } while (0);
 1680              		.loc 1 343 13 is_stmt 1 view .LVU392
 344:Core/Src/esp32.c ****     return returnVal;
 1681              		.loc 1 344 5 view .LVU393
 345:Core/Src/esp32.c **** }
 1682              		.loc 1 345 1 is_stmt 0 view .LVU394
 1683 001e 05B0     		add	sp, sp, #20
 1684              		.cfi_remember_state
 1685              		.cfi_def_cfa_offset 12
 1686              		@ sp needed
 1687 0020 30BD     		pop	{r4, r5, pc}
 1688              	.LVL152:
 1689              	.L143:
 1690              		.cfi_restore_state
 337:Core/Src/esp32.c ****         if (Wifi_WaitForString(_WIFI_WAIT_TIME_LOW, &result, 2, "OK", "ERROR") == false)
 1691              		.loc 1 337 9 is_stmt 1 view .LVU395
 337:Core/Src/esp32.c ****         if (Wifi_WaitForString(_WIFI_WAIT_TIME_LOW, &result, 2, "OK", "ERROR") == false)
 1692              		.loc 1 337 13 is_stmt 0 view .LVU396
 1693 0022 0C4B     		ldr	r3, .L144+8
 1694 0024 0093     		str	r3, [sp]
 1695 0026 0C4B     		ldr	r3, .L144+12
 1696 0028 0222     		movs	r2, #2
 1697 002a 0DF10F01 		add	r1, sp, #15
 1698 002e 4FF47A70 		mov	r0, #1000
 1699 0032 FFF7FEFF 		bl	Wifi_WaitForString
 1700              	.LVL153:
 337:Core/Src/esp32.c ****         if (Wifi_WaitForString(_WIFI_WAIT_TIME_LOW, &result, 2, "OK", "ERROR") == false)
 1701              		.loc 1 337 12 view .LVU397
 1702 0036 0028     		cmp	r0, #0
 1703 0038 F1D0     		beq	.L140
 339:Core/Src/esp32.c ****         if (result == 2) // It was find the "ERROR" String in the receiving information
 1704              		.loc 1 339 9 is_stmt 1 view .LVU398
 339:Core/Src/esp32.c ****         if (result == 2) // It was find the "ERROR" String in the receiving information
 1705              		.loc 1 339 20 is_stmt 0 view .LVU399
 1706 003a 9DF80F30 		ldrb	r3, [sp, #15]	@ zero_extendqisi2
ARM GAS  /var/folders/9y/n02fl3g16gnf7ppy14xghdy80000gn/T//ccc4kUj2.s 			page 62


 339:Core/Src/esp32.c ****         if (result == 2) // It was find the "ERROR" String in the receiving information
 1707              		.loc 1 339 12 view .LVU400
 1708 003e 022B     		cmp	r3, #2
 1709 0040 02D0     		beq	.L141
 341:Core/Src/esp32.c ****         Wifi.Mode = WifiMode_;
 1710              		.loc 1 341 9 is_stmt 1 view .LVU401
 341:Core/Src/esp32.c ****         Wifi.Mode = WifiMode_;
 1711              		.loc 1 341 19 is_stmt 0 view .LVU402
 1712 0042 064B     		ldr	r3, .L144+16
 1713 0044 1C70     		strb	r4, [r3]
 342:Core/Src/esp32.c ****         returnVal = true;
 1714              		.loc 1 342 9 is_stmt 1 view .LVU403
 1715              	.LVL154:
 342:Core/Src/esp32.c ****         returnVal = true;
 1716              		.loc 1 342 9 is_stmt 0 view .LVU404
 1717 0046 EAE7     		b	.L140
 1718              	.LVL155:
 1719              	.L141:
 330:Core/Src/esp32.c ****     bool returnVal = false;
 1720              		.loc 1 330 10 view .LVU405
 1721 0048 0020     		movs	r0, #0
 1722 004a E8E7     		b	.L140
 1723              	.L145:
 1724              		.align	2
 1725              	.L144:
 1726 004c 140C0000 		.word	Buffs+3092
 1727 0050 00000000 		.word	.LC10
 1728 0054 0C000000 		.word	.LC4
 1729 0058 08000000 		.word	.LC3
 1730 005c 00000000 		.word	.LANCHOR0
 1731              		.cfi_endproc
 1732              	.LFE1173:
 1734              		.section	.rodata.Wifi_GetMode.str1.4,"aMS",%progbits,1
 1735              		.align	2
 1736              	.LC11:
 1737 0000 41542B43 		.ascii	"AT+CWMODE?\015\012\000"
 1737      574D4F44 
 1737      453F0D0A 
 1737      00
 1738 000d 000000   		.align	2
 1739              	.LC12:
 1740 0010 3A00     		.ascii	":\000"
 1741              		.section	.text.Wifi_GetMode,"ax",%progbits
 1742              		.align	1
 1743              		.global	Wifi_GetMode
 1744              		.syntax unified
 1745              		.thumb
 1746              		.thumb_func
 1747              		.fpu fpv4-sp-d16
 1749              	Wifi_GetMode:
 1750              	.LFB1174:
 348:Core/Src/esp32.c **** {
 1751              		.loc 1 348 1 is_stmt 1 view -0
 1752              		.cfi_startproc
 1753              		@ args = 0, pretend = 0, frame = 8
 1754              		@ frame_needed = 0, uses_anonymous_args = 0
 1755 0000 10B5     		push	{r4, lr}
ARM GAS  /var/folders/9y/n02fl3g16gnf7ppy14xghdy80000gn/T//ccc4kUj2.s 			page 63


 1756              		.cfi_def_cfa_offset 8
 1757              		.cfi_offset 4, -8
 1758              		.cfi_offset 14, -4
 1759 0002 84B0     		sub	sp, sp, #16
 1760              		.cfi_def_cfa_offset 24
 349:Core/Src/esp32.c ****     uint8_t result;
 1761              		.loc 1 349 5 view .LVU407
 350:Core/Src/esp32.c ****     bool returnVal = false;
 1762              		.loc 1 350 5 view .LVU408
 1763              	.LVL156:
 351:Core/Src/esp32.c ****     do
 1764              		.loc 1 351 5 view .LVU409
 353:Core/Src/esp32.c ****         Wifi_RxClear();
 1765              		.loc 1 353 9 view .LVU410
 1766 0004 FFF7FEFF 		bl	Wifi_RxClear
 1767              	.LVL157:
 354:Core/Src/esp32.c ****         sprintf((char *)Buffs.TxBuffer, "AT+CWMODE?\r\n");
 1768              		.loc 1 354 9 view .LVU411
 1769 0008 194C     		ldr	r4, .L153
 1770 000a 1A4B     		ldr	r3, .L153+4
 1771 000c A446     		mov	ip, r4
 1772 000e 0FCB     		ldm	r3, {r0, r1, r2, r3}
 1773 0010 ACE80700 		stmia	ip!, {r0, r1, r2}
 1774 0014 8CF80030 		strb	r3, [ip]
 355:Core/Src/esp32.c ****         if (Wifi_SendString((char *)Buffs.TxBuffer) == false)
 1775              		.loc 1 355 9 view .LVU412
 355:Core/Src/esp32.c ****         if (Wifi_SendString((char *)Buffs.TxBuffer) == false)
 1776              		.loc 1 355 13 is_stmt 0 view .LVU413
 1777 0018 2046     		mov	r0, r4
 1778 001a FFF7FEFF 		bl	Wifi_SendString
 1779              	.LVL158:
 355:Core/Src/esp32.c ****         if (Wifi_SendString((char *)Buffs.TxBuffer) == false)
 1780              		.loc 1 355 12 view .LVU414
 1781 001e 0446     		mov	r4, r0
 1782 0020 10B9     		cbnz	r0, .L151
 1783              	.L147:
 1784              	.LVL159:
 367:Core/Src/esp32.c ****     } while (0);
 1785              		.loc 1 367 13 is_stmt 1 view .LVU415
 368:Core/Src/esp32.c ****     return returnVal;
 1786              		.loc 1 368 5 view .LVU416
 369:Core/Src/esp32.c **** }
 1787              		.loc 1 369 1 is_stmt 0 view .LVU417
 1788 0022 2046     		mov	r0, r4
 1789 0024 04B0     		add	sp, sp, #16
 1790              		.cfi_remember_state
 1791              		.cfi_def_cfa_offset 8
 1792              		@ sp needed
 1793 0026 10BD     		pop	{r4, pc}
 1794              	.LVL160:
 1795              	.L151:
 1796              		.cfi_restore_state
 357:Core/Src/esp32.c ****         if (Wifi_WaitForString(_WIFI_WAIT_TIME_LOW, &result, 2, "OK", "ERROR") == false)
 1797              		.loc 1 357 9 is_stmt 1 view .LVU418
 357:Core/Src/esp32.c ****         if (Wifi_WaitForString(_WIFI_WAIT_TIME_LOW, &result, 2, "OK", "ERROR") == false)
 1798              		.loc 1 357 13 is_stmt 0 view .LVU419
 1799 0028 134B     		ldr	r3, .L153+8
ARM GAS  /var/folders/9y/n02fl3g16gnf7ppy14xghdy80000gn/T//ccc4kUj2.s 			page 64


 1800 002a 0093     		str	r3, [sp]
 1801 002c 134B     		ldr	r3, .L153+12
 1802 002e 0222     		movs	r2, #2
 1803 0030 0DF10F01 		add	r1, sp, #15
 1804 0034 4FF47A70 		mov	r0, #1000
 1805 0038 FFF7FEFF 		bl	Wifi_WaitForString
 1806              	.LVL161:
 357:Core/Src/esp32.c ****         if (Wifi_WaitForString(_WIFI_WAIT_TIME_LOW, &result, 2, "OK", "ERROR") == false)
 1807              		.loc 1 357 12 view .LVU420
 1808 003c 0446     		mov	r4, r0
 1809 003e 0028     		cmp	r0, #0
 1810 0040 EFD0     		beq	.L147
 359:Core/Src/esp32.c ****         if (result == 2) // It was find the "ERROR" String in the receiving information
 1811              		.loc 1 359 9 is_stmt 1 view .LVU421
 359:Core/Src/esp32.c ****         if (result == 2) // It was find the "ERROR" String in the receiving information
 1812              		.loc 1 359 20 is_stmt 0 view .LVU422
 1813 0042 9DF80F30 		ldrb	r3, [sp, #15]	@ zero_extendqisi2
 359:Core/Src/esp32.c ****         if (result == 2) // It was find the "ERROR" String in the receiving information
 1814              		.loc 1 359 12 view .LVU423
 1815 0046 022B     		cmp	r3, #2
 1816 0048 01D1     		bne	.L152
 350:Core/Src/esp32.c ****     bool returnVal = false;
 1817              		.loc 1 350 10 view .LVU424
 1818 004a 0024     		movs	r4, #0
 1819 004c E9E7     		b	.L147
 1820              	.L152:
 362:Core/Src/esp32.c ****         if (Wifi_ReturnInteger((int32_t *)&result, 1, ":"))
 1821              		.loc 1 362 9 is_stmt 1 view .LVU425
 362:Core/Src/esp32.c ****         if (Wifi_ReturnInteger((int32_t *)&result, 1, ":"))
 1822              		.loc 1 362 13 is_stmt 0 view .LVU426
 1823 004e 0C4A     		ldr	r2, .L153+16
 1824 0050 0121     		movs	r1, #1
 1825 0052 0DF10F00 		add	r0, sp, #15
 1826 0056 FFF7FEFF 		bl	Wifi_ReturnInteger
 1827              	.LVL162:
 362:Core/Src/esp32.c ****         if (Wifi_ReturnInteger((int32_t *)&result, 1, ":"))
 1828              		.loc 1 362 12 view .LVU427
 1829 005a 28B1     		cbz	r0, .L148
 363:Core/Src/esp32.c ****             Wifi.Mode = (WifiMode_t)result;
 1830              		.loc 1 363 13 is_stmt 1 view .LVU428
 363:Core/Src/esp32.c ****             Wifi.Mode = (WifiMode_t)result;
 1831              		.loc 1 363 23 is_stmt 0 view .LVU429
 1832 005c 9DF80F10 		ldrb	r1, [sp, #15]	@ zero_extendqisi2
 1833 0060 084A     		ldr	r2, .L153+20
 1834 0062 1170     		strb	r1, [r2]
 366:Core/Src/esp32.c ****         returnVal = true;
 1835              		.loc 1 366 19 view .LVU430
 1836 0064 0446     		mov	r4, r0
 1837 0066 DCE7     		b	.L147
 1838              	.L148:
 365:Core/Src/esp32.c ****             Wifi.Mode = WifiMode_Error;
 1839              		.loc 1 365 13 is_stmt 1 view .LVU431
 365:Core/Src/esp32.c ****             Wifi.Mode = WifiMode_Error;
 1840              		.loc 1 365 23 is_stmt 0 view .LVU432
 1841 0068 064B     		ldr	r3, .L153+20
 1842 006a 0022     		movs	r2, #0
 1843 006c 1A70     		strb	r2, [r3]
ARM GAS  /var/folders/9y/n02fl3g16gnf7ppy14xghdy80000gn/T//ccc4kUj2.s 			page 65


 1844 006e D8E7     		b	.L147
 1845              	.L154:
 1846              		.align	2
 1847              	.L153:
 1848 0070 140C0000 		.word	Buffs+3092
 1849 0074 00000000 		.word	.LC11
 1850 0078 0C000000 		.word	.LC4
 1851 007c 08000000 		.word	.LC3
 1852 0080 10000000 		.word	.LC12
 1853 0084 00000000 		.word	.LANCHOR0
 1854              		.cfi_endproc
 1855              	.LFE1174:
 1857              		.section	.rodata.Wifi_GetMyIp.str1.4,"aMS",%progbits,1
 1858              		.align	2
 1859              	.LC13:
 1860 0000 41542B43 		.ascii	"AT+CIFSR\015\012\000"
 1860      49465352 
 1860      0D0A00
 1861 000b 00       		.align	2
 1862              	.LC14:
 1863 000c 41542B43 		.ascii	"AT+CIFSR\015\015\012+CIFSR:APIP,\"%[^\"]\000"
 1863      49465352 
 1863      0D0D0A2B 
 1863      43494653 
 1863      523A4150 
 1864 002a 0000     		.align	2
 1865              	.LC15:
 1866 002c 41542B43 		.ascii	"AT+CIFSR\015\015\012+CIFSR:STAIP,\"%[^\"]\000"
 1866      49465352 
 1866      0D0D0A2B 
 1866      43494653 
 1866      523A5354 
 1867              		.section	.text.Wifi_GetMyIp,"ax",%progbits
 1868              		.align	1
 1869              		.global	Wifi_GetMyIp
 1870              		.syntax unified
 1871              		.thumb
 1872              		.thumb_func
 1873              		.fpu fpv4-sp-d16
 1875              	Wifi_GetMyIp:
 1876              	.LFB1175:
 371:Core/Src/esp32.c **** {
 1877              		.loc 1 371 1 is_stmt 1 view -0
 1878              		.cfi_startproc
 1879              		@ args = 0, pretend = 0, frame = 8
 1880              		@ frame_needed = 0, uses_anonymous_args = 0
 1881 0000 70B5     		push	{r4, r5, r6, lr}
 1882              		.cfi_def_cfa_offset 16
 1883              		.cfi_offset 4, -16
 1884              		.cfi_offset 5, -12
 1885              		.cfi_offset 6, -8
 1886              		.cfi_offset 14, -4
 1887 0002 84B0     		sub	sp, sp, #16
 1888              		.cfi_def_cfa_offset 32
 372:Core/Src/esp32.c ****     uint8_t result;
 1889              		.loc 1 372 5 view .LVU434
 373:Core/Src/esp32.c ****     bool returnVal = false;
ARM GAS  /var/folders/9y/n02fl3g16gnf7ppy14xghdy80000gn/T//ccc4kUj2.s 			page 66


 1890              		.loc 1 373 5 view .LVU435
 1891              	.LVL163:
 374:Core/Src/esp32.c ****     do
 1892              		.loc 1 374 5 view .LVU436
 376:Core/Src/esp32.c ****         Wifi_RxClear();
 1893              		.loc 1 376 9 view .LVU437
 1894 0004 FFF7FEFF 		bl	Wifi_RxClear
 1895              	.LVL164:
 377:Core/Src/esp32.c ****         sprintf((char *)Buffs.TxBuffer, "AT+CIFSR\r\n");
 1896              		.loc 1 377 9 view .LVU438
 1897 0008 194C     		ldr	r4, .L161
 1898 000a 1A4A     		ldr	r2, .L161+4
 1899 000c 2346     		mov	r3, r4
 1900 000e 07CA     		ldm	r2, {r0, r1, r2}
 1901 0010 03C3     		stmia	r3!, {r0, r1}
 1902 0012 23F8022B 		strh	r2, [r3], #2	@ movhi
 1903 0016 120C     		lsrs	r2, r2, #16
 1904 0018 1A70     		strb	r2, [r3]
 378:Core/Src/esp32.c ****         if (Wifi_SendString((char *)Buffs.TxBuffer) == false)
 1905              		.loc 1 378 9 view .LVU439
 378:Core/Src/esp32.c ****         if (Wifi_SendString((char *)Buffs.TxBuffer) == false)
 1906              		.loc 1 378 13 is_stmt 0 view .LVU440
 1907 001a 2046     		mov	r0, r4
 1908 001c FFF7FEFF 		bl	Wifi_SendString
 1909              	.LVL165:
 378:Core/Src/esp32.c ****         if (Wifi_SendString((char *)Buffs.TxBuffer) == false)
 1910              		.loc 1 378 12 view .LVU441
 1911 0020 0446     		mov	r4, r0
 1912 0022 10B9     		cbnz	r0, .L159
 1913              	.LVL166:
 1914              	.L156:
 387:Core/Src/esp32.c ****     } while (0);
 1915              		.loc 1 387 13 is_stmt 1 view .LVU442
 388:Core/Src/esp32.c ****     return returnVal;
 1916              		.loc 1 388 5 view .LVU443
 389:Core/Src/esp32.c **** }
 1917              		.loc 1 389 1 is_stmt 0 view .LVU444
 1918 0024 2046     		mov	r0, r4
 1919 0026 04B0     		add	sp, sp, #16
 1920              		.cfi_remember_state
 1921              		.cfi_def_cfa_offset 16
 1922              		@ sp needed
 1923 0028 70BD     		pop	{r4, r5, r6, pc}
 1924              	.LVL167:
 1925              	.L159:
 1926              		.cfi_restore_state
 380:Core/Src/esp32.c ****         if (Wifi_WaitForString(_WIFI_WAIT_TIME_LOW, &result, 2, "OK", "ERROR") == false)
 1927              		.loc 1 380 9 is_stmt 1 view .LVU445
 380:Core/Src/esp32.c ****         if (Wifi_WaitForString(_WIFI_WAIT_TIME_LOW, &result, 2, "OK", "ERROR") == false)
 1928              		.loc 1 380 13 is_stmt 0 view .LVU446
 1929 002a 134B     		ldr	r3, .L161+8
 1930 002c 0093     		str	r3, [sp]
 1931 002e 134B     		ldr	r3, .L161+12
 1932 0030 0222     		movs	r2, #2
 1933 0032 0DF10F01 		add	r1, sp, #15
 1934 0036 4FF47A70 		mov	r0, #1000
 1935 003a FFF7FEFF 		bl	Wifi_WaitForString
ARM GAS  /var/folders/9y/n02fl3g16gnf7ppy14xghdy80000gn/T//ccc4kUj2.s 			page 67


 1936              	.LVL168:
 380:Core/Src/esp32.c ****         if (Wifi_WaitForString(_WIFI_WAIT_TIME_LOW, &result, 2, "OK", "ERROR") == false)
 1937              		.loc 1 380 12 view .LVU447
 1938 003e 0446     		mov	r4, r0
 1939 0040 0028     		cmp	r0, #0
 1940 0042 EFD0     		beq	.L156
 382:Core/Src/esp32.c ****         if (result == 2) // It was find the "ERROR" String in the receiving information
 1941              		.loc 1 382 9 is_stmt 1 view .LVU448
 382:Core/Src/esp32.c ****         if (result == 2) // It was find the "ERROR" String in the receiving information
 1942              		.loc 1 382 20 is_stmt 0 view .LVU449
 1943 0044 9DF80F30 		ldrb	r3, [sp, #15]	@ zero_extendqisi2
 382:Core/Src/esp32.c ****         if (result == 2) // It was find the "ERROR" String in the receiving information
 1944              		.loc 1 382 12 view .LVU450
 1945 0048 022B     		cmp	r3, #2
 1946 004a 01D1     		bne	.L160
 373:Core/Src/esp32.c ****     bool returnVal = false;
 1947              		.loc 1 373 10 view .LVU451
 1948 004c 0024     		movs	r4, #0
 1949 004e E9E7     		b	.L156
 1950              	.L160:
 384:Core/Src/esp32.c ****         sscanf((char *)Buffs.RxBuffer.buff, "AT+CIFSR\r\r\n+CIFSR:APIP,\"%[^\"]", Wifi.MyIP);
 1951              		.loc 1 384 9 is_stmt 1 view .LVU452
 384:Core/Src/esp32.c ****         sscanf((char *)Buffs.RxBuffer.buff, "AT+CIFSR\r\r\n+CIFSR:APIP,\"%[^\"]", Wifi.MyIP);
 1952              		.loc 1 384 38 is_stmt 0 view .LVU453
 1953 0050 0B4D     		ldr	r5, .L161+16
 384:Core/Src/esp32.c ****         sscanf((char *)Buffs.RxBuffer.buff, "AT+CIFSR\r\r\n+CIFSR:APIP,\"%[^\"]", Wifi.MyIP);
 1954              		.loc 1 384 9 view .LVU454
 1955 0052 0C4E     		ldr	r6, .L161+20
 1956 0054 3246     		mov	r2, r6
 1957 0056 0C49     		ldr	r1, .L161+24
 1958 0058 D5F80008 		ldr	r0, [r5, #2048]
 1959 005c FFF7FEFF 		bl	sscanf
 1960              	.LVL169:
 385:Core/Src/esp32.c ****         sscanf((char *)Buffs.RxBuffer.buff, "AT+CIFSR\r\r\n+CIFSR:STAIP,\"%[^\"]", Wifi.MyIP);
 1961              		.loc 1 385 9 is_stmt 1 view .LVU455
 1962 0060 3246     		mov	r2, r6
 1963 0062 0A49     		ldr	r1, .L161+28
 1964 0064 D5F80008 		ldr	r0, [r5, #2048]
 1965 0068 FFF7FEFF 		bl	sscanf
 1966              	.LVL170:
 386:Core/Src/esp32.c ****         returnVal = true;
 1967              		.loc 1 386 9 view .LVU456
 386:Core/Src/esp32.c ****         returnVal = true;
 1968              		.loc 1 386 9 is_stmt 0 view .LVU457
 1969 006c DAE7     		b	.L156
 1970              	.L162:
 1971 006e 00BF     		.align	2
 1972              	.L161:
 1973 0070 140C0000 		.word	Buffs+3092
 1974 0074 00000000 		.word	.LC13
 1975 0078 0C000000 		.word	.LC4
 1976 007c 08000000 		.word	.LC3
 1977 0080 00000000 		.word	Buffs
 1978 0084 01000000 		.word	.LANCHOR0+1
 1979 0088 0C000000 		.word	.LC14
 1980 008c 2C000000 		.word	.LC15
 1981              		.cfi_endproc
ARM GAS  /var/folders/9y/n02fl3g16gnf7ppy14xghdy80000gn/T//ccc4kUj2.s 			page 68


 1982              	.LFE1175:
 1984              		.section	.rodata.Wifi_Station_ConnectToAp.str1.4,"aMS",%progbits,1
 1985              		.align	2
 1986              	.LC16:
 1987 0000 41542B43 		.ascii	"AT+CWJAP=\"%s\",\"%s\"\015\012\000"
 1987      574A4150 
 1987      3D222573 
 1987      222C2225 
 1987      73220D0A 
 1988 0015 000000   		.align	2
 1989              	.LC17:
 1990 0018 41542B43 		.ascii	"AT+CWJAP=\"%s\",\"%s\",\"%s\"\015\012\000"
 1990      574A4150 
 1990      3D222573 
 1990      222C2225 
 1990      73222C22 
 1991 0032 0000     		.align	2
 1992              	.LC18:
 1993 0034 0D0A4F4B 		.ascii	"\015\012OK\015\012\000"
 1993      0D0A00
 1994 003b 00       		.align	2
 1995              	.LC19:
 1996 003c 0D0A4641 		.ascii	"\015\012FAIL\015\012\000"
 1996      494C0D0A 
 1996      00
 1997 0045 000000   		.align	2
 1998              	.LC20:
 1999 0048 0D0A4552 		.ascii	"\015\012ERROR\015\012\000"
 1999      524F520D 
 1999      0A00
 2000              		.section	.text.Wifi_Station_ConnectToAp,"ax",%progbits
 2001              		.align	1
 2002              		.global	Wifi_Station_ConnectToAp
 2003              		.syntax unified
 2004              		.thumb
 2005              		.thumb_func
 2006              		.fpu fpv4-sp-d16
 2008              	Wifi_Station_ConnectToAp:
 2009              	.LVL171:
 2010              	.LFB1176:
 395:Core/Src/esp32.c **** {
 2011              		.loc 1 395 1 is_stmt 1 view -0
 2012              		.cfi_startproc
 2013              		@ args = 0, pretend = 0, frame = 8
 2014              		@ frame_needed = 0, uses_anonymous_args = 0
 395:Core/Src/esp32.c **** {
 2015              		.loc 1 395 1 is_stmt 0 view .LVU459
 2016 0000 70B5     		push	{r4, r5, r6, lr}
 2017              		.cfi_def_cfa_offset 16
 2018              		.cfi_offset 4, -16
 2019              		.cfi_offset 5, -12
 2020              		.cfi_offset 6, -8
 2021              		.cfi_offset 14, -4
 2022 0002 84B0     		sub	sp, sp, #16
 2023              		.cfi_def_cfa_offset 32
 2024 0004 0546     		mov	r5, r0
 2025 0006 0E46     		mov	r6, r1
ARM GAS  /var/folders/9y/n02fl3g16gnf7ppy14xghdy80000gn/T//ccc4kUj2.s 			page 69


 2026 0008 1446     		mov	r4, r2
 396:Core/Src/esp32.c ****     uint8_t result;
 2027              		.loc 1 396 5 is_stmt 1 view .LVU460
 397:Core/Src/esp32.c ****     bool returnVal = false;
 2028              		.loc 1 397 5 view .LVU461
 2029              	.LVL172:
 398:Core/Src/esp32.c ****     do
 2030              		.loc 1 398 5 view .LVU462
 403:Core/Src/esp32.c ****         Wifi_RxClear();
 2031              		.loc 1 403 9 view .LVU463
 2032 000a FFF7FEFF 		bl	Wifi_RxClear
 2033              	.LVL173:
 404:Core/Src/esp32.c ****         if (MAC == NULL)
 2034              		.loc 1 404 9 view .LVU464
 404:Core/Src/esp32.c ****         if (MAC == NULL)
 2035              		.loc 1 404 12 is_stmt 0 view .LVU465
 2036 000e 64B1     		cbz	r4, .L168
 407:Core/Src/esp32.c ****             sprintf((char *)Buffs.TxBuffer, "AT+CWJAP=\"%s\",\"%s\",\"%s\"\r\n", SSID, Pass, MAC);
 2037              		.loc 1 407 13 is_stmt 1 view .LVU466
 2038 0010 0094     		str	r4, [sp]
 2039 0012 3346     		mov	r3, r6
 2040 0014 2A46     		mov	r2, r5
 2041 0016 1249     		ldr	r1, .L170
 2042 0018 1248     		ldr	r0, .L170+4
 2043 001a FFF7FEFF 		bl	sprintf
 2044              	.LVL174:
 2045              	.L165:
 408:Core/Src/esp32.c ****         if (Wifi_SendString((char *)Buffs.TxBuffer) == false)
 2046              		.loc 1 408 9 view .LVU467
 408:Core/Src/esp32.c ****         if (Wifi_SendString((char *)Buffs.TxBuffer) == false)
 2047              		.loc 1 408 13 is_stmt 0 view .LVU468
 2048 001e 1148     		ldr	r0, .L170+4
 2049 0020 FFF7FEFF 		bl	Wifi_SendString
 2050              	.LVL175:
 408:Core/Src/esp32.c ****         if (Wifi_SendString((char *)Buffs.TxBuffer) == false)
 2051              		.loc 1 408 12 view .LVU469
 2052 0024 40B9     		cbnz	r0, .L169
 2053              	.L166:
 2054              	.LVL176:
 415:Core/Src/esp32.c ****     } while (0);
 2055              		.loc 1 415 13 is_stmt 1 view .LVU470
 416:Core/Src/esp32.c ****     return returnVal;
 2056              		.loc 1 416 5 view .LVU471
 417:Core/Src/esp32.c **** }
 2057              		.loc 1 417 1 is_stmt 0 view .LVU472
 2058 0026 04B0     		add	sp, sp, #16
 2059              		.cfi_remember_state
 2060              		.cfi_def_cfa_offset 16
 2061              		@ sp needed
 2062 0028 70BD     		pop	{r4, r5, r6, pc}
 2063              	.LVL177:
 2064              	.L168:
 2065              		.cfi_restore_state
 405:Core/Src/esp32.c ****             sprintf((char *)Buffs.TxBuffer, "AT+CWJAP=\"%s\",\"%s\"\r\n", SSID, Pass);
 2066              		.loc 1 405 13 is_stmt 1 view .LVU473
 2067 002a 3346     		mov	r3, r6
 2068 002c 2A46     		mov	r2, r5
ARM GAS  /var/folders/9y/n02fl3g16gnf7ppy14xghdy80000gn/T//ccc4kUj2.s 			page 70


 2069 002e 0E49     		ldr	r1, .L170+8
 2070 0030 0C48     		ldr	r0, .L170+4
 2071 0032 FFF7FEFF 		bl	sprintf
 2072              	.LVL178:
 2073 0036 F2E7     		b	.L165
 2074              	.L169:
 410:Core/Src/esp32.c ****         if (Wifi_WaitForString(_WIFI_WAIT_TIME_VERYHIGH, &result, 3, "\r\nOK\r\n", "\r\nERROR\r\n",
 2075              		.loc 1 410 9 view .LVU474
 410:Core/Src/esp32.c ****         if (Wifi_WaitForString(_WIFI_WAIT_TIME_VERYHIGH, &result, 3, "\r\nOK\r\n", "\r\nERROR\r\n",
 2076              		.loc 1 410 13 is_stmt 0 view .LVU475
 2077 0038 0C4B     		ldr	r3, .L170+12
 2078 003a 0193     		str	r3, [sp, #4]
 2079 003c 0C4B     		ldr	r3, .L170+16
 2080 003e 0093     		str	r3, [sp]
 2081 0040 0C4B     		ldr	r3, .L170+20
 2082 0042 0322     		movs	r2, #3
 2083 0044 0DF10F01 		add	r1, sp, #15
 2084 0048 46F2A810 		movw	r0, #25000
 2085 004c FFF7FEFF 		bl	Wifi_WaitForString
 2086              	.LVL179:
 410:Core/Src/esp32.c ****         if (Wifi_WaitForString(_WIFI_WAIT_TIME_VERYHIGH, &result, 3, "\r\nOK\r\n", "\r\nERROR\r\n",
 2087              		.loc 1 410 12 view .LVU476
 2088 0050 0028     		cmp	r0, #0
 2089 0052 E8D0     		beq	.L166
 412:Core/Src/esp32.c ****         if (result > 1) // If the result is higher to 1 is because there were an error
 2090              		.loc 1 412 9 is_stmt 1 view .LVU477
 412:Core/Src/esp32.c ****         if (result > 1) // If the result is higher to 1 is because there were an error
 2091              		.loc 1 412 20 is_stmt 0 view .LVU478
 2092 0054 9DF80F30 		ldrb	r3, [sp, #15]	@ zero_extendqisi2
 412:Core/Src/esp32.c ****         if (result > 1) // If the result is higher to 1 is because there were an error
 2093              		.loc 1 412 12 view .LVU479
 2094 0058 012B     		cmp	r3, #1
 2095 005a E4D9     		bls	.L166
 397:Core/Src/esp32.c ****     bool returnVal = false;
 2096              		.loc 1 397 10 view .LVU480
 2097 005c 0020     		movs	r0, #0
 2098 005e E2E7     		b	.L166
 2099              	.L171:
 2100              		.align	2
 2101              	.L170:
 2102 0060 18000000 		.word	.LC17
 2103 0064 140C0000 		.word	Buffs+3092
 2104 0068 00000000 		.word	.LC16
 2105 006c 3C000000 		.word	.LC19
 2106 0070 48000000 		.word	.LC20
 2107 0074 34000000 		.word	.LC18
 2108              		.cfi_endproc
 2109              	.LFE1176:
 2111              		.section	.rodata.Wifi_Station_Disconnect.str1.4,"aMS",%progbits,1
 2112              		.align	2
 2113              	.LC21:
 2114 0000 41542B43 		.ascii	"AT+CWQAP\015\012\000"
 2114      57514150 
 2114      0D0A00
 2115              		.section	.text.Wifi_Station_Disconnect,"ax",%progbits
 2116              		.align	1
 2117              		.global	Wifi_Station_Disconnect
ARM GAS  /var/folders/9y/n02fl3g16gnf7ppy14xghdy80000gn/T//ccc4kUj2.s 			page 71


 2118              		.syntax unified
 2119              		.thumb
 2120              		.thumb_func
 2121              		.fpu fpv4-sp-d16
 2123              	Wifi_Station_Disconnect:
 2124              	.LFB1177:
 420:Core/Src/esp32.c **** {
 2125              		.loc 1 420 1 is_stmt 1 view -0
 2126              		.cfi_startproc
 2127              		@ args = 0, pretend = 0, frame = 8
 2128              		@ frame_needed = 0, uses_anonymous_args = 0
 2129 0000 10B5     		push	{r4, lr}
 2130              		.cfi_def_cfa_offset 8
 2131              		.cfi_offset 4, -8
 2132              		.cfi_offset 14, -4
 2133 0002 84B0     		sub	sp, sp, #16
 2134              		.cfi_def_cfa_offset 24
 421:Core/Src/esp32.c ****     uint8_t result;
 2135              		.loc 1 421 5 view .LVU482
 422:Core/Src/esp32.c ****     bool returnVal = false;
 2136              		.loc 1 422 5 view .LVU483
 2137              	.LVL180:
 423:Core/Src/esp32.c ****     do
 2138              		.loc 1 423 5 view .LVU484
 425:Core/Src/esp32.c ****         Wifi_RxClear();
 2139              		.loc 1 425 9 view .LVU485
 2140 0004 FFF7FEFF 		bl	Wifi_RxClear
 2141              	.LVL181:
 426:Core/Src/esp32.c ****         sprintf((char *)Buffs.TxBuffer, "AT+CWQAP\r\n");
 2142              		.loc 1 426 9 view .LVU486
 2143 0008 104C     		ldr	r4, .L176
 2144 000a 114A     		ldr	r2, .L176+4
 2145 000c 2346     		mov	r3, r4
 2146 000e 07CA     		ldm	r2, {r0, r1, r2}
 2147 0010 03C3     		stmia	r3!, {r0, r1}
 2148 0012 23F8022B 		strh	r2, [r3], #2	@ movhi
 2149 0016 120C     		lsrs	r2, r2, #16
 2150 0018 1A70     		strb	r2, [r3]
 427:Core/Src/esp32.c ****         if (Wifi_SendString((char *)Buffs.TxBuffer) == false)
 2151              		.loc 1 427 9 view .LVU487
 427:Core/Src/esp32.c ****         if (Wifi_SendString((char *)Buffs.TxBuffer) == false)
 2152              		.loc 1 427 13 is_stmt 0 view .LVU488
 2153 001a 2046     		mov	r0, r4
 2154 001c FFF7FEFF 		bl	Wifi_SendString
 2155              	.LVL182:
 427:Core/Src/esp32.c ****         if (Wifi_SendString((char *)Buffs.TxBuffer) == false)
 2156              		.loc 1 427 12 view .LVU489
 2157 0020 08B9     		cbnz	r0, .L175
 2158              	.L173:
 2159              	.LVL183:
 434:Core/Src/esp32.c ****     } while (0);
 2160              		.loc 1 434 13 is_stmt 1 view .LVU490
 435:Core/Src/esp32.c ****     return returnVal;
 2161              		.loc 1 435 5 view .LVU491
 436:Core/Src/esp32.c **** }
 2162              		.loc 1 436 1 is_stmt 0 view .LVU492
 2163 0022 04B0     		add	sp, sp, #16
ARM GAS  /var/folders/9y/n02fl3g16gnf7ppy14xghdy80000gn/T//ccc4kUj2.s 			page 72


 2164              		.cfi_remember_state
 2165              		.cfi_def_cfa_offset 8
 2166              		@ sp needed
 2167 0024 10BD     		pop	{r4, pc}
 2168              	.LVL184:
 2169              	.L175:
 2170              		.cfi_restore_state
 429:Core/Src/esp32.c ****         if (Wifi_WaitForString(_WIFI_WAIT_TIME_LOW, &result, 2, "OK", "ERROR") == false)
 2171              		.loc 1 429 9 is_stmt 1 view .LVU493
 429:Core/Src/esp32.c ****         if (Wifi_WaitForString(_WIFI_WAIT_TIME_LOW, &result, 2, "OK", "ERROR") == false)
 2172              		.loc 1 429 13 is_stmt 0 view .LVU494
 2173 0026 0B4B     		ldr	r3, .L176+8
 2174 0028 0093     		str	r3, [sp]
 2175 002a 0B4B     		ldr	r3, .L176+12
 2176 002c 0222     		movs	r2, #2
 2177 002e 0DF10F01 		add	r1, sp, #15
 2178 0032 4FF47A70 		mov	r0, #1000
 2179 0036 FFF7FEFF 		bl	Wifi_WaitForString
 2180              	.LVL185:
 429:Core/Src/esp32.c ****         if (Wifi_WaitForString(_WIFI_WAIT_TIME_LOW, &result, 2, "OK", "ERROR") == false)
 2181              		.loc 1 429 12 view .LVU495
 2182 003a 0028     		cmp	r0, #0
 2183 003c F1D0     		beq	.L173
 431:Core/Src/esp32.c ****         if (result == 2) // It was find the "ERROR" String in the receiving information
 2184              		.loc 1 431 9 is_stmt 1 view .LVU496
 431:Core/Src/esp32.c ****         if (result == 2) // It was find the "ERROR" String in the receiving information
 2185              		.loc 1 431 20 is_stmt 0 view .LVU497
 2186 003e 9DF80F30 		ldrb	r3, [sp, #15]	@ zero_extendqisi2
 431:Core/Src/esp32.c ****         if (result == 2) // It was find the "ERROR" String in the receiving information
 2187              		.loc 1 431 12 view .LVU498
 2188 0042 022B     		cmp	r3, #2
 2189 0044 EDD1     		bne	.L173
 422:Core/Src/esp32.c ****     bool returnVal = false;
 2190              		.loc 1 422 10 view .LVU499
 2191 0046 0020     		movs	r0, #0
 2192 0048 EBE7     		b	.L173
 2193              	.L177:
 2194 004a 00BF     		.align	2
 2195              	.L176:
 2196 004c 140C0000 		.word	Buffs+3092
 2197 0050 00000000 		.word	.LC21
 2198 0054 0C000000 		.word	.LC4
 2199 0058 08000000 		.word	.LC3
 2200              		.cfi_endproc
 2201              	.LFE1177:
 2203              		.section	.rodata.Wifi_Station_SetIp.str1.4,"aMS",%progbits,1
 2204              		.align	2
 2205              	.LC22:
 2206 0000 41542B43 		.ascii	"AT+CIPSTA=\"%s\",\"%s\",\"%s\"\015\012\000"
 2206      49505354 
 2206      413D2225 
 2206      73222C22 
 2206      2573222C 
 2207              		.section	.text.Wifi_Station_SetIp,"ax",%progbits
 2208              		.align	1
 2209              		.global	Wifi_Station_SetIp
 2210              		.syntax unified
ARM GAS  /var/folders/9y/n02fl3g16gnf7ppy14xghdy80000gn/T//ccc4kUj2.s 			page 73


 2211              		.thumb
 2212              		.thumb_func
 2213              		.fpu fpv4-sp-d16
 2215              	Wifi_Station_SetIp:
 2216              	.LVL186:
 2217              	.LFB1178:
 439:Core/Src/esp32.c **** {
 2218              		.loc 1 439 1 is_stmt 1 view -0
 2219              		.cfi_startproc
 2220              		@ args = 0, pretend = 0, frame = 8
 2221              		@ frame_needed = 0, uses_anonymous_args = 0
 439:Core/Src/esp32.c **** {
 2222              		.loc 1 439 1 is_stmt 0 view .LVU501
 2223 0000 F0B5     		push	{r4, r5, r6, r7, lr}
 2224              		.cfi_def_cfa_offset 20
 2225              		.cfi_offset 4, -20
 2226              		.cfi_offset 5, -16
 2227              		.cfi_offset 6, -12
 2228              		.cfi_offset 7, -8
 2229              		.cfi_offset 14, -4
 2230 0002 85B0     		sub	sp, sp, #20
 2231              		.cfi_def_cfa_offset 40
 2232 0004 0446     		mov	r4, r0
 2233 0006 0D46     		mov	r5, r1
 2234 0008 1646     		mov	r6, r2
 440:Core/Src/esp32.c ****     uint8_t result;
 2235              		.loc 1 440 5 is_stmt 1 view .LVU502
 441:Core/Src/esp32.c ****     bool returnVal = false;
 2236              		.loc 1 441 5 view .LVU503
 2237              	.LVL187:
 442:Core/Src/esp32.c ****     do
 2238              		.loc 1 442 5 view .LVU504
 444:Core/Src/esp32.c ****         Wifi_RxClear();
 2239              		.loc 1 444 9 view .LVU505
 2240 000a FFF7FEFF 		bl	Wifi_RxClear
 2241              	.LVL188:
 445:Core/Src/esp32.c ****         sprintf((char *)Buffs.TxBuffer, "AT+CIPSTA=\"%s\",\"%s\",\"%s\"\r\n", IP, GateWay, NetMask)
 2242              		.loc 1 445 9 view .LVU506
 2243 000e 124F     		ldr	r7, .L183
 2244 0010 0096     		str	r6, [sp]
 2245 0012 2B46     		mov	r3, r5
 2246 0014 2246     		mov	r2, r4
 2247 0016 1149     		ldr	r1, .L183+4
 2248 0018 3846     		mov	r0, r7
 2249 001a FFF7FEFF 		bl	sprintf
 2250              	.LVL189:
 446:Core/Src/esp32.c ****         if (Wifi_SendString((char *)Buffs.TxBuffer) == false)
 2251              		.loc 1 446 9 view .LVU507
 446:Core/Src/esp32.c ****         if (Wifi_SendString((char *)Buffs.TxBuffer) == false)
 2252              		.loc 1 446 13 is_stmt 0 view .LVU508
 2253 001e 3846     		mov	r0, r7
 2254 0020 FFF7FEFF 		bl	Wifi_SendString
 2255              	.LVL190:
 446:Core/Src/esp32.c ****         if (Wifi_SendString((char *)Buffs.TxBuffer) == false)
 2256              		.loc 1 446 12 view .LVU509
 2257 0024 08B9     		cbnz	r0, .L182
 2258              	.LVL191:
ARM GAS  /var/folders/9y/n02fl3g16gnf7ppy14xghdy80000gn/T//ccc4kUj2.s 			page 74


 2259              	.L179:
 454:Core/Src/esp32.c ****     } while (0);
 2260              		.loc 1 454 13 is_stmt 1 view .LVU510
 455:Core/Src/esp32.c ****     return returnVal;
 2261              		.loc 1 455 5 view .LVU511
 456:Core/Src/esp32.c **** }
 2262              		.loc 1 456 1 is_stmt 0 view .LVU512
 2263 0026 05B0     		add	sp, sp, #20
 2264              		.cfi_remember_state
 2265              		.cfi_def_cfa_offset 20
 2266              		@ sp needed
 2267 0028 F0BD     		pop	{r4, r5, r6, r7, pc}
 2268              	.LVL192:
 2269              	.L182:
 2270              		.cfi_restore_state
 448:Core/Src/esp32.c ****         if (Wifi_WaitForString(_WIFI_WAIT_TIME_LOW, &result, 2, "OK", "ERROR") == false)
 2271              		.loc 1 448 9 is_stmt 1 view .LVU513
 448:Core/Src/esp32.c ****         if (Wifi_WaitForString(_WIFI_WAIT_TIME_LOW, &result, 2, "OK", "ERROR") == false)
 2272              		.loc 1 448 13 is_stmt 0 view .LVU514
 2273 002a 0D4B     		ldr	r3, .L183+8
 2274 002c 0093     		str	r3, [sp]
 2275 002e 0D4B     		ldr	r3, .L183+12
 2276 0030 0222     		movs	r2, #2
 2277 0032 0DF10F01 		add	r1, sp, #15
 2278 0036 4FF47A70 		mov	r0, #1000
 2279 003a FFF7FEFF 		bl	Wifi_WaitForString
 2280              	.LVL193:
 448:Core/Src/esp32.c ****         if (Wifi_WaitForString(_WIFI_WAIT_TIME_LOW, &result, 2, "OK", "ERROR") == false)
 2281              		.loc 1 448 12 view .LVU515
 2282 003e 0028     		cmp	r0, #0
 2283 0040 F1D0     		beq	.L179
 450:Core/Src/esp32.c ****         if (result == 2) // It was find the "ERROR" String in the receiving information
 2284              		.loc 1 450 9 is_stmt 1 view .LVU516
 450:Core/Src/esp32.c ****         if (result == 2) // It was find the "ERROR" String in the receiving information
 2285              		.loc 1 450 20 is_stmt 0 view .LVU517
 2286 0042 9DF80F30 		ldrb	r3, [sp, #15]	@ zero_extendqisi2
 450:Core/Src/esp32.c ****         if (result == 2) // It was find the "ERROR" String in the receiving information
 2287              		.loc 1 450 12 view .LVU518
 2288 0046 022B     		cmp	r3, #2
 2289 0048 04D0     		beq	.L180
 452:Core/Src/esp32.c ****         Wifi.StationDhcp = false;
 2290              		.loc 1 452 9 is_stmt 1 view .LVU519
 452:Core/Src/esp32.c ****         Wifi.StationDhcp = false;
 2291              		.loc 1 452 26 is_stmt 0 view .LVU520
 2292 004a 074B     		ldr	r3, .L183+16
 2293 004c 0022     		movs	r2, #0
 2294 004e 83F83520 		strb	r2, [r3, #53]
 453:Core/Src/esp32.c ****         returnVal = true;
 2295              		.loc 1 453 9 is_stmt 1 view .LVU521
 2296              	.LVL194:
 453:Core/Src/esp32.c ****         returnVal = true;
 2297              		.loc 1 453 9 is_stmt 0 view .LVU522
 2298 0052 E8E7     		b	.L179
 2299              	.LVL195:
 2300              	.L180:
 441:Core/Src/esp32.c ****     bool returnVal = false;
 2301              		.loc 1 441 10 view .LVU523
ARM GAS  /var/folders/9y/n02fl3g16gnf7ppy14xghdy80000gn/T//ccc4kUj2.s 			page 75


 2302 0054 0020     		movs	r0, #0
 2303 0056 E6E7     		b	.L179
 2304              	.L184:
 2305              		.align	2
 2306              	.L183:
 2307 0058 140C0000 		.word	Buffs+3092
 2308 005c 00000000 		.word	.LC22
 2309 0060 0C000000 		.word	.LC4
 2310 0064 08000000 		.word	.LC3
 2311 0068 00000000 		.word	.LANCHOR0
 2312              		.cfi_endproc
 2313              	.LFE1178:
 2315              		.section	.rodata.Wifi_Station_DhcpEnable.str1.4,"aMS",%progbits,1
 2316              		.align	2
 2317              	.LC23:
 2318 0000 41542B43 		.ascii	"AT+CWDHCP=1,%d\015\012\000"
 2318      57444843 
 2318      503D312C 
 2318      25640D0A 
 2318      00
 2319              		.section	.text.Wifi_Station_DhcpEnable,"ax",%progbits
 2320              		.align	1
 2321              		.global	Wifi_Station_DhcpEnable
 2322              		.syntax unified
 2323              		.thumb
 2324              		.thumb_func
 2325              		.fpu fpv4-sp-d16
 2327              	Wifi_Station_DhcpEnable:
 2328              	.LVL196:
 2329              	.LFB1179:
 459:Core/Src/esp32.c **** {
 2330              		.loc 1 459 1 is_stmt 1 view -0
 2331              		.cfi_startproc
 2332              		@ args = 0, pretend = 0, frame = 8
 2333              		@ frame_needed = 0, uses_anonymous_args = 0
 459:Core/Src/esp32.c **** {
 2334              		.loc 1 459 1 is_stmt 0 view .LVU525
 2335 0000 30B5     		push	{r4, r5, lr}
 2336              		.cfi_def_cfa_offset 12
 2337              		.cfi_offset 4, -12
 2338              		.cfi_offset 5, -8
 2339              		.cfi_offset 14, -4
 2340 0002 85B0     		sub	sp, sp, #20
 2341              		.cfi_def_cfa_offset 32
 2342 0004 0446     		mov	r4, r0
 460:Core/Src/esp32.c ****     uint8_t result;
 2343              		.loc 1 460 5 is_stmt 1 view .LVU526
 461:Core/Src/esp32.c ****     bool returnVal = false;
 2344              		.loc 1 461 5 view .LVU527
 2345              	.LVL197:
 462:Core/Src/esp32.c ****     do
 2346              		.loc 1 462 5 view .LVU528
 467:Core/Src/esp32.c ****         Wifi_RxClear();
 2347              		.loc 1 467 9 view .LVU529
 2348 0006 FFF7FEFF 		bl	Wifi_RxClear
 2349              	.LVL198:
 468:Core/Src/esp32.c ****         sprintf((char *)Buffs.TxBuffer, "AT+CWDHCP=1,%d\r\n", Enable);
ARM GAS  /var/folders/9y/n02fl3g16gnf7ppy14xghdy80000gn/T//ccc4kUj2.s 			page 76


 2350              		.loc 1 468 9 view .LVU530
 2351 000a 114D     		ldr	r5, .L190
 2352 000c 2246     		mov	r2, r4
 2353 000e 1149     		ldr	r1, .L190+4
 2354 0010 2846     		mov	r0, r5
 2355 0012 FFF7FEFF 		bl	sprintf
 2356              	.LVL199:
 469:Core/Src/esp32.c ****         if (Wifi_SendString((char *)Buffs.TxBuffer) == false)
 2357              		.loc 1 469 9 view .LVU531
 469:Core/Src/esp32.c ****         if (Wifi_SendString((char *)Buffs.TxBuffer) == false)
 2358              		.loc 1 469 13 is_stmt 0 view .LVU532
 2359 0016 2846     		mov	r0, r5
 2360 0018 FFF7FEFF 		bl	Wifi_SendString
 2361              	.LVL200:
 469:Core/Src/esp32.c ****         if (Wifi_SendString((char *)Buffs.TxBuffer) == false)
 2362              		.loc 1 469 12 view .LVU533
 2363 001c 08B9     		cbnz	r0, .L189
 2364              	.LVL201:
 2365              	.L186:
 477:Core/Src/esp32.c ****     } while (0);
 2366              		.loc 1 477 13 is_stmt 1 view .LVU534
 478:Core/Src/esp32.c ****     return returnVal;
 2367              		.loc 1 478 5 view .LVU535
 479:Core/Src/esp32.c **** }
 2368              		.loc 1 479 1 is_stmt 0 view .LVU536
 2369 001e 05B0     		add	sp, sp, #20
 2370              		.cfi_remember_state
 2371              		.cfi_def_cfa_offset 12
 2372              		@ sp needed
 2373 0020 30BD     		pop	{r4, r5, pc}
 2374              	.LVL202:
 2375              	.L189:
 2376              		.cfi_restore_state
 471:Core/Src/esp32.c ****         if (Wifi_WaitForString(_WIFI_WAIT_TIME_LOW, &result, 2, "OK", "ERROR") == false)
 2377              		.loc 1 471 9 is_stmt 1 view .LVU537
 471:Core/Src/esp32.c ****         if (Wifi_WaitForString(_WIFI_WAIT_TIME_LOW, &result, 2, "OK", "ERROR") == false)
 2378              		.loc 1 471 13 is_stmt 0 view .LVU538
 2379 0022 0D4B     		ldr	r3, .L190+8
 2380 0024 0093     		str	r3, [sp]
 2381 0026 0D4B     		ldr	r3, .L190+12
 2382 0028 0222     		movs	r2, #2
 2383 002a 0DF10F01 		add	r1, sp, #15
 2384 002e 4FF47A70 		mov	r0, #1000
 2385 0032 FFF7FEFF 		bl	Wifi_WaitForString
 2386              	.LVL203:
 471:Core/Src/esp32.c ****         if (Wifi_WaitForString(_WIFI_WAIT_TIME_LOW, &result, 2, "OK", "ERROR") == false)
 2387              		.loc 1 471 12 view .LVU539
 2388 0036 0028     		cmp	r0, #0
 2389 0038 F1D0     		beq	.L186
 473:Core/Src/esp32.c ****         if (result == 2) // It was find the "ERROR" String in the receiving information
 2390              		.loc 1 473 9 is_stmt 1 view .LVU540
 473:Core/Src/esp32.c ****         if (result == 2) // It was find the "ERROR" String in the receiving information
 2391              		.loc 1 473 20 is_stmt 0 view .LVU541
 2392 003a 9DF80F30 		ldrb	r3, [sp, #15]	@ zero_extendqisi2
 473:Core/Src/esp32.c ****         if (result == 2) // It was find the "ERROR" String in the receiving information
 2393              		.loc 1 473 12 view .LVU542
 2394 003e 022B     		cmp	r3, #2
ARM GAS  /var/folders/9y/n02fl3g16gnf7ppy14xghdy80000gn/T//ccc4kUj2.s 			page 77


 2395 0040 03D0     		beq	.L187
 475:Core/Src/esp32.c ****         Wifi.StationDhcp = Enable;
 2396              		.loc 1 475 9 is_stmt 1 view .LVU543
 475:Core/Src/esp32.c ****         Wifi.StationDhcp = Enable;
 2397              		.loc 1 475 26 is_stmt 0 view .LVU544
 2398 0042 074B     		ldr	r3, .L190+16
 2399 0044 83F83540 		strb	r4, [r3, #53]
 476:Core/Src/esp32.c ****         returnVal = true;
 2400              		.loc 1 476 9 is_stmt 1 view .LVU545
 2401              	.LVL204:
 476:Core/Src/esp32.c ****         returnVal = true;
 2402              		.loc 1 476 9 is_stmt 0 view .LVU546
 2403 0048 E9E7     		b	.L186
 2404              	.LVL205:
 2405              	.L187:
 461:Core/Src/esp32.c ****     bool returnVal = false;
 2406              		.loc 1 461 10 view .LVU547
 2407 004a 0020     		movs	r0, #0
 2408 004c E7E7     		b	.L186
 2409              	.L191:
 2410 004e 00BF     		.align	2
 2411              	.L190:
 2412 0050 140C0000 		.word	Buffs+3092
 2413 0054 00000000 		.word	.LC23
 2414 0058 0C000000 		.word	.LC4
 2415 005c 08000000 		.word	.LC3
 2416 0060 00000000 		.word	.LANCHOR0
 2417              		.cfi_endproc
 2418              	.LFE1179:
 2420              		.section	.rodata.Wifi_Station_DhcpIsEnable.str1.4,"aMS",%progbits,1
 2421              		.align	2
 2422              	.LC24:
 2423 0000 41542B43 		.ascii	"AT+CWDHCP?\015\012\000"
 2423      57444843 
 2423      503F0D0A 
 2423      00
 2424              		.section	.text.Wifi_Station_DhcpIsEnable,"ax",%progbits
 2425              		.align	1
 2426              		.global	Wifi_Station_DhcpIsEnable
 2427              		.syntax unified
 2428              		.thumb
 2429              		.thumb_func
 2430              		.fpu fpv4-sp-d16
 2432              	Wifi_Station_DhcpIsEnable:
 2433              	.LFB1180:
 482:Core/Src/esp32.c **** {
 2434              		.loc 1 482 1 is_stmt 1 view -0
 2435              		.cfi_startproc
 2436              		@ args = 0, pretend = 0, frame = 8
 2437              		@ frame_needed = 0, uses_anonymous_args = 0
 2438 0000 10B5     		push	{r4, lr}
 2439              		.cfi_def_cfa_offset 8
 2440              		.cfi_offset 4, -8
 2441              		.cfi_offset 14, -4
 2442 0002 84B0     		sub	sp, sp, #16
 2443              		.cfi_def_cfa_offset 24
 483:Core/Src/esp32.c ****     uint8_t result;
ARM GAS  /var/folders/9y/n02fl3g16gnf7ppy14xghdy80000gn/T//ccc4kUj2.s 			page 78


 2444              		.loc 1 483 5 view .LVU549
 484:Core/Src/esp32.c ****     bool returnVal = false;
 2445              		.loc 1 484 5 view .LVU550
 2446              	.LVL206:
 485:Core/Src/esp32.c ****     do
 2447              		.loc 1 485 5 view .LVU551
 491:Core/Src/esp32.c ****         Wifi_RxClear();
 2448              		.loc 1 491 9 view .LVU552
 2449 0004 FFF7FEFF 		bl	Wifi_RxClear
 2450              	.LVL207:
 492:Core/Src/esp32.c ****         sprintf((char *)Buffs.TxBuffer, "AT+CWDHCP?\r\n");
 2451              		.loc 1 492 9 view .LVU553
 2452 0008 264C     		ldr	r4, .L203
 2453 000a 274B     		ldr	r3, .L203+4
 2454 000c A446     		mov	ip, r4
 2455 000e 0FCB     		ldm	r3, {r0, r1, r2, r3}
 2456 0010 ACE80700 		stmia	ip!, {r0, r1, r2}
 2457 0014 8CF80030 		strb	r3, [ip]
 493:Core/Src/esp32.c ****         if (Wifi_SendString((char *)Buffs.TxBuffer) == false)
 2458              		.loc 1 493 9 view .LVU554
 493:Core/Src/esp32.c ****         if (Wifi_SendString((char *)Buffs.TxBuffer) == false)
 2459              		.loc 1 493 13 is_stmt 0 view .LVU555
 2460 0018 2046     		mov	r0, r4
 2461 001a FFF7FEFF 		bl	Wifi_SendString
 2462              	.LVL208:
 493:Core/Src/esp32.c ****         if (Wifi_SendString((char *)Buffs.TxBuffer) == false)
 2463              		.loc 1 493 12 view .LVU556
 2464 001e 08B9     		cbnz	r0, .L201
 2465              	.L193:
 2466              	.LVL209:
 522:Core/Src/esp32.c ****     } while (0);
 2467              		.loc 1 522 13 is_stmt 1 view .LVU557
 523:Core/Src/esp32.c ****     return returnVal;
 2468              		.loc 1 523 5 view .LVU558
 524:Core/Src/esp32.c **** }
 2469              		.loc 1 524 1 is_stmt 0 view .LVU559
 2470 0020 04B0     		add	sp, sp, #16
 2471              		.cfi_remember_state
 2472              		.cfi_def_cfa_offset 8
 2473              		@ sp needed
 2474 0022 10BD     		pop	{r4, pc}
 2475              	.LVL210:
 2476              	.L201:
 2477              		.cfi_restore_state
 495:Core/Src/esp32.c ****         if (Wifi_WaitForString(_WIFI_WAIT_TIME_LOW, &result, 2, "OK", "ERROR") == false)
 2478              		.loc 1 495 9 is_stmt 1 view .LVU560
 495:Core/Src/esp32.c ****         if (Wifi_WaitForString(_WIFI_WAIT_TIME_LOW, &result, 2, "OK", "ERROR") == false)
 2479              		.loc 1 495 13 is_stmt 0 view .LVU561
 2480 0024 214B     		ldr	r3, .L203+8
 2481 0026 0093     		str	r3, [sp]
 2482 0028 214B     		ldr	r3, .L203+12
 2483 002a 0222     		movs	r2, #2
 2484 002c 0DF10F01 		add	r1, sp, #15
 2485 0030 4FF47A70 		mov	r0, #1000
 2486 0034 FFF7FEFF 		bl	Wifi_WaitForString
 2487              	.LVL211:
 495:Core/Src/esp32.c ****         if (Wifi_WaitForString(_WIFI_WAIT_TIME_LOW, &result, 2, "OK", "ERROR") == false)
ARM GAS  /var/folders/9y/n02fl3g16gnf7ppy14xghdy80000gn/T//ccc4kUj2.s 			page 79


 2488              		.loc 1 495 12 view .LVU562
 2489 0038 0028     		cmp	r0, #0
 2490 003a F1D0     		beq	.L193
 497:Core/Src/esp32.c ****         if (result == 2) // It was find the "ERROR" String in the receiving information
 2491              		.loc 1 497 9 is_stmt 1 view .LVU563
 497:Core/Src/esp32.c ****         if (result == 2) // It was find the "ERROR" String in the receiving information
 2492              		.loc 1 497 20 is_stmt 0 view .LVU564
 2493 003c 9DF80F30 		ldrb	r3, [sp, #15]	@ zero_extendqisi2
 497:Core/Src/esp32.c ****         if (result == 2) // It was find the "ERROR" String in the receiving information
 2494              		.loc 1 497 12 view .LVU565
 2495 0040 022B     		cmp	r3, #2
 2496 0042 01D1     		bne	.L202
 484:Core/Src/esp32.c ****     bool returnVal = false;
 2497              		.loc 1 484 10 view .LVU566
 2498 0044 0020     		movs	r0, #0
 2499 0046 EBE7     		b	.L193
 2500              	.L202:
 499:Core/Src/esp32.c ****         if (Wifi_ReturnInteger((int32_t *)&result, 1, ":") == false)
 2501              		.loc 1 499 9 is_stmt 1 view .LVU567
 499:Core/Src/esp32.c ****         if (Wifi_ReturnInteger((int32_t *)&result, 1, ":") == false)
 2502              		.loc 1 499 13 is_stmt 0 view .LVU568
 2503 0048 1A4A     		ldr	r2, .L203+16
 2504 004a 0121     		movs	r1, #1
 2505 004c 0DF10F00 		add	r0, sp, #15
 2506 0050 FFF7FEFF 		bl	Wifi_ReturnInteger
 2507              	.LVL212:
 499:Core/Src/esp32.c ****         if (Wifi_ReturnInteger((int32_t *)&result, 1, ":") == false)
 2508              		.loc 1 499 12 view .LVU569
 2509 0054 0028     		cmp	r0, #0
 2510 0056 E3D0     		beq	.L193
 502:Core/Src/esp32.c ****         switch (result)
 2511              		.loc 1 502 9 is_stmt 1 view .LVU570
 2512 0058 9DF80F30 		ldrb	r3, [sp, #15]	@ zero_extendqisi2
 2513 005c 032B     		cmp	r3, #3
 2514 005e DFD8     		bhi	.L193
 2515 0060 DFE803F0 		tbb	[pc, r3]
 2516              	.L195:
 2517 0064 02       		.byte	(.L198-.L195)/2
 2518 0065 09       		.byte	(.L197-.L195)/2
 2519 0066 11       		.byte	(.L196-.L195)/2
 2520 0067 19       		.byte	(.L194-.L195)/2
 2521              		.p2align 1
 2522              	.L198:
 505:Core/Src/esp32.c ****             Wifi.StationDhcp = false;
 2523              		.loc 1 505 13 view .LVU571
 505:Core/Src/esp32.c ****             Wifi.StationDhcp = false;
 2524              		.loc 1 505 30 is_stmt 0 view .LVU572
 2525 0068 134B     		ldr	r3, .L203+20
 2526 006a 0022     		movs	r2, #0
 2527 006c 83F83520 		strb	r2, [r3, #53]
 506:Core/Src/esp32.c ****             Wifi.SoftApDhcp = false;
 2528              		.loc 1 506 13 is_stmt 1 view .LVU573
 506:Core/Src/esp32.c ****             Wifi.SoftApDhcp = false;
 2529              		.loc 1 506 29 is_stmt 0 view .LVU574
 2530 0070 83F84620 		strb	r2, [r3, #70]
 507:Core/Src/esp32.c ****             break;
 2531              		.loc 1 507 13 is_stmt 1 view .LVU575
ARM GAS  /var/folders/9y/n02fl3g16gnf7ppy14xghdy80000gn/T//ccc4kUj2.s 			page 80


 2532 0074 D4E7     		b	.L193
 2533              	.L197:
 509:Core/Src/esp32.c ****             Wifi.StationDhcp = false;
 2534              		.loc 1 509 13 view .LVU576
 509:Core/Src/esp32.c ****             Wifi.StationDhcp = false;
 2535              		.loc 1 509 30 is_stmt 0 view .LVU577
 2536 0076 104B     		ldr	r3, .L203+20
 2537 0078 0022     		movs	r2, #0
 2538 007a 83F83520 		strb	r2, [r3, #53]
 510:Core/Src/esp32.c ****             Wifi.SoftApDhcp = true;
 2539              		.loc 1 510 13 is_stmt 1 view .LVU578
 510:Core/Src/esp32.c ****             Wifi.SoftApDhcp = true;
 2540              		.loc 1 510 29 is_stmt 0 view .LVU579
 2541 007e 0122     		movs	r2, #1
 2542 0080 83F84620 		strb	r2, [r3, #70]
 511:Core/Src/esp32.c ****             break;
 2543              		.loc 1 511 13 is_stmt 1 view .LVU580
 2544 0084 CCE7     		b	.L193
 2545              	.L196:
 513:Core/Src/esp32.c ****             Wifi.StationDhcp = true;
 2546              		.loc 1 513 13 view .LVU581
 513:Core/Src/esp32.c ****             Wifi.StationDhcp = true;
 2547              		.loc 1 513 30 is_stmt 0 view .LVU582
 2548 0086 0C4B     		ldr	r3, .L203+20
 2549 0088 0122     		movs	r2, #1
 2550 008a 83F83520 		strb	r2, [r3, #53]
 514:Core/Src/esp32.c ****             Wifi.SoftApDhcp = false;
 2551              		.loc 1 514 13 is_stmt 1 view .LVU583
 514:Core/Src/esp32.c ****             Wifi.SoftApDhcp = false;
 2552              		.loc 1 514 29 is_stmt 0 view .LVU584
 2553 008e 0022     		movs	r2, #0
 2554 0090 83F84620 		strb	r2, [r3, #70]
 515:Core/Src/esp32.c ****             break;
 2555              		.loc 1 515 13 is_stmt 1 view .LVU585
 2556 0094 C4E7     		b	.L193
 2557              	.L194:
 517:Core/Src/esp32.c ****             Wifi.StationDhcp = true;
 2558              		.loc 1 517 13 view .LVU586
 517:Core/Src/esp32.c ****             Wifi.StationDhcp = true;
 2559              		.loc 1 517 30 is_stmt 0 view .LVU587
 2560 0096 084B     		ldr	r3, .L203+20
 2561 0098 0122     		movs	r2, #1
 2562 009a 83F83520 		strb	r2, [r3, #53]
 518:Core/Src/esp32.c ****             Wifi.SoftApDhcp = true;
 2563              		.loc 1 518 13 is_stmt 1 view .LVU588
 518:Core/Src/esp32.c ****             Wifi.SoftApDhcp = true;
 2564              		.loc 1 518 29 is_stmt 0 view .LVU589
 2565 009e 83F84620 		strb	r2, [r3, #70]
 519:Core/Src/esp32.c ****             break;
 2566              		.loc 1 519 13 is_stmt 1 view .LVU590
 2567 00a2 BDE7     		b	.L193
 2568              	.L204:
 2569              		.align	2
 2570              	.L203:
 2571 00a4 140C0000 		.word	Buffs+3092
 2572 00a8 00000000 		.word	.LC24
 2573 00ac 0C000000 		.word	.LC4
ARM GAS  /var/folders/9y/n02fl3g16gnf7ppy14xghdy80000gn/T//ccc4kUj2.s 			page 81


 2574 00b0 08000000 		.word	.LC3
 2575 00b4 10000000 		.word	.LC12
 2576 00b8 00000000 		.word	.LANCHOR0
 2577              		.cfi_endproc
 2578              	.LFE1180:
 2580              		.section	.rodata.Wifi_SoftAp_Create.str1.4,"aMS",%progbits,1
 2581              		.align	2
 2582              	.LC25:
 2583 0000 41542B43 		.ascii	"AT+CWSAP=\"%s\",\"%s\",%d,%d,%d,%d\015\012\000"
 2583      57534150 
 2583      3D222573 
 2583      222C2225 
 2583      73222C25 
 2584              		.section	.text.Wifi_SoftAp_Create,"ax",%progbits
 2585              		.align	1
 2586              		.global	Wifi_SoftAp_Create
 2587              		.syntax unified
 2588              		.thumb
 2589              		.thumb_func
 2590              		.fpu fpv4-sp-d16
 2592              	Wifi_SoftAp_Create:
 2593              	.LVL213:
 2594              	.LFB1181:
 530:Core/Src/esp32.c **** {
 2595              		.loc 1 530 1 view -0
 2596              		.cfi_startproc
 2597              		@ args = 8, pretend = 0, frame = 8
 2598              		@ frame_needed = 0, uses_anonymous_args = 0
 530:Core/Src/esp32.c **** {
 2599              		.loc 1 530 1 is_stmt 0 view .LVU592
 2600 0000 2DE9F041 		push	{r4, r5, r6, r7, r8, lr}
 2601              		.cfi_def_cfa_offset 24
 2602              		.cfi_offset 4, -24
 2603              		.cfi_offset 5, -20
 2604              		.cfi_offset 6, -16
 2605              		.cfi_offset 7, -12
 2606              		.cfi_offset 8, -8
 2607              		.cfi_offset 14, -4
 2608 0004 86B0     		sub	sp, sp, #24
 2609              		.cfi_def_cfa_offset 48
 2610 0006 0446     		mov	r4, r0
 2611 0008 0D46     		mov	r5, r1
 2612 000a 1646     		mov	r6, r2
 2613 000c 1F46     		mov	r7, r3
 531:Core/Src/esp32.c ****     uint8_t result;
 2614              		.loc 1 531 5 is_stmt 1 view .LVU593
 532:Core/Src/esp32.c ****     bool returnVal = false;
 2615              		.loc 1 532 5 view .LVU594
 2616              	.LVL214:
 533:Core/Src/esp32.c ****     do
 2617              		.loc 1 533 5 view .LVU595
 539:Core/Src/esp32.c ****         Wifi_RxClear();
 2618              		.loc 1 539 9 view .LVU596
 2619 000e FFF7FEFF 		bl	Wifi_RxClear
 2620              	.LVL215:
 540:Core/Src/esp32.c ****         sprintf((char *)Buffs.TxBuffer, "AT+CWSAP=\"%s\",\"%s\",%d,%d,%d,%d\r\n", SSID, password, c
 2621              		.loc 1 540 9 view .LVU597
ARM GAS  /var/folders/9y/n02fl3g16gnf7ppy14xghdy80000gn/T//ccc4kUj2.s 			page 82


 2622 0012 DFF85C80 		ldr	r8, .L209+12
 2623 0016 9DF83430 		ldrb	r3, [sp, #52]	@ zero_extendqisi2
 2624 001a 0393     		str	r3, [sp, #12]
 2625 001c 9DF83030 		ldrb	r3, [sp, #48]	@ zero_extendqisi2
 2626 0020 0293     		str	r3, [sp, #8]
 2627 0022 0197     		str	r7, [sp, #4]
 2628 0024 0096     		str	r6, [sp]
 2629 0026 2B46     		mov	r3, r5
 2630 0028 2246     		mov	r2, r4
 2631 002a 0E49     		ldr	r1, .L209
 2632 002c 4046     		mov	r0, r8
 2633 002e FFF7FEFF 		bl	sprintf
 2634              	.LVL216:
 541:Core/Src/esp32.c ****         if (Wifi_SendString((char *)Buffs.TxBuffer) == false)
 2635              		.loc 1 541 9 view .LVU598
 541:Core/Src/esp32.c ****         if (Wifi_SendString((char *)Buffs.TxBuffer) == false)
 2636              		.loc 1 541 13 is_stmt 0 view .LVU599
 2637 0032 4046     		mov	r0, r8
 2638 0034 FFF7FEFF 		bl	Wifi_SendString
 2639              	.LVL217:
 541:Core/Src/esp32.c ****         if (Wifi_SendString((char *)Buffs.TxBuffer) == false)
 2640              		.loc 1 541 12 view .LVU600
 2641 0038 10B9     		cbnz	r0, .L208
 2642              	.L206:
 2643              	.LVL218:
 549:Core/Src/esp32.c ****     } while (0);
 2644              		.loc 1 549 13 is_stmt 1 view .LVU601
 550:Core/Src/esp32.c ****     return returnVal;
 2645              		.loc 1 550 5 view .LVU602
 551:Core/Src/esp32.c **** }
 2646              		.loc 1 551 1 is_stmt 0 view .LVU603
 2647 003a 06B0     		add	sp, sp, #24
 2648              		.cfi_remember_state
 2649              		.cfi_def_cfa_offset 24
 2650              		@ sp needed
 2651 003c BDE8F081 		pop	{r4, r5, r6, r7, r8, pc}
 2652              	.LVL219:
 2653              	.L208:
 2654              		.cfi_restore_state
 543:Core/Src/esp32.c ****         if (Wifi_WaitForString(_WIFI_WAIT_TIME_LOW, &result, 2, "OK", "ERROR") == false)
 2655              		.loc 1 543 9 is_stmt 1 view .LVU604
 543:Core/Src/esp32.c ****         if (Wifi_WaitForString(_WIFI_WAIT_TIME_LOW, &result, 2, "OK", "ERROR") == false)
 2656              		.loc 1 543 13 is_stmt 0 view .LVU605
 2657 0040 094B     		ldr	r3, .L209+4
 2658 0042 0093     		str	r3, [sp]
 2659 0044 094B     		ldr	r3, .L209+8
 2660 0046 0222     		movs	r2, #2
 2661 0048 0DF11701 		add	r1, sp, #23
 2662 004c 4FF47A70 		mov	r0, #1000
 2663 0050 FFF7FEFF 		bl	Wifi_WaitForString
 2664              	.LVL220:
 543:Core/Src/esp32.c ****         if (Wifi_WaitForString(_WIFI_WAIT_TIME_LOW, &result, 2, "OK", "ERROR") == false)
 2665              		.loc 1 543 12 view .LVU606
 2666 0054 0028     		cmp	r0, #0
 2667 0056 F0D0     		beq	.L206
 545:Core/Src/esp32.c ****         if (result == 2) // It was find the "ERROR" String in the receiving information
 2668              		.loc 1 545 9 is_stmt 1 view .LVU607
ARM GAS  /var/folders/9y/n02fl3g16gnf7ppy14xghdy80000gn/T//ccc4kUj2.s 			page 83


 545:Core/Src/esp32.c ****         if (result == 2) // It was find the "ERROR" String in the receiving information
 2669              		.loc 1 545 20 is_stmt 0 view .LVU608
 2670 0058 9DF81730 		ldrb	r3, [sp, #23]	@ zero_extendqisi2
 545:Core/Src/esp32.c ****         if (result == 2) // It was find the "ERROR" String in the receiving information
 2671              		.loc 1 545 12 view .LVU609
 2672 005c 022B     		cmp	r3, #2
 2673 005e ECD1     		bne	.L206
 532:Core/Src/esp32.c ****     bool returnVal = false;
 2674              		.loc 1 532 10 view .LVU610
 2675 0060 0020     		movs	r0, #0
 2676 0062 EAE7     		b	.L206
 2677              	.L210:
 2678              		.align	2
 2679              	.L209:
 2680 0064 00000000 		.word	.LC25
 2681 0068 0C000000 		.word	.LC4
 2682 006c 08000000 		.word	.LC3
 2683 0070 140C0000 		.word	Buffs+3092
 2684              		.cfi_endproc
 2685              	.LFE1181:
 2687              		.section	.rodata.Wifi_GetApConnection.str1.4,"aMS",%progbits,1
 2688              		.align	2
 2689              	.LC26:
 2690 0000 41542B43 		.ascii	"AT+CWJAP?\015\012\000"
 2690      574A4150 
 2690      3F0D0A00 
 2691              		.align	2
 2692              	.LC27:
 2693 000c 3A2200   		.ascii	":\"\000"
 2694 000f 00       		.align	2
 2695              	.LC28:
 2696 0010 4E6F2041 		.ascii	"No AP\000"
 2696      5000
 2697              		.section	.text.Wifi_GetApConnection,"ax",%progbits
 2698              		.align	1
 2699              		.global	Wifi_GetApConnection
 2700              		.syntax unified
 2701              		.thumb
 2702              		.thumb_func
 2703              		.fpu fpv4-sp-d16
 2705              	Wifi_GetApConnection:
 2706              	.LFB1182:
 554:Core/Src/esp32.c **** {
 2707              		.loc 1 554 1 is_stmt 1 view -0
 2708              		.cfi_startproc
 2709              		@ args = 0, pretend = 0, frame = 8
 2710              		@ frame_needed = 0, uses_anonymous_args = 0
 2711 0000 F0B5     		push	{r4, r5, r6, r7, lr}
 2712              		.cfi_def_cfa_offset 20
 2713              		.cfi_offset 4, -20
 2714              		.cfi_offset 5, -16
 2715              		.cfi_offset 6, -12
 2716              		.cfi_offset 7, -8
 2717              		.cfi_offset 14, -4
 2718 0002 85B0     		sub	sp, sp, #20
 2719              		.cfi_def_cfa_offset 40
 555:Core/Src/esp32.c ****     bool returnVal = false;
ARM GAS  /var/folders/9y/n02fl3g16gnf7ppy14xghdy80000gn/T//ccc4kUj2.s 			page 84


 2720              		.loc 1 555 5 view .LVU612
 2721              	.LVL221:
 556:Core/Src/esp32.c ****     uint8_t result;
 2722              		.loc 1 556 5 view .LVU613
 557:Core/Src/esp32.c ****     do
 2723              		.loc 1 557 5 view .LVU614
 2724              	.LBB7:
 559:Core/Src/esp32.c ****         Wifi_RxClear();
 2725              		.loc 1 559 9 view .LVU615
 2726 0004 FFF7FEFF 		bl	Wifi_RxClear
 2727              	.LVL222:
 561:Core/Src/esp32.c ****         sprintf((char *)Buffs.TxBuffer, "AT+CWJAP?\r\n");
 2728              		.loc 1 561 9 view .LVU616
 2729 0008 274B     		ldr	r3, .L219
 2730 000a 284A     		ldr	r2, .L219+4
 2731 000c 07CA     		ldm	r2, {r0, r1, r2}
 2732 000e 83E80700 		stm	r3, {r0, r1, r2}
 562:Core/Src/esp32.c ****         if (Wifi_SendString((char *)Buffs.TxBuffer) == false)
 2733              		.loc 1 562 9 view .LVU617
 562:Core/Src/esp32.c ****         if (Wifi_SendString((char *)Buffs.TxBuffer) == false)
 2734              		.loc 1 562 13 is_stmt 0 view .LVU618
 2735 0012 1846     		mov	r0, r3
 2736 0014 FFF7FEFF 		bl	Wifi_SendString
 2737              	.LVL223:
 562:Core/Src/esp32.c ****         if (Wifi_SendString((char *)Buffs.TxBuffer) == false)
 2738              		.loc 1 562 12 view .LVU619
 2739 0018 0446     		mov	r4, r0
 2740 001a 10B9     		cbnz	r0, .L217
 2741              	.LVL224:
 2742              	.L212:
 562:Core/Src/esp32.c ****         if (Wifi_SendString((char *)Buffs.TxBuffer) == false)
 2743              		.loc 1 562 12 view .LVU620
 2744              	.LBE7:
 600:Core/Src/esp32.c ****     } while (0);
 2745              		.loc 1 600 13 is_stmt 1 view .LVU621
 602:Core/Src/esp32.c ****     return returnVal;
 2746              		.loc 1 602 5 view .LVU622
 603:Core/Src/esp32.c **** }
 2747              		.loc 1 603 1 is_stmt 0 view .LVU623
 2748 001c 2046     		mov	r0, r4
 2749 001e 05B0     		add	sp, sp, #20
 2750              		.cfi_remember_state
 2751              		.cfi_def_cfa_offset 20
 2752              		@ sp needed
 2753 0020 F0BD     		pop	{r4, r5, r6, r7, pc}
 2754              	.LVL225:
 2755              	.L217:
 2756              		.cfi_restore_state
 2757              	.LBB9:
 564:Core/Src/esp32.c ****         if (Wifi_WaitForString(_WIFI_WAIT_TIME_LOW, &result, 2, "OK", "ERROR") == false)
 2758              		.loc 1 564 9 is_stmt 1 view .LVU624
 564:Core/Src/esp32.c ****         if (Wifi_WaitForString(_WIFI_WAIT_TIME_LOW, &result, 2, "OK", "ERROR") == false)
 2759              		.loc 1 564 13 is_stmt 0 view .LVU625
 2760 0022 234B     		ldr	r3, .L219+8
 2761 0024 0093     		str	r3, [sp]
 2762 0026 234B     		ldr	r3, .L219+12
 2763 0028 0222     		movs	r2, #2
ARM GAS  /var/folders/9y/n02fl3g16gnf7ppy14xghdy80000gn/T//ccc4kUj2.s 			page 85


 2764 002a 0DF10F01 		add	r1, sp, #15
 2765 002e 4FF47A70 		mov	r0, #1000
 2766 0032 FFF7FEFF 		bl	Wifi_WaitForString
 2767              	.LVL226:
 564:Core/Src/esp32.c ****         if (Wifi_WaitForString(_WIFI_WAIT_TIME_LOW, &result, 2, "OK", "ERROR") == false)
 2768              		.loc 1 564 12 view .LVU626
