ARM GAS  /var/folders/9y/n02fl3g16gnf7ppy14xghdy80000gn/T//ccoB4Sfq.s 			page 1


   1              		.cpu cortex-m4
   2              		.eabi_attribute 27, 1
   3              		.eabi_attribute 28, 1
   4              		.eabi_attribute 20, 1
   5              		.eabi_attribute 21, 1
   6              		.eabi_attribute 23, 3
   7              		.eabi_attribute 24, 1
   8              		.eabi_attribute 25, 1
   9              		.eabi_attribute 26, 1
  10              		.eabi_attribute 30, 1
  11              		.eabi_attribute 34, 1
  12              		.eabi_attribute 18, 4
  13              		.file	"esp32.c"
  14              		.text
  15              	.Ltext0:
  16              		.cfi_sections	.debug_frame
  17              		.section	.text.Wifi_SendRaw,"ax",%progbits
  18              		.align	1
  19              		.global	Wifi_SendRaw
  20              		.arch armv7e-m
  21              		.syntax unified
  22              		.thumb
  23              		.thumb_func
  24              		.fpu fpv4-sp-d16
  26              	Wifi_SendRaw:
  27              	.LVL0:
  28              	.LFB1155:
  29              		.file 1 "Core/Src/esp32.c"
   1:Core/Src/esp32.c **** #include "esp32.h"
   2:Core/Src/esp32.c **** #include "esp32Config.h"
   3:Core/Src/esp32.c **** 
   4:Core/Src/esp32.c **** Wifi_t Wifi;
   5:Core/Src/esp32.c **** MQTT_t MQTT;
   6:Core/Src/esp32.c **** SNTP_t SNTP;
   7:Core/Src/esp32.c **** // ################################################################################################
   8:Core/Src/esp32.c **** bool Wifi_SendRaw(uint8_t *data, uint16_t len)
   9:Core/Src/esp32.c **** {
  30              		.loc 1 9 1 view -0
  31              		.cfi_startproc
  32              		@ args = 0, pretend = 0, frame = 0
  33              		@ frame_needed = 0, uses_anonymous_args = 0
  10:Core/Src/esp32.c ****     if (len <= _WIFI_TX_SIZE)
  34              		.loc 1 10 5 view .LVU1
  35              		.loc 1 10 8 is_stmt 0 view .LVU2
  36 0000 B1F5806F 		cmp	r1, #1024
  37 0004 01D9     		bls	.L8
  11:Core/Src/esp32.c ****     {
  12:Core/Src/esp32.c ****         // Send the information in data through the UART of the ESP8266
  13:Core/Src/esp32.c ****         memcpy(Wifi.TxBuffer, data, len);
  14:Core/Src/esp32.c ****         usart1TransmitDma(data, len);
  15:Core/Src/esp32.c ****         return true;
  16:Core/Src/esp32.c ****         // if(HAL_UART_Transmit(&_WIFI_USART,data,len,900) == HAL_OK)
  17:Core/Src/esp32.c ****         // 	return true;
  18:Core/Src/esp32.c ****         // else
  19:Core/Src/esp32.c ****         // 	return false;
  20:Core/Src/esp32.c ****     }
  21:Core/Src/esp32.c ****     else
ARM GAS  /var/folders/9y/n02fl3g16gnf7ppy14xghdy80000gn/T//ccoB4Sfq.s 			page 2


  22:Core/Src/esp32.c ****         return false;
  38              		.loc 1 22 16 view .LVU3
  39 0006 0020     		movs	r0, #0
  40              	.LVL1:
  23:Core/Src/esp32.c **** }
  41              		.loc 1 23 1 view .LVU4
  42 0008 7047     		bx	lr
  43              	.LVL2:
  44              	.L8:
   9:Core/Src/esp32.c ****     if (len <= _WIFI_TX_SIZE)
  45              		.loc 1 9 1 view .LVU5
  46 000a 38B5     		push	{r3, r4, r5, lr}
  47              		.cfi_def_cfa_offset 16
  48              		.cfi_offset 3, -16
  49              		.cfi_offset 4, -12
  50              		.cfi_offset 5, -8
  51              		.cfi_offset 14, -4
  52 000c 0546     		mov	r5, r0
  53 000e 0C46     		mov	r4, r1
  13:Core/Src/esp32.c ****         usart1TransmitDma(data, len);
  54              		.loc 1 13 9 is_stmt 1 view .LVU6
  55 0010 0A46     		mov	r2, r1
  56 0012 0146     		mov	r1, r0
  57              	.LVL3:
  13:Core/Src/esp32.c ****         usart1TransmitDma(data, len);
  58              		.loc 1 13 9 is_stmt 0 view .LVU7
  59 0014 0448     		ldr	r0, .L9
  60              	.LVL4:
  13:Core/Src/esp32.c ****         usart1TransmitDma(data, len);
  61              		.loc 1 13 9 view .LVU8
  62 0016 FFF7FEFF 		bl	memcpy
  63              	.LVL5:
  14:Core/Src/esp32.c ****         return true;
  64              		.loc 1 14 9 is_stmt 1 view .LVU9
  65 001a 2146     		mov	r1, r4
  66 001c 2846     		mov	r0, r5
  67 001e FFF7FEFF 		bl	usart1TransmitDma
  68              	.LVL6:
  15:Core/Src/esp32.c ****         // if(HAL_UART_Transmit(&_WIFI_USART,data,len,900) == HAL_OK)
  69              		.loc 1 15 9 view .LVU10
  15:Core/Src/esp32.c ****         // if(HAL_UART_Transmit(&_WIFI_USART,data,len,900) == HAL_OK)
  70              		.loc 1 15 16 is_stmt 0 view .LVU11
  71 0022 0120     		movs	r0, #1
  72              		.loc 1 23 1 view .LVU12
  73 0024 38BD     		pop	{r3, r4, r5, pc}
  74              	.LVL7:
  75              	.L10:
  76              		.loc 1 23 1 view .LVU13
  77 0026 00BF     		.align	2
  78              	.L9:
  79 0028 01020000 		.word	.LANCHOR0+513
  80              		.cfi_endproc
  81              	.LFE1155:
  83              		.section	.text.Wifi_SendString,"ax",%progbits
  84              		.align	1
  85              		.global	Wifi_SendString
  86              		.syntax unified
ARM GAS  /var/folders/9y/n02fl3g16gnf7ppy14xghdy80000gn/T//ccoB4Sfq.s 			page 3


  87              		.thumb
  88              		.thumb_func
  89              		.fpu fpv4-sp-d16
  91              	Wifi_SendString:
  92              	.LVL8:
  93              	.LFB1156:
  24:Core/Src/esp32.c **** // ################################################################################################
  25:Core/Src/esp32.c **** bool Wifi_SendString(char *data)
  26:Core/Src/esp32.c **** {
  94              		.loc 1 26 1 is_stmt 1 view -0
  95              		.cfi_startproc
  96              		@ args = 0, pretend = 0, frame = 0
  97              		@ frame_needed = 0, uses_anonymous_args = 0
  98              		.loc 1 26 1 is_stmt 0 view .LVU15
  99 0000 10B5     		push	{r4, lr}
 100              		.cfi_def_cfa_offset 8
 101              		.cfi_offset 4, -8
 102              		.cfi_offset 14, -4
 103 0002 0446     		mov	r4, r0
  27:Core/Src/esp32.c ****     return Wifi_SendRaw((uint8_t *)data, strlen(data));
 104              		.loc 1 27 5 is_stmt 1 view .LVU16
 105              		.loc 1 27 42 is_stmt 0 view .LVU17
 106 0004 FFF7FEFF 		bl	strlen
 107              	.LVL9:
 108              		.loc 1 27 12 view .LVU18
 109 0008 81B2     		uxth	r1, r0
 110 000a 2046     		mov	r0, r4
 111 000c FFF7FEFF 		bl	Wifi_SendRaw
 112              	.LVL10:
  28:Core/Src/esp32.c **** }
 113              		.loc 1 28 1 view .LVU19
 114 0010 10BD     		pop	{r4, pc}
 115              		.loc 1 28 1 view .LVU20
 116              		.cfi_endproc
 117              	.LFE1156:
 119              		.section	.text.Wifi_SendStringAndWait,"ax",%progbits
 120              		.align	1
 121              		.global	Wifi_SendStringAndWait
 122              		.syntax unified
 123              		.thumb
 124              		.thumb_func
 125              		.fpu fpv4-sp-d16
 127              	Wifi_SendStringAndWait:
 128              	.LVL11:
 129              	.LFB1157:
  29:Core/Src/esp32.c **** // ################################################################################################
  30:Core/Src/esp32.c **** bool Wifi_SendStringAndWait(char *data, uint16_t DelayUs)
  31:Core/Src/esp32.c **** {
 130              		.loc 1 31 1 is_stmt 1 view -0
 131              		.cfi_startproc
 132              		@ args = 0, pretend = 0, frame = 0
 133              		@ frame_needed = 0, uses_anonymous_args = 0
 134              		.loc 1 31 1 is_stmt 0 view .LVU22
 135 0000 38B5     		push	{r3, r4, r5, lr}
 136              		.cfi_def_cfa_offset 16
 137              		.cfi_offset 3, -16
 138              		.cfi_offset 4, -12
ARM GAS  /var/folders/9y/n02fl3g16gnf7ppy14xghdy80000gn/T//ccoB4Sfq.s 			page 4


 139              		.cfi_offset 5, -8
 140              		.cfi_offset 14, -4
 141 0002 0446     		mov	r4, r0
 142 0004 0D46     		mov	r5, r1
  32:Core/Src/esp32.c ****     if (Wifi_SendRaw((uint8_t *)data, strlen(data)) == false)
 143              		.loc 1 32 5 is_stmt 1 view .LVU23
 144              		.loc 1 32 39 is_stmt 0 view .LVU24
 145 0006 FFF7FEFF 		bl	strlen
 146              	.LVL12:
 147              		.loc 1 32 9 view .LVU25
 148 000a 81B2     		uxth	r1, r0
 149 000c 2046     		mov	r0, r4
 150 000e FFF7FEFF 		bl	Wifi_SendRaw
 151              	.LVL13:
 152              		.loc 1 32 8 view .LVU26
 153 0012 0446     		mov	r4, r0
 154              	.LVL14:
 155              		.loc 1 32 8 view .LVU27
 156 0014 08B9     		cbnz	r0, .L16
 157              	.L14:
  33:Core/Src/esp32.c ****         return false;
  34:Core/Src/esp32.c ****     delayMicroseconds(DelayUs);
  35:Core/Src/esp32.c ****     return true;
  36:Core/Src/esp32.c **** }
 158              		.loc 1 36 1 view .LVU28
 159 0016 2046     		mov	r0, r4
 160 0018 38BD     		pop	{r3, r4, r5, pc}
 161              	.L16:
  34:Core/Src/esp32.c ****     return true;
 162              		.loc 1 34 5 is_stmt 1 view .LVU29
 163 001a 2846     		mov	r0, r5
 164 001c FFF7FEFF 		bl	delayMicroseconds
 165              	.LVL15:
  35:Core/Src/esp32.c **** }
 166              		.loc 1 35 5 view .LVU30
  35:Core/Src/esp32.c **** }
 167              		.loc 1 35 12 is_stmt 0 view .LVU31
 168 0020 F9E7     		b	.L14
 169              		.cfi_endproc
 170              	.LFE1157:
 172              		.section	.text.Wifi_WaitForString,"ax",%progbits
 173              		.align	1
 174              		.global	Wifi_WaitForString
 175              		.syntax unified
 176              		.thumb
 177              		.thumb_func
 178              		.fpu fpv4-sp-d16
 180              	Wifi_WaitForString:
 181              	.LVL16:
 182              	.LFB1158:
  37:Core/Src/esp32.c **** // ################################################################################################
  38:Core/Src/esp32.c **** bool Wifi_WaitForString(uint32_t TimeOut_ms, uint8_t *result, uint8_t CountOfParameter, ...)
  39:Core/Src/esp32.c **** {
 183              		.loc 1 39 1 is_stmt 1 view -0
 184              		.cfi_startproc
 185              		@ args = 4, pretend = 8, frame = 8
 186              		@ frame_needed = 1, uses_anonymous_args = 1
ARM GAS  /var/folders/9y/n02fl3g16gnf7ppy14xghdy80000gn/T//ccoB4Sfq.s 			page 5


 187              		.loc 1 39 1 is_stmt 0 view .LVU33
 188 0000 0CB4     		push	{r2, r3}
 189              		.cfi_def_cfa_offset 8
 190              		.cfi_offset 2, -8
 191              		.cfi_offset 3, -4
 192 0002 2DE9F047 		push	{r4, r5, r6, r7, r8, r9, r10, lr}
 193              		.cfi_def_cfa_offset 40
 194              		.cfi_offset 4, -40
 195              		.cfi_offset 5, -36
 196              		.cfi_offset 6, -32
 197              		.cfi_offset 7, -28
 198              		.cfi_offset 8, -24
 199              		.cfi_offset 9, -20
 200              		.cfi_offset 10, -16
 201              		.cfi_offset 14, -12
 202 0006 82B0     		sub	sp, sp, #8
 203              		.cfi_def_cfa_offset 48
 204 0008 00AF     		add	r7, sp, #0
 205              		.cfi_def_cfa_register 7
 206 000a 97F82850 		ldrb	r5, [r7, #40]	@ zero_extendqisi2
  40:Core/Src/esp32.c ****     /*
  41:Core/Src/esp32.c ****      * It uses the CountOfParameter and the Parameters after that to compare with the
  42:Core/Src/esp32.c ****      * information that it was received in the UART RX. If the parameter is in the
  43:Core/Src/esp32.c ****      * received string the functions return a true value and the position of the
  44:Core/Src/esp32.c ****      * parameter (according to the position in the function)
  45:Core/Src/esp32.c ****      *
  46:Core/Src/esp32.c ****      * Ex:
  47:Core/Src/esp32.c ****      * Wifi_WaitForString(_WIFI_WAIT_TIME_LOW,&result,2,"OK","ERROR")
  48:Core/Src/esp32.c ****      *
  49:Core/Src/esp32.c ****      * If the ESP8266 return a AT+OK after the last command, the function is going to
  50:Core/Src/esp32.c ****      * return a true value and the result number would be 1.
  51:Core/Src/esp32.c ****      */
  52:Core/Src/esp32.c **** 
  53:Core/Src/esp32.c ****     if (result == NULL)
 207              		.loc 1 53 5 is_stmt 1 view .LVU34
 208              		.loc 1 53 8 is_stmt 0 view .LVU35
 209 000e 0029     		cmp	r1, #0
 210 0010 3ED0     		beq	.L26
 211 0012 8146     		mov	r9, r0
 212 0014 8846     		mov	r8, r1
  54:Core/Src/esp32.c ****         return false;
  55:Core/Src/esp32.c ****     if (CountOfParameter == 0)
 213              		.loc 1 55 5 is_stmt 1 view .LVU36
 214              		.loc 1 55 8 is_stmt 0 view .LVU37
 215 0016 35B9     		cbnz	r5, .L29
  56:Core/Src/esp32.c ****         return false;
 216              		.loc 1 56 16 view .LVU38
 217 0018 0020     		movs	r0, #0
 218              	.LVL17:
 219              	.L18:
  57:Core/Src/esp32.c **** 
  58:Core/Src/esp32.c ****     *result = 0;
  59:Core/Src/esp32.c **** 
  60:Core/Src/esp32.c ****     va_list tag;
  61:Core/Src/esp32.c ****     va_start(tag, CountOfParameter);
  62:Core/Src/esp32.c ****     char *arg[CountOfParameter];
  63:Core/Src/esp32.c ****     for (uint8_t i = 0; i < CountOfParameter; i++)
ARM GAS  /var/folders/9y/n02fl3g16gnf7ppy14xghdy80000gn/T//ccoB4Sfq.s 			page 6


  64:Core/Src/esp32.c ****         arg[i] = va_arg(tag, char *);
  65:Core/Src/esp32.c ****     va_end(tag);
  66:Core/Src/esp32.c **** 
  67:Core/Src/esp32.c ****     for (uint32_t t = 0; t < TimeOut_ms; t += 20)
  68:Core/Src/esp32.c ****     {
  69:Core/Src/esp32.c ****         delayMicroseconds(20000);
  70:Core/Src/esp32.c ****         for (uint8_t mx = 0; mx < CountOfParameter; mx++)
  71:Core/Src/esp32.c ****         {
  72:Core/Src/esp32.c ****             if (strstr((char *)Wifi.RxBuffer, arg[mx]) != NULL)
  73:Core/Src/esp32.c ****             {
  74:Core/Src/esp32.c ****                 *result = mx + 1;
  75:Core/Src/esp32.c ****                 return true;
  76:Core/Src/esp32.c ****             }
  77:Core/Src/esp32.c ****         }
  78:Core/Src/esp32.c ****     }
  79:Core/Src/esp32.c ****     // timeout
  80:Core/Src/esp32.c ****     return false;
  81:Core/Src/esp32.c **** }
 220              		.loc 1 81 1 view .LVU39
 221 001a 0837     		adds	r7, r7, #8
 222              		.cfi_remember_state
 223              		.cfi_def_cfa_offset 40
 224 001c BD46     		mov	sp, r7
 225              		.cfi_def_cfa_register 13
 226              		@ sp needed
 227 001e BDE8F047 		pop	{r4, r5, r6, r7, r8, r9, r10, lr}
 228              		.cfi_restore 14
 229              		.cfi_restore 10
 230              		.cfi_restore 9
 231              		.cfi_restore 8
 232              		.cfi_restore 7
 233              		.cfi_restore 6
 234              		.cfi_restore 5
 235              		.cfi_restore 4
 236              		.cfi_def_cfa_offset 8
 237 0022 02B0     		add	sp, sp, #8
 238              		.cfi_restore 3
 239              		.cfi_restore 2
 240              		.cfi_def_cfa_offset 0
 241 0024 7047     		bx	lr
 242              	.LVL18:
 243              	.L29:
 244              		.cfi_restore_state
  58:Core/Src/esp32.c **** 
 245              		.loc 1 58 5 is_stmt 1 view .LVU40
  58:Core/Src/esp32.c **** 
 246              		.loc 1 58 13 is_stmt 0 view .LVU41
 247 0026 0023     		movs	r3, #0
 248 0028 0B70     		strb	r3, [r1]
  60:Core/Src/esp32.c ****     va_start(tag, CountOfParameter);
 249              		.loc 1 60 5 is_stmt 1 view .LVU42
  61:Core/Src/esp32.c ****     char *arg[CountOfParameter];
 250              		.loc 1 61 5 view .LVU43
 251 002a 07F12C02 		add	r2, r7, #44
 252 002e 7A60     		str	r2, [r7, #4]
  62:Core/Src/esp32.c ****     for (uint8_t i = 0; i < CountOfParameter; i++)
 253              		.loc 1 62 5 view .LVU44
ARM GAS  /var/folders/9y/n02fl3g16gnf7ppy14xghdy80000gn/T//ccoB4Sfq.s 			page 7


 254              	.LVL19:
  62:Core/Src/esp32.c ****     for (uint8_t i = 0; i < CountOfParameter; i++)
 255              		.loc 1 62 11 is_stmt 0 view .LVU45
 256 0030 AA00     		lsls	r2, r5, #2
 257 0032 0732     		adds	r2, r2, #7
 258 0034 02F4FF62 		and	r2, r2, #2040
 259 0038 ADEB020D 		sub	sp, sp, r2
 260 003c 6E46     		mov	r6, sp
 261              	.LVL20:
  63:Core/Src/esp32.c ****         arg[i] = va_arg(tag, char *);
 262              		.loc 1 63 5 is_stmt 1 view .LVU46
 263              	.LBB2:
  63:Core/Src/esp32.c ****         arg[i] = va_arg(tag, char *);
 264              		.loc 1 63 10 view .LVU47
 265              	.L19:
  63:Core/Src/esp32.c ****         arg[i] = va_arg(tag, char *);
 266              		.loc 1 63 25 discriminator 1 view .LVU48
  63:Core/Src/esp32.c ****         arg[i] = va_arg(tag, char *);
 267              		.loc 1 63 5 is_stmt 0 discriminator 1 view .LVU49
 268 003e AB42     		cmp	r3, r5
 269 0040 08D2     		bcs	.L30
  64:Core/Src/esp32.c ****     va_end(tag);
 270              		.loc 1 64 9 is_stmt 1 discriminator 3 view .LVU50
  64:Core/Src/esp32.c ****     va_end(tag);
 271              		.loc 1 64 18 is_stmt 0 discriminator 3 view .LVU51
 272 0042 7A68     		ldr	r2, [r7, #4]
 273 0044 111D     		adds	r1, r2, #4
 274 0046 7960     		str	r1, [r7, #4]
 275 0048 1268     		ldr	r2, [r2]
  64:Core/Src/esp32.c ****     va_end(tag);
 276              		.loc 1 64 16 discriminator 3 view .LVU52
 277 004a 46F82320 		str	r2, [r6, r3, lsl #2]
  63:Core/Src/esp32.c ****         arg[i] = va_arg(tag, char *);
 278              		.loc 1 63 47 is_stmt 1 discriminator 3 view .LVU53
  63:Core/Src/esp32.c ****         arg[i] = va_arg(tag, char *);
 279              		.loc 1 63 48 is_stmt 0 discriminator 3 view .LVU54
 280 004e 0133     		adds	r3, r3, #1
 281              	.LVL21:
  63:Core/Src/esp32.c ****         arg[i] = va_arg(tag, char *);
 282              		.loc 1 63 48 discriminator 3 view .LVU55
 283 0050 DBB2     		uxtb	r3, r3
 284              	.LVL22:
  63:Core/Src/esp32.c ****         arg[i] = va_arg(tag, char *);
 285              		.loc 1 63 48 discriminator 3 view .LVU56
 286 0052 F4E7     		b	.L19
 287              	.L30:
  63:Core/Src/esp32.c ****         arg[i] = va_arg(tag, char *);
 288              		.loc 1 63 48 discriminator 3 view .LVU57
 289              	.LBE2:
 290              	.LBB3:
  67:Core/Src/esp32.c ****     {
 291              		.loc 1 67 19 view .LVU58
 292 0054 4FF0000A 		mov	r10, #0
 293              	.LVL23:
 294              	.L21:
  67:Core/Src/esp32.c ****     {
 295              		.loc 1 67 26 is_stmt 1 discriminator 1 view .LVU59
ARM GAS  /var/folders/9y/n02fl3g16gnf7ppy14xghdy80000gn/T//ccoB4Sfq.s 			page 8


  67:Core/Src/esp32.c ****     {
 296              		.loc 1 67 5 is_stmt 0 discriminator 1 view .LVU60
 297 0058 CA45     		cmp	r10, r9
 298 005a 17D2     		bcs	.L31
  69:Core/Src/esp32.c ****         for (uint8_t mx = 0; mx < CountOfParameter; mx++)
 299              		.loc 1 69 9 is_stmt 1 view .LVU61
 300 005c 44F62060 		movw	r0, #20000
 301 0060 FFF7FEFF 		bl	delayMicroseconds
 302              	.LVL24:
  70:Core/Src/esp32.c ****         {
 303              		.loc 1 70 9 view .LVU62
 304              	.LBB4:
  70:Core/Src/esp32.c ****         {
 305              		.loc 1 70 14 view .LVU63
  70:Core/Src/esp32.c ****         {
 306              		.loc 1 70 22 is_stmt 0 view .LVU64
 307 0064 0024     		movs	r4, #0
 308              	.LVL25:
 309              	.L22:
  70:Core/Src/esp32.c ****         {
 310              		.loc 1 70 30 is_stmt 1 discriminator 1 view .LVU65
  70:Core/Src/esp32.c ****         {
 311              		.loc 1 70 9 is_stmt 0 discriminator 1 view .LVU66
 312 0066 AC42     		cmp	r4, r5
 313 0068 0DD2     		bcs	.L32
  72:Core/Src/esp32.c ****             {
 314              		.loc 1 72 13 is_stmt 1 view .LVU67
  72:Core/Src/esp32.c ****             {
 315              		.loc 1 72 17 is_stmt 0 view .LVU68
 316 006a 56F82410 		ldr	r1, [r6, r4, lsl #2]
 317 006e 0948     		ldr	r0, .L34
 318 0070 FFF7FEFF 		bl	strstr
 319              	.LVL26:
  72:Core/Src/esp32.c ****             {
 320              		.loc 1 72 16 view .LVU69
 321 0074 10B9     		cbnz	r0, .L33
  70:Core/Src/esp32.c ****         {
 322              		.loc 1 70 53 is_stmt 1 discriminator 2 view .LVU70
  70:Core/Src/esp32.c ****         {
 323              		.loc 1 70 55 is_stmt 0 discriminator 2 view .LVU71
 324 0076 0134     		adds	r4, r4, #1
 325              	.LVL27:
  70:Core/Src/esp32.c ****         {
 326              		.loc 1 70 55 discriminator 2 view .LVU72
 327 0078 E4B2     		uxtb	r4, r4
 328              	.LVL28:
  70:Core/Src/esp32.c ****         {
 329              		.loc 1 70 55 discriminator 2 view .LVU73
 330 007a F4E7     		b	.L22
 331              	.L33:
  74:Core/Src/esp32.c ****                 return true;
 332              		.loc 1 74 17 is_stmt 1 view .LVU74
  74:Core/Src/esp32.c ****                 return true;
 333              		.loc 1 74 30 is_stmt 0 view .LVU75
 334 007c 0134     		adds	r4, r4, #1
 335              	.LVL29:
  74:Core/Src/esp32.c ****                 return true;
ARM GAS  /var/folders/9y/n02fl3g16gnf7ppy14xghdy80000gn/T//ccoB4Sfq.s 			page 9


 336              		.loc 1 74 25 view .LVU76
 337 007e 88F80040 		strb	r4, [r8]
  75:Core/Src/esp32.c ****             }
 338              		.loc 1 75 17 is_stmt 1 view .LVU77
  75:Core/Src/esp32.c ****             }
 339              		.loc 1 75 24 is_stmt 0 view .LVU78
 340 0082 0120     		movs	r0, #1
 341 0084 C9E7     		b	.L18
 342              	.LVL30:
 343              	.L32:
  75:Core/Src/esp32.c ****             }
 344              		.loc 1 75 24 view .LVU79
 345              	.LBE4:
  67:Core/Src/esp32.c ****     {
 346              		.loc 1 67 42 is_stmt 1 discriminator 2 view .LVU80
  67:Core/Src/esp32.c ****     {
 347              		.loc 1 67 44 is_stmt 0 discriminator 2 view .LVU81
 348 0086 0AF1140A 		add	r10, r10, #20
 349              	.LVL31:
  67:Core/Src/esp32.c ****     {
 350              		.loc 1 67 44 discriminator 2 view .LVU82
 351 008a E5E7     		b	.L21
 352              	.LVL32:
 353              	.L31:
  67:Core/Src/esp32.c ****     {
 354              		.loc 1 67 44 discriminator 2 view .LVU83
 355              	.LBE3:
  80:Core/Src/esp32.c **** }
 356              		.loc 1 80 12 view .LVU84
 357 008c 0020     		movs	r0, #0
 358              	.LBB5:
 359 008e C4E7     		b	.L18
 360              	.LVL33:
 361              	.L26:
  80:Core/Src/esp32.c **** }
 362              		.loc 1 80 12 view .LVU85
 363              	.LBE5:
  54:Core/Src/esp32.c ****     if (CountOfParameter == 0)
 364              		.loc 1 54 16 view .LVU86
 365 0090 0020     		movs	r0, #0
 366              	.LVL34:
  54:Core/Src/esp32.c ****     if (CountOfParameter == 0)
 367              		.loc 1 54 16 view .LVU87
 368 0092 C2E7     		b	.L18
 369              	.L35:
 370              		.align	2
 371              	.L34:
 372 0094 01000000 		.word	.LANCHOR0+1
 373              		.cfi_endproc
 374              	.LFE1158:
 376              		.section	.text.Wifi_ReturnString,"ax",%progbits
 377              		.align	1
 378              		.global	Wifi_ReturnString
 379              		.syntax unified
 380              		.thumb
 381              		.thumb_func
 382              		.fpu fpv4-sp-d16
ARM GAS  /var/folders/9y/n02fl3g16gnf7ppy14xghdy80000gn/T//ccoB4Sfq.s 			page 10


 384              	Wifi_ReturnString:
 385              	.LVL35:
 386              	.LFB1159:
  82:Core/Src/esp32.c **** // ################################################################################################
  83:Core/Src/esp32.c **** bool Wifi_ReturnString(char *result, uint8_t WantWhichOne, char *SplitterChars)
  84:Core/Src/esp32.c **** {
 387              		.loc 1 84 1 is_stmt 1 view -0
 388              		.cfi_startproc
 389              		@ args = 0, pretend = 0, frame = 0
 390              		@ frame_needed = 0, uses_anonymous_args = 0
  85:Core/Src/esp32.c ****     if (result == NULL)
 391              		.loc 1 85 5 view .LVU89
 392              		.loc 1 85 8 is_stmt 0 view .LVU90
 393 0000 10B3     		cbz	r0, .L41
  84:Core/Src/esp32.c ****     if (result == NULL)
 394              		.loc 1 84 1 view .LVU91
 395 0002 70B5     		push	{r4, r5, r6, lr}
 396              		.cfi_def_cfa_offset 16
 397              		.cfi_offset 4, -16
 398              		.cfi_offset 5, -12
 399              		.cfi_offset 6, -8
 400              		.cfi_offset 14, -4
 401 0004 0C46     		mov	r4, r1
 402 0006 1546     		mov	r5, r2
 403 0008 0646     		mov	r6, r0
  86:Core/Src/esp32.c ****         return false;
  87:Core/Src/esp32.c ****     if (WantWhichOne == 0)
 404              		.loc 1 87 5 is_stmt 1 view .LVU92
 405              		.loc 1 87 8 is_stmt 0 view .LVU93
 406 000a 09B9     		cbnz	r1, .L47
  88:Core/Src/esp32.c ****         return false;
 407              		.loc 1 88 16 view .LVU94
 408 000c 0020     		movs	r0, #0
 409              	.LVL36:
 410              	.L37:
  89:Core/Src/esp32.c **** 
  90:Core/Src/esp32.c ****     char *str = (char *)Wifi.RxBuffer;
  91:Core/Src/esp32.c **** 
  92:Core/Src/esp32.c ****     str = strtok(str, SplitterChars);
  93:Core/Src/esp32.c ****     if (str == NULL)
  94:Core/Src/esp32.c ****     {
  95:Core/Src/esp32.c ****         strcpy(result, "");
  96:Core/Src/esp32.c ****         return false;
  97:Core/Src/esp32.c ****     }
  98:Core/Src/esp32.c ****     while (str != NULL)
  99:Core/Src/esp32.c ****     {
 100:Core/Src/esp32.c ****         str = strtok(NULL, SplitterChars);
 101:Core/Src/esp32.c ****         if (str != NULL)
 102:Core/Src/esp32.c ****             WantWhichOne--;
 103:Core/Src/esp32.c ****         if (WantWhichOne == 0)
 104:Core/Src/esp32.c ****         {
 105:Core/Src/esp32.c ****             strcpy(result, str);
 106:Core/Src/esp32.c ****             return true;
 107:Core/Src/esp32.c ****         }
 108:Core/Src/esp32.c ****     }
 109:Core/Src/esp32.c ****     strcpy(result, "");
 110:Core/Src/esp32.c ****     return false;
ARM GAS  /var/folders/9y/n02fl3g16gnf7ppy14xghdy80000gn/T//ccoB4Sfq.s 			page 11


 111:Core/Src/esp32.c **** }
 411              		.loc 1 111 1 view .LVU95
 412 000e 70BD     		pop	{r4, r5, r6, pc}
 413              	.LVL37:
 414              	.L47:
  90:Core/Src/esp32.c **** 
 415              		.loc 1 90 5 is_stmt 1 view .LVU96
  92:Core/Src/esp32.c ****     if (str == NULL)
 416              		.loc 1 92 5 view .LVU97
  92:Core/Src/esp32.c ****     if (str == NULL)
 417              		.loc 1 92 11 is_stmt 0 view .LVU98
 418 0010 1146     		mov	r1, r2
 419              	.LVL38:
  92:Core/Src/esp32.c ****     if (str == NULL)
 420              		.loc 1 92 11 view .LVU99
 421 0012 0E48     		ldr	r0, .L50
 422              	.LVL39:
  92:Core/Src/esp32.c ****     if (str == NULL)
 423              		.loc 1 92 11 view .LVU100
 424 0014 FFF7FEFF 		bl	strtok
 425              	.LVL40:
  93:Core/Src/esp32.c ****     {
 426              		.loc 1 93 5 is_stmt 1 view .LVU101
  93:Core/Src/esp32.c ****     {
 427              		.loc 1 93 8 is_stmt 0 view .LVU102
 428 0018 0146     		mov	r1, r0
 429 001a 10B9     		cbnz	r0, .L38
  95:Core/Src/esp32.c ****         return false;
 430              		.loc 1 95 9 is_stmt 1 view .LVU103
 431 001c 3070     		strb	r0, [r6]
  96:Core/Src/esp32.c ****     }
 432              		.loc 1 96 9 view .LVU104
  96:Core/Src/esp32.c ****     }
 433              		.loc 1 96 16 is_stmt 0 view .LVU105
 434 001e F6E7     		b	.L37
 435              	.LVL41:
 436              	.L39:
 103:Core/Src/esp32.c ****         {
 437              		.loc 1 103 9 is_stmt 1 view .LVU106
 103:Core/Src/esp32.c ****         {
 438              		.loc 1 103 12 is_stmt 0 view .LVU107
 439 0020 54B1     		cbz	r4, .L48
 440              	.LVL42:
 441              	.L38:
  98:Core/Src/esp32.c ****     {
 442              		.loc 1 98 11 is_stmt 1 view .LVU108
 443 0022 71B1     		cbz	r1, .L49
 100:Core/Src/esp32.c ****         if (str != NULL)
 444              		.loc 1 100 9 view .LVU109
 100:Core/Src/esp32.c ****         if (str != NULL)
 445              		.loc 1 100 15 is_stmt 0 view .LVU110
 446 0024 2946     		mov	r1, r5
 447 0026 0020     		movs	r0, #0
 448              	.LVL43:
 100:Core/Src/esp32.c ****         if (str != NULL)
 449              		.loc 1 100 15 view .LVU111
 450 0028 FFF7FEFF 		bl	strtok
ARM GAS  /var/folders/9y/n02fl3g16gnf7ppy14xghdy80000gn/T//ccoB4Sfq.s 			page 12


 451              	.LVL44:
 101:Core/Src/esp32.c ****             WantWhichOne--;
 452              		.loc 1 101 9 is_stmt 1 view .LVU112
 101:Core/Src/esp32.c ****             WantWhichOne--;
 453              		.loc 1 101 12 is_stmt 0 view .LVU113
 454 002c 0146     		mov	r1, r0
 455 002e 0028     		cmp	r0, #0
 456 0030 F6D0     		beq	.L39
 102:Core/Src/esp32.c ****         if (WantWhichOne == 0)
 457              		.loc 1 102 13 is_stmt 1 view .LVU114
 102:Core/Src/esp32.c ****         if (WantWhichOne == 0)
 458              		.loc 1 102 25 is_stmt 0 view .LVU115
 459 0032 013C     		subs	r4, r4, #1
 460              	.LVL45:
 102:Core/Src/esp32.c ****         if (WantWhichOne == 0)
 461              		.loc 1 102 25 view .LVU116
 462 0034 E4B2     		uxtb	r4, r4
 463              	.LVL46:
 102:Core/Src/esp32.c ****         if (WantWhichOne == 0)
 464              		.loc 1 102 25 view .LVU117
 465 0036 F3E7     		b	.L39
 466              	.L48:
 105:Core/Src/esp32.c ****             return true;
 467              		.loc 1 105 13 is_stmt 1 view .LVU118
 468 0038 3046     		mov	r0, r6
 469              	.LVL47:
 105:Core/Src/esp32.c ****             return true;
 470              		.loc 1 105 13 is_stmt 0 view .LVU119
 471 003a FFF7FEFF 		bl	strcpy
 472              	.LVL48:
 106:Core/Src/esp32.c ****         }
 473              		.loc 1 106 13 is_stmt 1 view .LVU120
 106:Core/Src/esp32.c ****         }
 474              		.loc 1 106 20 is_stmt 0 view .LVU121
 475 003e 0120     		movs	r0, #1
 476 0040 E5E7     		b	.L37
 477              	.LVL49:
 478              	.L49:
 109:Core/Src/esp32.c ****     return false;
 479              		.loc 1 109 5 is_stmt 1 view .LVU122
 480 0042 0020     		movs	r0, #0
 481              	.LVL50:
 109:Core/Src/esp32.c ****     return false;
 482              		.loc 1 109 5 is_stmt 0 view .LVU123
 483 0044 3070     		strb	r0, [r6]
 110:Core/Src/esp32.c **** }
 484              		.loc 1 110 5 is_stmt 1 view .LVU124
 110:Core/Src/esp32.c **** }
 485              		.loc 1 110 12 is_stmt 0 view .LVU125
 486 0046 E2E7     		b	.L37
 487              	.LVL51:
 488              	.L41:
 489              		.cfi_def_cfa_offset 0
 490              		.cfi_restore 4
 491              		.cfi_restore 5
 492              		.cfi_restore 6
 493              		.cfi_restore 14
ARM GAS  /var/folders/9y/n02fl3g16gnf7ppy14xghdy80000gn/T//ccoB4Sfq.s 			page 13


  86:Core/Src/esp32.c ****     if (WantWhichOne == 0)
 494              		.loc 1 86 16 view .LVU126
 495 0048 0020     		movs	r0, #0
 496              	.LVL52:
 497              		.loc 1 111 1 view .LVU127
 498 004a 7047     		bx	lr
 499              	.L51:
 500              		.align	2
 501              	.L50:
 502 004c 01000000 		.word	.LANCHOR0+1
 503              		.cfi_endproc
 504              	.LFE1159:
 506              		.section	.text.Wifi_ReturnStrings,"ax",%progbits
 507              		.align	1
 508              		.global	Wifi_ReturnStrings
 509              		.syntax unified
 510              		.thumb
 511              		.thumb_func
 512              		.fpu fpv4-sp-d16
 514              	Wifi_ReturnStrings:
 515              	.LVL53:
 516              	.LFB1160:
 112:Core/Src/esp32.c **** // ################################################################################################
 113:Core/Src/esp32.c **** bool Wifi_ReturnStrings(char *InputString, char *SplitterChars, uint8_t CountOfParameter, ...)
 114:Core/Src/esp32.c **** {
 517              		.loc 1 114 1 is_stmt 1 view -0
 518              		.cfi_startproc
 519              		@ args = 4, pretend = 8, frame = 8
 520              		@ frame_needed = 1, uses_anonymous_args = 1
 521              		.loc 1 114 1 is_stmt 0 view .LVU129
 522 0000 0CB4     		push	{r2, r3}
 523              		.cfi_def_cfa_offset 8
 524              		.cfi_offset 2, -8
 525              		.cfi_offset 3, -4
 526 0002 2DE9F043 		push	{r4, r5, r6, r7, r8, r9, lr}
 527              		.cfi_def_cfa_offset 36
 528              		.cfi_offset 4, -36
 529              		.cfi_offset 5, -32
 530              		.cfi_offset 6, -28
 531              		.cfi_offset 7, -24
 532              		.cfi_offset 8, -20
 533              		.cfi_offset 9, -16
 534              		.cfi_offset 14, -12
 535 0006 83B0     		sub	sp, sp, #12
 536              		.cfi_def_cfa_offset 48
 537 0008 00AF     		add	r7, sp, #0
 538              		.cfi_def_cfa_register 7
 539 000a 97F82840 		ldrb	r4, [r7, #40]	@ zero_extendqisi2
 115:Core/Src/esp32.c ****     if (CountOfParameter == 0)
 540              		.loc 1 115 5 is_stmt 1 view .LVU130
 541              		.loc 1 115 8 is_stmt 0 view .LVU131
 542 000e 34B9     		cbnz	r4, .L63
 116:Core/Src/esp32.c ****         return false;
 543              		.loc 1 116 16 view .LVU132
 544 0010 0020     		movs	r0, #0
 545              	.LVL54:
 546              	.L53:
ARM GAS  /var/folders/9y/n02fl3g16gnf7ppy14xghdy80000gn/T//ccoB4Sfq.s 			page 14


 117:Core/Src/esp32.c ****     va_list tag;
 118:Core/Src/esp32.c ****     va_start(tag, CountOfParameter);
 119:Core/Src/esp32.c ****     char *arg[CountOfParameter];
 120:Core/Src/esp32.c ****     for (uint8_t i = 0; i < CountOfParameter; i++)
 121:Core/Src/esp32.c ****         arg[i] = va_arg(tag, char *);
 122:Core/Src/esp32.c ****     va_end(tag);
 123:Core/Src/esp32.c **** 
 124:Core/Src/esp32.c ****     char *str;
 125:Core/Src/esp32.c ****     str = strtok(InputString, SplitterChars);
 126:Core/Src/esp32.c ****     if (str == NULL)
 127:Core/Src/esp32.c ****         return false;
 128:Core/Src/esp32.c ****     uint8_t i = 0;
 129:Core/Src/esp32.c ****     while (str != NULL)
 130:Core/Src/esp32.c ****     {
 131:Core/Src/esp32.c ****         str = strtok(NULL, SplitterChars);
 132:Core/Src/esp32.c ****         if (str != NULL)
 133:Core/Src/esp32.c ****             CountOfParameter--;
 134:Core/Src/esp32.c ****         strcpy(arg[i], str);
 135:Core/Src/esp32.c ****         i++;
 136:Core/Src/esp32.c ****         if (CountOfParameter == 0)
 137:Core/Src/esp32.c ****         {
 138:Core/Src/esp32.c ****             return true;
 139:Core/Src/esp32.c ****         }
 140:Core/Src/esp32.c ****     }
 141:Core/Src/esp32.c ****     return false;
 142:Core/Src/esp32.c **** }
 547              		.loc 1 142 1 view .LVU133
 548 0012 0C37     		adds	r7, r7, #12
 549              		.cfi_remember_state
 550              		.cfi_def_cfa_offset 36
 551 0014 BD46     		mov	sp, r7
 552              		.cfi_def_cfa_register 13
 553              		@ sp needed
 554 0016 BDE8F043 		pop	{r4, r5, r6, r7, r8, r9, lr}
 555              		.cfi_restore 14
 556              		.cfi_restore 9
 557              		.cfi_restore 8
 558              		.cfi_restore 7
 559              		.cfi_restore 6
 560              		.cfi_restore 5
 561              		.cfi_restore 4
 562              		.cfi_def_cfa_offset 8
 563 001a 02B0     		add	sp, sp, #8
 564              		.cfi_restore 3
 565              		.cfi_restore 2
 566              		.cfi_def_cfa_offset 0
 567 001c 7047     		bx	lr
 568              	.LVL55:
 569              	.L63:
 570              		.cfi_restore_state
 571              		.loc 1 142 1 view .LVU134
 572 001e 8846     		mov	r8, r1
 117:Core/Src/esp32.c ****     va_list tag;
 573              		.loc 1 117 5 is_stmt 1 view .LVU135
 118:Core/Src/esp32.c ****     char *arg[CountOfParameter];
 574              		.loc 1 118 5 view .LVU136
 575 0020 07F12C03 		add	r3, r7, #44
ARM GAS  /var/folders/9y/n02fl3g16gnf7ppy14xghdy80000gn/T//ccoB4Sfq.s 			page 15


 576 0024 7B60     		str	r3, [r7, #4]
 119:Core/Src/esp32.c ****     for (uint8_t i = 0; i < CountOfParameter; i++)
 577              		.loc 1 119 5 view .LVU137
 578              	.LVL56:
 119:Core/Src/esp32.c ****     for (uint8_t i = 0; i < CountOfParameter; i++)
 579              		.loc 1 119 11 is_stmt 0 view .LVU138
 580 0026 A300     		lsls	r3, r4, #2
 581 0028 0733     		adds	r3, r3, #7
 582 002a 03F4FF63 		and	r3, r3, #2040
 583 002e ADEB030D 		sub	sp, sp, r3
 584 0032 6E46     		mov	r6, sp
 585              	.LVL57:
 120:Core/Src/esp32.c ****         arg[i] = va_arg(tag, char *);
 586              		.loc 1 120 5 is_stmt 1 view .LVU139
 587              	.LBB6:
 120:Core/Src/esp32.c ****         arg[i] = va_arg(tag, char *);
 588              		.loc 1 120 10 view .LVU140
 120:Core/Src/esp32.c ****         arg[i] = va_arg(tag, char *);
 589              		.loc 1 120 18 is_stmt 0 view .LVU141
 590 0034 0023     		movs	r3, #0
 120:Core/Src/esp32.c ****         arg[i] = va_arg(tag, char *);
 591              		.loc 1 120 5 view .LVU142
 592 0036 07E0     		b	.L54
 593              	.LVL58:
 594              	.L55:
 121:Core/Src/esp32.c ****     va_end(tag);
 595              		.loc 1 121 9 is_stmt 1 discriminator 3 view .LVU143
 121:Core/Src/esp32.c ****     va_end(tag);
 596              		.loc 1 121 18 is_stmt 0 discriminator 3 view .LVU144
 597 0038 7A68     		ldr	r2, [r7, #4]
 598 003a 111D     		adds	r1, r2, #4
 599 003c 7960     		str	r1, [r7, #4]
 600 003e 1268     		ldr	r2, [r2]
 121:Core/Src/esp32.c ****     va_end(tag);
 601              		.loc 1 121 16 discriminator 3 view .LVU145
 602 0040 46F82320 		str	r2, [r6, r3, lsl #2]
 120:Core/Src/esp32.c ****         arg[i] = va_arg(tag, char *);
 603              		.loc 1 120 47 is_stmt 1 discriminator 3 view .LVU146
 120:Core/Src/esp32.c ****         arg[i] = va_arg(tag, char *);
 604              		.loc 1 120 48 is_stmt 0 discriminator 3 view .LVU147
 605 0044 0133     		adds	r3, r3, #1
 606              	.LVL59:
 120:Core/Src/esp32.c ****         arg[i] = va_arg(tag, char *);
 607              		.loc 1 120 48 discriminator 3 view .LVU148
 608 0046 DBB2     		uxtb	r3, r3
 609              	.LVL60:
 610              	.L54:
 120:Core/Src/esp32.c ****         arg[i] = va_arg(tag, char *);
 611              		.loc 1 120 25 is_stmt 1 discriminator 1 view .LVU149
 120:Core/Src/esp32.c ****         arg[i] = va_arg(tag, char *);
 612              		.loc 1 120 5 is_stmt 0 discriminator 1 view .LVU150
 613 0048 A342     		cmp	r3, r4
 614 004a F5D3     		bcc	.L55
 615              	.LBE6:
 122:Core/Src/esp32.c **** 
 616              		.loc 1 122 5 is_stmt 1 view .LVU151
 124:Core/Src/esp32.c ****     str = strtok(InputString, SplitterChars);
ARM GAS  /var/folders/9y/n02fl3g16gnf7ppy14xghdy80000gn/T//ccoB4Sfq.s 			page 16


 617              		.loc 1 124 5 view .LVU152
 125:Core/Src/esp32.c ****     if (str == NULL)
 618              		.loc 1 125 5 view .LVU153
 125:Core/Src/esp32.c ****     if (str == NULL)
 619              		.loc 1 125 11 is_stmt 0 view .LVU154
 620 004c 4146     		mov	r1, r8
 621 004e FFF7FEFF 		bl	strtok
 622              	.LVL61:
 126:Core/Src/esp32.c ****         return false;
 623              		.loc 1 126 5 is_stmt 1 view .LVU155
 126:Core/Src/esp32.c ****         return false;
 624              		.loc 1 126 8 is_stmt 0 view .LVU156
 625 0052 8146     		mov	r9, r0
 626 0054 C0B1     		cbz	r0, .L60
 128:Core/Src/esp32.c ****     while (str != NULL)
 627              		.loc 1 128 13 view .LVU157
 628 0056 0025     		movs	r5, #0
 629 0058 07E0     		b	.L56
 630              	.LVL62:
 631              	.L57:
 134:Core/Src/esp32.c ****         i++;
 632              		.loc 1 134 9 is_stmt 1 view .LVU158
 633 005a 4946     		mov	r1, r9
 634 005c 56F82500 		ldr	r0, [r6, r5, lsl #2]
 635              	.LVL63:
 134:Core/Src/esp32.c ****         i++;
 636              		.loc 1 134 9 is_stmt 0 view .LVU159
 637 0060 FFF7FEFF 		bl	strcpy
 638              	.LVL64:
 135:Core/Src/esp32.c ****         if (CountOfParameter == 0)
 639              		.loc 1 135 9 is_stmt 1 view .LVU160
 135:Core/Src/esp32.c ****         if (CountOfParameter == 0)
 640              		.loc 1 135 10 is_stmt 0 view .LVU161
 641 0064 0135     		adds	r5, r5, #1
 642              	.LVL65:
 135:Core/Src/esp32.c ****         if (CountOfParameter == 0)
 643              		.loc 1 135 10 view .LVU162
 644 0066 EDB2     		uxtb	r5, r5
 645              	.LVL66:
 136:Core/Src/esp32.c ****         {
 646              		.loc 1 136 9 is_stmt 1 view .LVU163
 136:Core/Src/esp32.c ****         {
 647              		.loc 1 136 12 is_stmt 0 view .LVU164
 648 0068 84B1     		cbz	r4, .L61
 649              	.LVL67:
 650              	.L56:
 129:Core/Src/esp32.c ****     {
 651              		.loc 1 129 11 is_stmt 1 view .LVU165
 652 006a B9F1000F 		cmp	r9, #0
 653 006e 09D0     		beq	.L64
 131:Core/Src/esp32.c ****         if (str != NULL)
 654              		.loc 1 131 9 view .LVU166
 131:Core/Src/esp32.c ****         if (str != NULL)
 655              		.loc 1 131 15 is_stmt 0 view .LVU167
 656 0070 4146     		mov	r1, r8
 657 0072 0020     		movs	r0, #0
 658 0074 FFF7FEFF 		bl	strtok
ARM GAS  /var/folders/9y/n02fl3g16gnf7ppy14xghdy80000gn/T//ccoB4Sfq.s 			page 17


 659              	.LVL68:
 132:Core/Src/esp32.c ****             CountOfParameter--;
 660              		.loc 1 132 9 is_stmt 1 view .LVU168
 132:Core/Src/esp32.c ****             CountOfParameter--;
 661              		.loc 1 132 12 is_stmt 0 view .LVU169
 662 0078 8146     		mov	r9, r0
 663 007a 0028     		cmp	r0, #0
 664 007c EDD0     		beq	.L57
 133:Core/Src/esp32.c ****         strcpy(arg[i], str);
 665              		.loc 1 133 13 is_stmt 1 view .LVU170
 133:Core/Src/esp32.c ****         strcpy(arg[i], str);
 666              		.loc 1 133 29 is_stmt 0 view .LVU171
 667 007e 013C     		subs	r4, r4, #1
 668              	.LVL69:
 133:Core/Src/esp32.c ****         strcpy(arg[i], str);
 669              		.loc 1 133 29 view .LVU172
 670 0080 E4B2     		uxtb	r4, r4
 671              	.LVL70:
 133:Core/Src/esp32.c ****         strcpy(arg[i], str);
 672              		.loc 1 133 29 view .LVU173
 673 0082 EAE7     		b	.L57
 674              	.LVL71:
 675              	.L64:
 141:Core/Src/esp32.c **** }
 676              		.loc 1 141 12 view .LVU174
 677 0084 0020     		movs	r0, #0
 678 0086 C4E7     		b	.L53
 679              	.LVL72:
 680              	.L60:
 127:Core/Src/esp32.c ****     uint8_t i = 0;
 681              		.loc 1 127 16 view .LVU175
 682 0088 0020     		movs	r0, #0
 683              	.LVL73:
 127:Core/Src/esp32.c ****     uint8_t i = 0;
 684              		.loc 1 127 16 view .LVU176
 685 008a C2E7     		b	.L53
 686              	.LVL74:
 687              	.L61:
 138:Core/Src/esp32.c ****         }
 688              		.loc 1 138 20 view .LVU177
 689 008c 0120     		movs	r0, #1
 690 008e C0E7     		b	.L53
 691              		.cfi_endproc
 692              	.LFE1160:
 694              		.section	.text.Wifi_ReturnInteger,"ax",%progbits
 695              		.align	1
 696              		.global	Wifi_ReturnInteger
 697              		.syntax unified
 698              		.thumb
 699              		.thumb_func
 700              		.fpu fpv4-sp-d16
 702              	Wifi_ReturnInteger:
 703              	.LVL75:
 704              	.LFB1161:
 143:Core/Src/esp32.c **** // ################################################################################################
 144:Core/Src/esp32.c **** bool Wifi_ReturnInteger(int32_t *result, uint8_t WantWhichOne, char *SplitterChars)
 145:Core/Src/esp32.c **** {
ARM GAS  /var/folders/9y/n02fl3g16gnf7ppy14xghdy80000gn/T//ccoB4Sfq.s 			page 18


 705              		.loc 1 145 1 is_stmt 1 view -0
 706              		.cfi_startproc
 707              		@ args = 0, pretend = 0, frame = 0
 708              		@ frame_needed = 0, uses_anonymous_args = 0
 709              		.loc 1 145 1 is_stmt 0 view .LVU179
 710 0000 38B5     		push	{r3, r4, r5, lr}
 711              		.cfi_def_cfa_offset 16
 712              		.cfi_offset 3, -16
 713              		.cfi_offset 4, -12
 714              		.cfi_offset 5, -8
 715              		.cfi_offset 14, -4
 716 0002 0446     		mov	r4, r0
 146:Core/Src/esp32.c ****     if ((char *)Wifi.RxBuffer == NULL)
 717              		.loc 1 146 5 is_stmt 1 view .LVU180
 147:Core/Src/esp32.c ****         return false;
 148:Core/Src/esp32.c ****     if (Wifi_ReturnString((char *)Wifi.RxBuffer, WantWhichOne, SplitterChars) == false)
 718              		.loc 1 148 5 view .LVU181
 719              		.loc 1 148 9 is_stmt 0 view .LVU182
 720 0004 0548     		ldr	r0, .L69
 721              	.LVL76:
 722              		.loc 1 148 9 view .LVU183
 723 0006 FFF7FEFF 		bl	Wifi_ReturnString
 724              	.LVL77:
 725              		.loc 1 148 8 view .LVU184
 726 000a 0546     		mov	r5, r0
 727 000c 08B9     		cbnz	r0, .L68
 728              	.L66:
 149:Core/Src/esp32.c ****         return false;
 150:Core/Src/esp32.c ****     *result = atoi((char *)Wifi.RxBuffer);
 151:Core/Src/esp32.c ****     return true;
 152:Core/Src/esp32.c **** }
 729              		.loc 1 152 1 view .LVU185
 730 000e 2846     		mov	r0, r5
 731 0010 38BD     		pop	{r3, r4, r5, pc}
 732              	.LVL78:
 733              	.L68:
 150:Core/Src/esp32.c ****     return true;
 734              		.loc 1 150 5 is_stmt 1 view .LVU186
 150:Core/Src/esp32.c ****     return true;
 735              		.loc 1 150 15 is_stmt 0 view .LVU187
 736 0012 0248     		ldr	r0, .L69
 737 0014 FFF7FEFF 		bl	atoi
 738              	.LVL79:
 150:Core/Src/esp32.c ****     return true;
 739              		.loc 1 150 13 view .LVU188
 740 0018 2060     		str	r0, [r4]
 151:Core/Src/esp32.c **** }
 741              		.loc 1 151 5 is_stmt 1 view .LVU189
 151:Core/Src/esp32.c **** }
 742              		.loc 1 151 12 is_stmt 0 view .LVU190
 743 001a F8E7     		b	.L66
 744              	.L70:
 745              		.align	2
 746              	.L69:
 747 001c 01000000 		.word	.LANCHOR0+1
 748              		.cfi_endproc
 749              	.LFE1161:
ARM GAS  /var/folders/9y/n02fl3g16gnf7ppy14xghdy80000gn/T//ccoB4Sfq.s 			page 19


 751              		.global	__aeabi_d2f
 752              		.section	.text.Wifi_ReturnFloat,"ax",%progbits
 753              		.align	1
 754              		.global	Wifi_ReturnFloat
 755              		.syntax unified
 756              		.thumb
 757              		.thumb_func
 758              		.fpu fpv4-sp-d16
 760              	Wifi_ReturnFloat:
 761              	.LVL80:
 762              	.LFB1162:
 153:Core/Src/esp32.c **** // ################################################################################################
 154:Core/Src/esp32.c **** 
 155:Core/Src/esp32.c **** bool Wifi_ReturnFloat(float *result, uint8_t WantWhichOne, char *SplitterChars)
 156:Core/Src/esp32.c **** {
 763              		.loc 1 156 1 is_stmt 1 view -0
 764              		.cfi_startproc
 765              		@ args = 0, pretend = 0, frame = 0
 766              		@ frame_needed = 0, uses_anonymous_args = 0
 767              		.loc 1 156 1 is_stmt 0 view .LVU192
 768 0000 38B5     		push	{r3, r4, r5, lr}
 769              		.cfi_def_cfa_offset 16
 770              		.cfi_offset 3, -16
 771              		.cfi_offset 4, -12
 772              		.cfi_offset 5, -8
 773              		.cfi_offset 14, -4
 774 0002 0446     		mov	r4, r0
 157:Core/Src/esp32.c ****     if ((char *)Wifi.RxBuffer == NULL)
 775              		.loc 1 157 5 is_stmt 1 view .LVU193
 158:Core/Src/esp32.c ****         return false;
 159:Core/Src/esp32.c ****     if (Wifi_ReturnString((char *)Wifi.RxBuffer, WantWhichOne, SplitterChars) == false)
 776              		.loc 1 159 5 view .LVU194
 777              		.loc 1 159 9 is_stmt 0 view .LVU195
 778 0004 0748     		ldr	r0, .L75
 779              	.LVL81:
 780              		.loc 1 159 9 view .LVU196
 781 0006 FFF7FEFF 		bl	Wifi_ReturnString
 782              	.LVL82:
 783              		.loc 1 159 8 view .LVU197
 784 000a 0546     		mov	r5, r0
 785 000c 08B9     		cbnz	r0, .L74
 786              	.L72:
 160:Core/Src/esp32.c ****         return false;
 161:Core/Src/esp32.c ****     *result = atof((char *)Wifi.RxBuffer);
 162:Core/Src/esp32.c ****     return true;
 163:Core/Src/esp32.c **** }
 787              		.loc 1 163 1 view .LVU198
 788 000e 2846     		mov	r0, r5
 789 0010 38BD     		pop	{r3, r4, r5, pc}
 790              	.LVL83:
 791              	.L74:
 161:Core/Src/esp32.c ****     return true;
 792              		.loc 1 161 5 is_stmt 1 view .LVU199
 161:Core/Src/esp32.c ****     return true;
 793              		.loc 1 161 15 is_stmt 0 view .LVU200
 794 0012 0448     		ldr	r0, .L75
 795 0014 FFF7FEFF 		bl	atof
ARM GAS  /var/folders/9y/n02fl3g16gnf7ppy14xghdy80000gn/T//ccoB4Sfq.s 			page 20


 796              	.LVL84:
 797 0018 51EC100B 		vmov	r0, r1, d0
 798 001c FFF7FEFF 		bl	__aeabi_d2f
 799              	.LVL85:
 161:Core/Src/esp32.c ****     return true;
 800              		.loc 1 161 13 view .LVU201
 801 0020 2060     		str	r0, [r4]	@ float
 162:Core/Src/esp32.c **** }
 802              		.loc 1 162 5 is_stmt 1 view .LVU202
 162:Core/Src/esp32.c **** }
 803              		.loc 1 162 12 is_stmt 0 view .LVU203
 804 0022 F4E7     		b	.L72
 805              	.L76:
 806              		.align	2
 807              	.L75:
 808 0024 01000000 		.word	.LANCHOR0+1
 809              		.cfi_endproc
 810              	.LFE1162:
 812              		.section	.text.Wifi_RemoveChar,"ax",%progbits
 813              		.align	1
 814              		.global	Wifi_RemoveChar
 815              		.syntax unified
 816              		.thumb
 817              		.thumb_func
 818              		.fpu fpv4-sp-d16
 820              	Wifi_RemoveChar:
 821              	.LVL86:
 822              	.LFB1163:
 164:Core/Src/esp32.c **** // ################################################################################################
 165:Core/Src/esp32.c **** void Wifi_RemoveChar(char *str, char garbage)
 166:Core/Src/esp32.c **** {
 823              		.loc 1 166 1 is_stmt 1 view -0
 824              		.cfi_startproc
 825              		@ args = 0, pretend = 0, frame = 0
 826              		@ frame_needed = 0, uses_anonymous_args = 0
 827              		@ link register save eliminated.
 167:Core/Src/esp32.c ****     char *src, *dst;
 828              		.loc 1 167 5 view .LVU205
 168:Core/Src/esp32.c ****     for (src = dst = str; *src != '\0'; src++)
 829              		.loc 1 168 5 view .LVU206
 830              		.loc 1 168 20 is_stmt 0 view .LVU207
 831 0000 0246     		mov	r2, r0
 832              		.loc 1 168 5 view .LVU208
 833 0002 00E0     		b	.L78
 834              	.LVL87:
 835              	.L79:
 836              		.loc 1 168 41 is_stmt 1 discriminator 2 view .LVU209
 837              		.loc 1 168 44 is_stmt 0 discriminator 2 view .LVU210
 838 0004 0130     		adds	r0, r0, #1
 839              	.LVL88:
 840              	.L78:
 841              		.loc 1 168 27 is_stmt 1 discriminator 1 view .LVU211
 842 0006 0378     		ldrb	r3, [r0]	@ zero_extendqisi2
 843              		.loc 1 168 5 is_stmt 0 discriminator 1 view .LVU212
 844 0008 23B1     		cbz	r3, .L81
 169:Core/Src/esp32.c ****     {
 170:Core/Src/esp32.c ****         *dst = *src;
ARM GAS  /var/folders/9y/n02fl3g16gnf7ppy14xghdy80000gn/T//ccoB4Sfq.s 			page 21


 845              		.loc 1 170 9 is_stmt 1 view .LVU213
 846              		.loc 1 170 14 is_stmt 0 view .LVU214
 847 000a 1370     		strb	r3, [r2]
 171:Core/Src/esp32.c ****         if (*dst != garbage)
 848              		.loc 1 171 9 is_stmt 1 view .LVU215
 849              		.loc 1 171 12 is_stmt 0 view .LVU216
 850 000c 8B42     		cmp	r3, r1
 851 000e F9D0     		beq	.L79
 172:Core/Src/esp32.c ****             dst++;
 852              		.loc 1 172 13 is_stmt 1 view .LVU217
 853              		.loc 1 172 16 is_stmt 0 view .LVU218
 854 0010 0132     		adds	r2, r2, #1
 855              	.LVL89:
 856              		.loc 1 172 16 view .LVU219
 857 0012 F7E7     		b	.L79
 858              	.L81:
 173:Core/Src/esp32.c ****     }
 174:Core/Src/esp32.c ****     *dst = '\0';
 859              		.loc 1 174 5 is_stmt 1 view .LVU220
 860              		.loc 1 174 10 is_stmt 0 view .LVU221
 861 0014 1370     		strb	r3, [r2]
 175:Core/Src/esp32.c **** }
 862              		.loc 1 175 1 view .LVU222
 863 0016 7047     		bx	lr
 864              		.cfi_endproc
 865              	.LFE1163:
 867              		.section	.text.Wifi_RxClear,"ax",%progbits
 868              		.align	1
 869              		.global	Wifi_RxClear
 870              		.syntax unified
 871              		.thumb
 872              		.thumb_func
 873              		.fpu fpv4-sp-d16
 875              	Wifi_RxClear:
 876              	.LFB1164:
 176:Core/Src/esp32.c **** // ################################################################################################
 177:Core/Src/esp32.c **** void Wifi_RxClear(void)
 178:Core/Src/esp32.c **** {
 877              		.loc 1 178 1 is_stmt 1 view -0
 878              		.cfi_startproc
 879              		@ args = 0, pretend = 0, frame = 0
 880              		@ frame_needed = 0, uses_anonymous_args = 0
 881 0000 10B5     		push	{r4, lr}
 882              		.cfi_def_cfa_offset 8
 883              		.cfi_offset 4, -8
 884              		.cfi_offset 14, -4
 179:Core/Src/esp32.c ****     memset(Wifi.RxBuffer, 0, _WIFI_RX_SIZE);
 885              		.loc 1 179 5 view .LVU224
 886 0002 064C     		ldr	r4, .L84
 887 0004 4FF40072 		mov	r2, #512
 888 0008 0021     		movs	r1, #0
 889 000a 601C     		adds	r0, r4, #1
 890 000c FFF7FEFF 		bl	memset
 891              	.LVL90:
 180:Core/Src/esp32.c ****     Wifi.RxIndex = 0;
 892              		.loc 1 180 5 view .LVU225
 893              		.loc 1 180 18 is_stmt 0 view .LVU226
ARM GAS  /var/folders/9y/n02fl3g16gnf7ppy14xghdy80000gn/T//ccoB4Sfq.s 			page 22


 894 0010 0023     		movs	r3, #0
 895 0012 A4F80236 		strh	r3, [r4, #1538]	@ movhi
 181:Core/Src/esp32.c ****     usart1StartRxIt();
 896              		.loc 1 181 5 is_stmt 1 view .LVU227
 897 0016 FFF7FEFF 		bl	usart1StartRxIt
 898              	.LVL91:
 182:Core/Src/esp32.c ****     // HAL_UART_Receive_IT(&_WIFI_USART,&Wifi.usartBuff,1);
 183:Core/Src/esp32.c **** }
 899              		.loc 1 183 1 is_stmt 0 view .LVU228
 900 001a 10BD     		pop	{r4, pc}
 901              	.L85:
 902              		.align	2
 903              	.L84:
 904 001c 00000000 		.word	.LANCHOR0
 905              		.cfi_endproc
 906              	.LFE1164:
 908              		.section	.text.Wifi_TxClear,"ax",%progbits
 909              		.align	1
 910              		.global	Wifi_TxClear
 911              		.syntax unified
 912              		.thumb
 913              		.thumb_func
 914              		.fpu fpv4-sp-d16
 916              	Wifi_TxClear:
 917              	.LFB1165:
 184:Core/Src/esp32.c **** // ################################################################################################
 185:Core/Src/esp32.c **** void Wifi_TxClear(void)
 186:Core/Src/esp32.c **** {
 918              		.loc 1 186 1 is_stmt 1 view -0
 919              		.cfi_startproc
 920              		@ args = 0, pretend = 0, frame = 0
 921              		@ frame_needed = 0, uses_anonymous_args = 0
 922 0000 08B5     		push	{r3, lr}
 923              		.cfi_def_cfa_offset 8
 924              		.cfi_offset 3, -8
 925              		.cfi_offset 14, -4
 187:Core/Src/esp32.c ****     memset(Wifi.TxBuffer, 0, _WIFI_TX_SIZE);
 926              		.loc 1 187 5 view .LVU230
 927 0002 4FF48062 		mov	r2, #1024
 928 0006 0021     		movs	r1, #0
 929 0008 0148     		ldr	r0, .L88
 930 000a FFF7FEFF 		bl	memset
 931              	.LVL92:
 188:Core/Src/esp32.c **** }
 932              		.loc 1 188 1 is_stmt 0 view .LVU231
 933 000e 08BD     		pop	{r3, pc}
 934              	.L89:
 935              		.align	2
 936              	.L88:
 937 0010 01020000 		.word	.LANCHOR0+513
 938              		.cfi_endproc
 939              	.LFE1165:
 941              		.section	.text.Wifi_RxCallBack,"ax",%progbits
 942              		.align	1
 943              		.global	Wifi_RxCallBack
 944              		.syntax unified
 945              		.thumb
ARM GAS  /var/folders/9y/n02fl3g16gnf7ppy14xghdy80000gn/T//ccoB4Sfq.s 			page 23


 946              		.thumb_func
 947              		.fpu fpv4-sp-d16
 949              	Wifi_RxCallBack:
 950              	.LFB1166:
 189:Core/Src/esp32.c **** // ################################################################################################
 190:Core/Src/esp32.c **** void Wifi_RxCallBack(void)
 191:Core/Src/esp32.c **** {
 951              		.loc 1 191 1 is_stmt 1 view -0
 952              		.cfi_startproc
 953              		@ args = 0, pretend = 0, frame = 0
 954              		@ frame_needed = 0, uses_anonymous_args = 0
 955 0000 08B5     		push	{r3, lr}
 956              		.cfi_def_cfa_offset 8
 957              		.cfi_offset 3, -8
 958              		.cfi_offset 14, -4
 192:Core/Src/esp32.c ****     Wifi.RxBuffer[Wifi.RxIndex] = Wifi.usartBuff;
 959              		.loc 1 192 5 view .LVU233
 960              		.loc 1 192 23 is_stmt 0 view .LVU234
 961 0002 084B     		ldr	r3, .L93
 962 0004 B3F80226 		ldrh	r2, [r3, #1538]
 963              		.loc 1 192 39 view .LVU235
 964 0008 1978     		ldrb	r1, [r3]	@ zero_extendqisi2
 965              		.loc 1 192 33 view .LVU236
 966 000a 1344     		add	r3, r3, r2
 967 000c 5970     		strb	r1, [r3, #1]
 193:Core/Src/esp32.c ****     if (Wifi.RxIndex < _WIFI_RX_SIZE)
 968              		.loc 1 193 5 is_stmt 1 view .LVU237
 969              		.loc 1 193 8 is_stmt 0 view .LVU238
 970 000e B2F5007F 		cmp	r2, #512
 971 0012 03D2     		bcs	.L91
 194:Core/Src/esp32.c ****         Wifi.RxIndex++;
 972              		.loc 1 194 9 is_stmt 1 view .LVU239
 973              		.loc 1 194 21 is_stmt 0 view .LVU240
 974 0014 0132     		adds	r2, r2, #1
 975 0016 034B     		ldr	r3, .L93
 976 0018 A3F80226 		strh	r2, [r3, #1538]	@ movhi
 977              	.L91:
 195:Core/Src/esp32.c ****     usart1StartRxIt();
 978              		.loc 1 195 5 is_stmt 1 view .LVU241
 979 001c FFF7FEFF 		bl	usart1StartRxIt
 980              	.LVL93:
 196:Core/Src/esp32.c ****     // HAL_UART_Receive_IT(&_WIFI_USART, &Wifi.usartBuff, 1);
 197:Core/Src/esp32.c **** }
 981              		.loc 1 197 1 is_stmt 0 view .LVU242
 982 0020 08BD     		pop	{r3, pc}
 983              	.L94:
 984 0022 00BF     		.align	2
 985              	.L93:
 986 0024 00000000 		.word	.LANCHOR0
 987              		.cfi_endproc
 988              	.LFE1166:
 990              		.section	.rodata.Wifi_Init.str1.4,"aMS",%progbits,1
 991              		.align	2
 992              	.LC0:
 993 0000 41540D0A 		.ascii	"AT\015\012\000"
 993      00
 994 0005 000000   		.align	2
ARM GAS  /var/folders/9y/n02fl3g16gnf7ppy14xghdy80000gn/T//ccoB4Sfq.s 			page 24


 995              	.LC1:
 996 0008 4F4B00   		.ascii	"OK\000"
 997 000b 00       		.align	2
 998              	.LC2:
 999 000c 4552524F 		.ascii	"ERROR\000"
 999      5200
 1000              		.section	.text.Wifi_Init,"ax",%progbits
 1001              		.align	1
 1002              		.global	Wifi_Init
 1003              		.syntax unified
 1004              		.thumb
 1005              		.thumb_func
 1006              		.fpu fpv4-sp-d16
 1008              	Wifi_Init:
 1009              	.LFB1167:
 198:Core/Src/esp32.c **** // ################################################################################################
 199:Core/Src/esp32.c **** // ################################################################################################
 200:Core/Src/esp32.c **** // ################################################################################################
 201:Core/Src/esp32.c **** // ################################################################################################
 202:Core/Src/esp32.c **** bool Wifi_Init(void)
 203:Core/Src/esp32.c **** {
 1010              		.loc 1 203 1 is_stmt 1 view -0
 1011              		.cfi_startproc
 1012              		@ args = 0, pretend = 0, frame = 8
 1013              		@ frame_needed = 0, uses_anonymous_args = 0
 1014 0000 10B5     		push	{r4, lr}
 1015              		.cfi_def_cfa_offset 8
 1016              		.cfi_offset 4, -8
 1017              		.cfi_offset 14, -4
 1018 0002 84B0     		sub	sp, sp, #16
 1019              		.cfi_def_cfa_offset 24
 204:Core/Src/esp32.c ****     uint8_t result;
 1020              		.loc 1 204 5 view .LVU244
 205:Core/Src/esp32.c ****     bool returnVal = false;
 1021              		.loc 1 205 5 view .LVU245
 1022              	.LVL94:
 206:Core/Src/esp32.c ****     // Clean the variables and start the interruption to work with the UART
 207:Core/Src/esp32.c ****     do
 1023              		.loc 1 207 5 view .LVU246
 208:Core/Src/esp32.c ****     {
 209:Core/Src/esp32.c ****         Wifi_RxClear();
 1024              		.loc 1 209 9 view .LVU247
 1025 0004 FFF7FEFF 		bl	Wifi_RxClear
 1026              	.LVL95:
 210:Core/Src/esp32.c **** 
 211:Core/Src/esp32.c ****         if (Wifi_SendString("AT\r\n") == false)
 1027              		.loc 1 211 9 view .LVU248
 1028              		.loc 1 211 13 is_stmt 0 view .LVU249
 1029 0008 1048     		ldr	r0, .L101
 1030 000a FFF7FEFF 		bl	Wifi_SendString
 1031              	.LVL96:
 1032              		.loc 1 211 12 view .LVU250
 1033 000e 0446     		mov	r4, r0
 1034 0010 10B9     		cbnz	r0, .L99
 1035              	.LVL97:
 1036              	.L96:
 212:Core/Src/esp32.c ****             break;
ARM GAS  /var/folders/9y/n02fl3g16gnf7ppy14xghdy80000gn/T//ccoB4Sfq.s 			page 25


 213:Core/Src/esp32.c ****         if (Wifi_WaitForString(_WIFI_WAIT_TIME_LOW, &result, 2, "OK", "ERROR") == false)
 214:Core/Src/esp32.c ****             break;
 215:Core/Src/esp32.c ****         if (result == 2)
 216:Core/Src/esp32.c ****             break;
 217:Core/Src/esp32.c ****         returnVal = true;
 218:Core/Src/esp32.c ****         Wifi_RxClear();
 219:Core/Src/esp32.c ****         Wifi_TxClear();
 220:Core/Src/esp32.c ****         usart1StartRxIt();
 221:Core/Src/esp32.c ****         // HAL_UART_Receive_IT(&_WIFI_USART, &Wifi.usartBuff, 1);
 222:Core/Src/esp32.c ****     } while (0);
 1037              		.loc 1 222 13 is_stmt 1 view .LVU251
 223:Core/Src/esp32.c ****     return returnVal;
 1038              		.loc 1 223 5 view .LVU252
 224:Core/Src/esp32.c **** }
 1039              		.loc 1 224 1 is_stmt 0 view .LVU253
 1040 0012 2046     		mov	r0, r4
 1041 0014 04B0     		add	sp, sp, #16
 1042              		.cfi_remember_state
 1043              		.cfi_def_cfa_offset 8
 1044              		@ sp needed
 1045 0016 10BD     		pop	{r4, pc}
 1046              	.LVL98:
 1047              	.L99:
 1048              		.cfi_restore_state
 213:Core/Src/esp32.c ****             break;
 1049              		.loc 1 213 9 is_stmt 1 view .LVU254
 213:Core/Src/esp32.c ****             break;
 1050              		.loc 1 213 13 is_stmt 0 view .LVU255
 1051 0018 0D4B     		ldr	r3, .L101+4
 1052 001a 0093     		str	r3, [sp]
 1053 001c 0D4B     		ldr	r3, .L101+8
 1054 001e 0222     		movs	r2, #2
 1055 0020 0DF10F01 		add	r1, sp, #15
 1056 0024 4FF47A70 		mov	r0, #1000
 1057 0028 FFF7FEFF 		bl	Wifi_WaitForString
 1058              	.LVL99:
 213:Core/Src/esp32.c ****             break;
 1059              		.loc 1 213 12 view .LVU256
 1060 002c 0446     		mov	r4, r0
 1061 002e 0028     		cmp	r0, #0
 1062 0030 EFD0     		beq	.L96
 215:Core/Src/esp32.c ****             break;
 1063              		.loc 1 215 9 is_stmt 1 view .LVU257
 215:Core/Src/esp32.c ****             break;
 1064              		.loc 1 215 20 is_stmt 0 view .LVU258
 1065 0032 9DF80F30 		ldrb	r3, [sp, #15]	@ zero_extendqisi2
 215:Core/Src/esp32.c ****             break;
 1066              		.loc 1 215 12 view .LVU259
 1067 0036 022B     		cmp	r3, #2
 1068 0038 01D1     		bne	.L100
 205:Core/Src/esp32.c ****     // Clean the variables and start the interruption to work with the UART
 1069              		.loc 1 205 10 view .LVU260
 1070 003a 0024     		movs	r4, #0
 1071 003c E9E7     		b	.L96
 1072              	.L100:
 217:Core/Src/esp32.c ****         Wifi_RxClear();
 1073              		.loc 1 217 9 is_stmt 1 view .LVU261
ARM GAS  /var/folders/9y/n02fl3g16gnf7ppy14xghdy80000gn/T//ccoB4Sfq.s 			page 26


 1074              	.LVL100:
 218:Core/Src/esp32.c ****         Wifi_TxClear();
 1075              		.loc 1 218 9 view .LVU262
 1076 003e FFF7FEFF 		bl	Wifi_RxClear
 1077              	.LVL101:
 219:Core/Src/esp32.c ****         usart1StartRxIt();
 1078              		.loc 1 219 9 view .LVU263
 1079 0042 FFF7FEFF 		bl	Wifi_TxClear
 1080              	.LVL102:
 220:Core/Src/esp32.c ****         // HAL_UART_Receive_IT(&_WIFI_USART, &Wifi.usartBuff, 1);
 1081              		.loc 1 220 9 view .LVU264
 1082 0046 FFF7FEFF 		bl	usart1StartRxIt
 1083              	.LVL103:
 1084 004a E2E7     		b	.L96
 1085              	.L102:
 1086              		.align	2
 1087              	.L101:
 1088 004c 00000000 		.word	.LC0
 1089 0050 0C000000 		.word	.LC2
 1090 0054 08000000 		.word	.LC1
 1091              		.cfi_endproc
 1092              	.LFE1167:
 1094              		.section	.rodata.Wifi_Restart.str1.4,"aMS",%progbits,1
 1095              		.align	2
 1096              	.LC3:
 1097 0000 41542B52 		.ascii	"AT+RST\015\012\000"
 1097      53540D0A 
 1097      00
 1098              		.section	.text.Wifi_Restart,"ax",%progbits
 1099              		.align	1
 1100              		.global	Wifi_Restart
 1101              		.syntax unified
 1102              		.thumb
 1103              		.thumb_func
 1104              		.fpu fpv4-sp-d16
 1106              	Wifi_Restart:
 1107              	.LFB1168:
 225:Core/Src/esp32.c **** 
 226:Core/Src/esp32.c **** // ################################################################################################
 227:Core/Src/esp32.c **** // ################################################################################################
 228:Core/Src/esp32.c **** // ################################################################################################
 229:Core/Src/esp32.c **** // ################################################################################################
 230:Core/Src/esp32.c **** bool Wifi_Restart(void)
 231:Core/Src/esp32.c **** {
 1108              		.loc 1 231 1 view -0
 1109              		.cfi_startproc
 1110              		@ args = 0, pretend = 0, frame = 8
 1111              		@ frame_needed = 0, uses_anonymous_args = 0
 1112 0000 00B5     		push	{lr}
 1113              		.cfi_def_cfa_offset 4
 1114              		.cfi_offset 14, -4
 1115 0002 85B0     		sub	sp, sp, #20
 1116              		.cfi_def_cfa_offset 24
 232:Core/Src/esp32.c ****     // Make a restart of the ESP8266 using the AT Commands
 233:Core/Src/esp32.c **** 
 234:Core/Src/esp32.c ****     uint8_t result;
 1117              		.loc 1 234 5 view .LVU266
ARM GAS  /var/folders/9y/n02fl3g16gnf7ppy14xghdy80000gn/T//ccoB4Sfq.s 			page 27


 235:Core/Src/esp32.c ****     bool returnVal = false;
 1118              		.loc 1 235 5 view .LVU267
 1119              	.LVL104:
 236:Core/Src/esp32.c ****     do
 1120              		.loc 1 236 5 view .LVU268
 237:Core/Src/esp32.c ****     {
 238:Core/Src/esp32.c ****         Wifi_RxClear();
 1121              		.loc 1 238 9 view .LVU269
 1122 0004 FFF7FEFF 		bl	Wifi_RxClear
 1123              	.LVL105:
 239:Core/Src/esp32.c ****         sprintf((char *)Wifi.TxBuffer, "AT+RST\r\n");
 1124              		.loc 1 239 9 view .LVU270
 1125 0008 124A     		ldr	r2, .L107
 1126 000a 02F2012C 		addw	ip, r2, #513
 1127 000e 124B     		ldr	r3, .L107+4
 1128 0010 03CB     		ldmia	r3!, {r0, r1}
 1129 0012 C2F80102 		str	r0, [r2, #513]	@ unaligned
 1130 0016 C2F80512 		str	r1, [r2, #517]	@ unaligned
 1131 001a 1B78     		ldrb	r3, [r3]	@ zero_extendqisi2
 1132 001c 82F80932 		strb	r3, [r2, #521]
 240:Core/Src/esp32.c ****         if (Wifi_SendString((char *)Wifi.TxBuffer) == false)
 1133              		.loc 1 240 9 view .LVU271
 1134              		.loc 1 240 13 is_stmt 0 view .LVU272
 1135 0020 6046     		mov	r0, ip
 1136 0022 FFF7FEFF 		bl	Wifi_SendString
 1137              	.LVL106:
 1138              		.loc 1 240 12 view .LVU273
 1139 0026 10B9     		cbnz	r0, .L106
 1140              	.L104:
 1141              	.LVL107:
 241:Core/Src/esp32.c ****             break;
 242:Core/Src/esp32.c ****         if (Wifi_WaitForString(_WIFI_WAIT_TIME_LOW, &result, 2, "OK", "ERROR") == false)
 243:Core/Src/esp32.c ****             break;       // The timeout was completed and the string was not there
 244:Core/Src/esp32.c ****         if (result == 2) // It was find the "ERROR" String in the receiving information
 245:Core/Src/esp32.c ****             break;
 246:Core/Src/esp32.c ****         returnVal = true;
 247:Core/Src/esp32.c ****     } while (0);
 1142              		.loc 1 247 13 is_stmt 1 view .LVU274
 248:Core/Src/esp32.c ****     return returnVal;
 1143              		.loc 1 248 5 view .LVU275
 249:Core/Src/esp32.c **** }
 1144              		.loc 1 249 1 is_stmt 0 view .LVU276
 1145 0028 05B0     		add	sp, sp, #20
 1146              		.cfi_remember_state
 1147              		.cfi_def_cfa_offset 4
 1148              		@ sp needed
 1149 002a 5DF804FB 		ldr	pc, [sp], #4
 1150              	.LVL108:
 1151              	.L106:
 1152              		.cfi_restore_state
 242:Core/Src/esp32.c ****             break;       // The timeout was completed and the string was not there
 1153              		.loc 1 242 9 is_stmt 1 view .LVU277
 242:Core/Src/esp32.c ****             break;       // The timeout was completed and the string was not there
 1154              		.loc 1 242 13 is_stmt 0 view .LVU278
 1155 002e 0B4B     		ldr	r3, .L107+8
 1156 0030 0093     		str	r3, [sp]
 1157 0032 0B4B     		ldr	r3, .L107+12
ARM GAS  /var/folders/9y/n02fl3g16gnf7ppy14xghdy80000gn/T//ccoB4Sfq.s 			page 28


 1158 0034 0222     		movs	r2, #2
 1159 0036 0DF10F01 		add	r1, sp, #15
 1160 003a 4FF47A70 		mov	r0, #1000
 1161 003e FFF7FEFF 		bl	Wifi_WaitForString
 1162              	.LVL109:
 242:Core/Src/esp32.c ****             break;       // The timeout was completed and the string was not there
 1163              		.loc 1 242 12 view .LVU279
 1164 0042 0028     		cmp	r0, #0
 1165 0044 F0D0     		beq	.L104
 244:Core/Src/esp32.c ****             break;
 1166              		.loc 1 244 9 is_stmt 1 view .LVU280
 244:Core/Src/esp32.c ****             break;
 1167              		.loc 1 244 20 is_stmt 0 view .LVU281
 1168 0046 9DF80F30 		ldrb	r3, [sp, #15]	@ zero_extendqisi2
 244:Core/Src/esp32.c ****             break;
 1169              		.loc 1 244 12 view .LVU282
 1170 004a 022B     		cmp	r3, #2
 1171 004c ECD1     		bne	.L104
 235:Core/Src/esp32.c ****     do
 1172              		.loc 1 235 10 view .LVU283
 1173 004e 0020     		movs	r0, #0
 1174 0050 EAE7     		b	.L104
 1175              	.L108:
 1176 0052 00BF     		.align	2
 1177              	.L107:
 1178 0054 00000000 		.word	.LANCHOR0
 1179 0058 00000000 		.word	.LC3
 1180 005c 0C000000 		.word	.LC2
 1181 0060 08000000 		.word	.LC1
 1182              		.cfi_endproc
 1183              	.LFE1168:
 1185              		.section	.rodata.Wifi_DeepSleep.str1.4,"aMS",%progbits,1
 1186              		.align	2
 1187              	.LC4:
 1188 0000 41542B47 		.ascii	"AT+GSLP=%d\015\012\000"
 1188      534C503D 
 1188      25640D0A 
 1188      00
 1189              		.section	.text.Wifi_DeepSleep,"ax",%progbits
 1190              		.align	1
 1191              		.global	Wifi_DeepSleep
 1192              		.syntax unified
 1193              		.thumb
 1194              		.thumb_func
 1195              		.fpu fpv4-sp-d16
 1197              	Wifi_DeepSleep:
 1198              	.LVL110:
 1199              	.LFB1169:
 250:Core/Src/esp32.c **** // ################################################################################################
 251:Core/Src/esp32.c **** bool Wifi_DeepSleep(uint16_t DelayMs)
 252:Core/Src/esp32.c **** {
 1200              		.loc 1 252 1 is_stmt 1 view -0
 1201              		.cfi_startproc
 1202              		@ args = 0, pretend = 0, frame = 8
 1203              		@ frame_needed = 0, uses_anonymous_args = 0
 1204              		.loc 1 252 1 is_stmt 0 view .LVU285
 1205 0000 30B5     		push	{r4, r5, lr}
ARM GAS  /var/folders/9y/n02fl3g16gnf7ppy14xghdy80000gn/T//ccoB4Sfq.s 			page 29


 1206              		.cfi_def_cfa_offset 12
 1207              		.cfi_offset 4, -12
 1208              		.cfi_offset 5, -8
 1209              		.cfi_offset 14, -4
 1210 0002 85B0     		sub	sp, sp, #20
 1211              		.cfi_def_cfa_offset 32
 1212 0004 0446     		mov	r4, r0
 253:Core/Src/esp32.c ****     // The ESP8266 enters in Deep-Sleep Mode for the time, which is indicated
 254:Core/Src/esp32.c **** 
 255:Core/Src/esp32.c ****     uint8_t result;
 1213              		.loc 1 255 5 is_stmt 1 view .LVU286
 256:Core/Src/esp32.c ****     bool returnVal = false;
 1214              		.loc 1 256 5 view .LVU287
 1215              	.LVL111:
 257:Core/Src/esp32.c ****     do
 1216              		.loc 1 257 5 view .LVU288
 258:Core/Src/esp32.c ****     {
 259:Core/Src/esp32.c ****         Wifi_RxClear();
 1217              		.loc 1 259 9 view .LVU289
 1218 0006 FFF7FEFF 		bl	Wifi_RxClear
 1219              	.LVL112:
 260:Core/Src/esp32.c ****         sprintf((char *)Wifi.TxBuffer, "AT+GSLP=%d\r\n", DelayMs);
 1220              		.loc 1 260 9 view .LVU290
 1221 000a 0F4D     		ldr	r5, .L113
 1222 000c 2246     		mov	r2, r4
 1223 000e 0F49     		ldr	r1, .L113+4
 1224 0010 2846     		mov	r0, r5
 1225 0012 FFF7FEFF 		bl	sprintf
 1226              	.LVL113:
 261:Core/Src/esp32.c ****         if (Wifi_SendString((char *)Wifi.TxBuffer) == false)
 1227              		.loc 1 261 9 view .LVU291
 1228              		.loc 1 261 13 is_stmt 0 view .LVU292
 1229 0016 2846     		mov	r0, r5
 1230 0018 FFF7FEFF 		bl	Wifi_SendString
 1231              	.LVL114:
 1232              		.loc 1 261 12 view .LVU293
 1233 001c 08B9     		cbnz	r0, .L112
 1234              	.L110:
 1235              	.LVL115:
 262:Core/Src/esp32.c ****             break;
 263:Core/Src/esp32.c ****         if (Wifi_WaitForString(_WIFI_WAIT_TIME_LOW, &result, 2, "OK", "ERROR") == false)
 264:Core/Src/esp32.c ****             break;       // The timeout was completed and the string was not there
 265:Core/Src/esp32.c ****         if (result == 2) // It was find the "ERROR" String in the receiving information
 266:Core/Src/esp32.c ****             break;
 267:Core/Src/esp32.c ****         returnVal = true;
 268:Core/Src/esp32.c ****     } while (0);
 1236              		.loc 1 268 13 is_stmt 1 view .LVU294
 269:Core/Src/esp32.c ****     return returnVal;
 1237              		.loc 1 269 5 view .LVU295
 270:Core/Src/esp32.c **** }
 1238              		.loc 1 270 1 is_stmt 0 view .LVU296
 1239 001e 05B0     		add	sp, sp, #20
 1240              		.cfi_remember_state
 1241              		.cfi_def_cfa_offset 12
 1242              		@ sp needed
 1243 0020 30BD     		pop	{r4, r5, pc}
 1244              	.LVL116:
ARM GAS  /var/folders/9y/n02fl3g16gnf7ppy14xghdy80000gn/T//ccoB4Sfq.s 			page 30


 1245              	.L112:
 1246              		.cfi_restore_state
 263:Core/Src/esp32.c ****             break;       // The timeout was completed and the string was not there
 1247              		.loc 1 263 9 is_stmt 1 view .LVU297
 263:Core/Src/esp32.c ****             break;       // The timeout was completed and the string was not there
 1248              		.loc 1 263 13 is_stmt 0 view .LVU298
 1249 0022 0B4B     		ldr	r3, .L113+8
 1250 0024 0093     		str	r3, [sp]
 1251 0026 0B4B     		ldr	r3, .L113+12
 1252 0028 0222     		movs	r2, #2
 1253 002a 0DF10F01 		add	r1, sp, #15
 1254 002e 4FF47A70 		mov	r0, #1000
 1255 0032 FFF7FEFF 		bl	Wifi_WaitForString
 1256              	.LVL117:
 263:Core/Src/esp32.c ****             break;       // The timeout was completed and the string was not there
 1257              		.loc 1 263 12 view .LVU299
 1258 0036 0028     		cmp	r0, #0
 1259 0038 F1D0     		beq	.L110
 265:Core/Src/esp32.c ****             break;
 1260              		.loc 1 265 9 is_stmt 1 view .LVU300
 265:Core/Src/esp32.c ****             break;
 1261              		.loc 1 265 20 is_stmt 0 view .LVU301
 1262 003a 9DF80F30 		ldrb	r3, [sp, #15]	@ zero_extendqisi2
 265:Core/Src/esp32.c ****             break;
 1263              		.loc 1 265 12 view .LVU302
 1264 003e 022B     		cmp	r3, #2
 1265 0040 EDD1     		bne	.L110
 256:Core/Src/esp32.c ****     do
 1266              		.loc 1 256 10 view .LVU303
 1267 0042 0020     		movs	r0, #0
 1268 0044 EBE7     		b	.L110
 1269              	.L114:
 1270 0046 00BF     		.align	2
 1271              	.L113:
 1272 0048 01020000 		.word	.LANCHOR0+513
 1273 004c 00000000 		.word	.LC4
 1274 0050 0C000000 		.word	.LC2
 1275 0054 08000000 		.word	.LC1
 1276              		.cfi_endproc
 1277              	.LFE1169:
 1279              		.section	.rodata.Wifi_FactoryReset.str1.4,"aMS",%progbits,1
 1280              		.align	2
 1281              	.LC5:
 1282 0000 41542B52 		.ascii	"AT+RESTORE\015\012\000"
 1282      4553544F 
 1282      52450D0A 
 1282      00
 1283              		.section	.text.Wifi_FactoryReset,"ax",%progbits
 1284              		.align	1
 1285              		.global	Wifi_FactoryReset
 1286              		.syntax unified
 1287              		.thumb
 1288              		.thumb_func
 1289              		.fpu fpv4-sp-d16
 1291              	Wifi_FactoryReset:
 1292              	.LFB1170:
 271:Core/Src/esp32.c **** // ################################################################################################
ARM GAS  /var/folders/9y/n02fl3g16gnf7ppy14xghdy80000gn/T//ccoB4Sfq.s 			page 31


 272:Core/Src/esp32.c **** bool Wifi_FactoryReset(void)
 273:Core/Src/esp32.c **** {
 1293              		.loc 1 273 1 is_stmt 1 view -0
 1294              		.cfi_startproc
 1295              		@ args = 0, pretend = 0, frame = 8
 1296              		@ frame_needed = 0, uses_anonymous_args = 0
 1297 0000 10B5     		push	{r4, lr}
 1298              		.cfi_def_cfa_offset 8
 1299              		.cfi_offset 4, -8
 1300              		.cfi_offset 14, -4
 1301 0002 84B0     		sub	sp, sp, #16
 1302              		.cfi_def_cfa_offset 24
 274:Core/Src/esp32.c ****     uint8_t result;
 1303              		.loc 1 274 5 view .LVU305
 275:Core/Src/esp32.c ****     bool returnVal = false;
 1304              		.loc 1 275 5 view .LVU306
 1305              	.LVL118:
 276:Core/Src/esp32.c ****     do
 1306              		.loc 1 276 5 view .LVU307
 277:Core/Src/esp32.c ****     {
 278:Core/Src/esp32.c ****         Wifi_RxClear();
 1307              		.loc 1 278 9 view .LVU308
 1308 0004 FFF7FEFF 		bl	Wifi_RxClear
 1309              	.LVL119:
 279:Core/Src/esp32.c ****         sprintf((char *)Wifi.TxBuffer, "AT+RESTORE\r\n");
 1310              		.loc 1 279 9 view .LVU309
 1311 0008 124C     		ldr	r4, .L119
 1312 000a 04F2012C 		addw	ip, r4, #513
 1313 000e 124B     		ldr	r3, .L119+4
 1314 0010 07CB     		ldmia	r3!, {r0, r1, r2}
 1315 0012 C4F80102 		str	r0, [r4, #513]	@ unaligned
 1316 0016 C4F80512 		str	r1, [r4, #517]	@ unaligned
 1317 001a C4F80922 		str	r2, [r4, #521]	@ unaligned
 1318 001e 1B78     		ldrb	r3, [r3]	@ zero_extendqisi2
 1319 0020 84F80D32 		strb	r3, [r4, #525]
 280:Core/Src/esp32.c ****         if (Wifi_SendString((char *)Wifi.TxBuffer) == false)
 1320              		.loc 1 280 9 view .LVU310
 1321              		.loc 1 280 13 is_stmt 0 view .LVU311
 1322 0024 6046     		mov	r0, ip
 1323 0026 FFF7FEFF 		bl	Wifi_SendString
 1324              	.LVL120:
 1325              		.loc 1 280 12 view .LVU312
 1326 002a 08B9     		cbnz	r0, .L118
 1327              	.L116:
 1328              	.LVL121:
 281:Core/Src/esp32.c ****             break;
 282:Core/Src/esp32.c ****         if (Wifi_WaitForString(_WIFI_WAIT_TIME_LOW, &result, 2, "OK", "ERROR") == false)
 283:Core/Src/esp32.c ****             break;       // The timeout was completed and the string was not there
 284:Core/Src/esp32.c ****         if (result == 2) // It was find the "ERROR" String in the receiving information
 285:Core/Src/esp32.c ****             break;
 286:Core/Src/esp32.c ****         returnVal = true;
 287:Core/Src/esp32.c ****     } while (0);
 1329              		.loc 1 287 13 is_stmt 1 view .LVU313
 288:Core/Src/esp32.c ****     return returnVal;
 1330              		.loc 1 288 5 view .LVU314
 289:Core/Src/esp32.c **** }
 1331              		.loc 1 289 1 is_stmt 0 view .LVU315
ARM GAS  /var/folders/9y/n02fl3g16gnf7ppy14xghdy80000gn/T//ccoB4Sfq.s 			page 32


 1332 002c 04B0     		add	sp, sp, #16
 1333              		.cfi_remember_state
 1334              		.cfi_def_cfa_offset 8
 1335              		@ sp needed
 1336 002e 10BD     		pop	{r4, pc}
 1337              	.LVL122:
 1338              	.L118:
 1339              		.cfi_restore_state
 282:Core/Src/esp32.c ****             break;       // The timeout was completed and the string was not there
 1340              		.loc 1 282 9 is_stmt 1 view .LVU316
 282:Core/Src/esp32.c ****             break;       // The timeout was completed and the string was not there
 1341              		.loc 1 282 13 is_stmt 0 view .LVU317
 1342 0030 0A4B     		ldr	r3, .L119+8
 1343 0032 0093     		str	r3, [sp]
 1344 0034 0A4B     		ldr	r3, .L119+12
 1345 0036 0222     		movs	r2, #2
 1346 0038 0DF10F01 		add	r1, sp, #15
 1347 003c 4FF47A70 		mov	r0, #1000
 1348 0040 FFF7FEFF 		bl	Wifi_WaitForString
 1349              	.LVL123:
 282:Core/Src/esp32.c ****             break;       // The timeout was completed and the string was not there
 1350              		.loc 1 282 12 view .LVU318
 1351 0044 0028     		cmp	r0, #0
 1352 0046 F1D0     		beq	.L116
 284:Core/Src/esp32.c ****             break;
 1353              		.loc 1 284 9 is_stmt 1 view .LVU319
 284:Core/Src/esp32.c ****             break;
 1354              		.loc 1 284 20 is_stmt 0 view .LVU320
 1355 0048 9DF80F30 		ldrb	r3, [sp, #15]	@ zero_extendqisi2
 284:Core/Src/esp32.c ****             break;
 1356              		.loc 1 284 12 view .LVU321
 1357 004c 022B     		cmp	r3, #2
 1358 004e EDD1     		bne	.L116
 275:Core/Src/esp32.c ****     do
 1359              		.loc 1 275 10 view .LVU322
 1360 0050 0020     		movs	r0, #0
 1361 0052 EBE7     		b	.L116
 1362              	.L120:
 1363              		.align	2
 1364              	.L119:
 1365 0054 00000000 		.word	.LANCHOR0
 1366 0058 00000000 		.word	.LC5
 1367 005c 0C000000 		.word	.LC2
 1368 0060 08000000 		.word	.LC1
 1369              		.cfi_endproc
 1370              	.LFE1170:
 1372              		.section	.rodata.Wifi_Update.str1.4,"aMS",%progbits,1
 1373              		.align	2
 1374              	.LC6:
 1375 0000 41542B43 		.ascii	"AT+CIUPDATE\015\012\000"
 1375      49555044 
 1375      4154450D 
 1375      0A00
 1376              		.section	.text.Wifi_Update,"ax",%progbits
 1377              		.align	1
 1378              		.global	Wifi_Update
 1379              		.syntax unified
ARM GAS  /var/folders/9y/n02fl3g16gnf7ppy14xghdy80000gn/T//ccoB4Sfq.s 			page 33


 1380              		.thumb
 1381              		.thumb_func
 1382              		.fpu fpv4-sp-d16
 1384              	Wifi_Update:
 1385              	.LFB1171:
 290:Core/Src/esp32.c **** // ################################################################################################
 291:Core/Src/esp32.c **** bool Wifi_Update(void)
 292:Core/Src/esp32.c **** {
 1386              		.loc 1 292 1 is_stmt 1 view -0
 1387              		.cfi_startproc
 1388              		@ args = 0, pretend = 0, frame = 8
 1389              		@ frame_needed = 0, uses_anonymous_args = 0
 1390 0000 10B5     		push	{r4, lr}
 1391              		.cfi_def_cfa_offset 8
 1392              		.cfi_offset 4, -8
 1393              		.cfi_offset 14, -4
 1394 0002 84B0     		sub	sp, sp, #16
 1395              		.cfi_def_cfa_offset 24
 293:Core/Src/esp32.c ****     // Update the version of AT Commands when the device is connected to Internet
 294:Core/Src/esp32.c **** 
 295:Core/Src/esp32.c ****     uint8_t result;
 1396              		.loc 1 295 5 view .LVU324
 296:Core/Src/esp32.c ****     bool returnVal = false;
 1397              		.loc 1 296 5 view .LVU325
 1398              	.LVL124:
 297:Core/Src/esp32.c ****     do
 1399              		.loc 1 297 5 view .LVU326
 298:Core/Src/esp32.c ****     {
 299:Core/Src/esp32.c ****         Wifi_RxClear();
 1400              		.loc 1 299 9 view .LVU327
 1401 0004 FFF7FEFF 		bl	Wifi_RxClear
 1402              	.LVL125:
 300:Core/Src/esp32.c ****         sprintf((char *)Wifi.TxBuffer, "AT+CIUPDATE\r\n");
 1403              		.loc 1 300 9 view .LVU328
 1404 0008 114C     		ldr	r4, .L125
 1405 000a 124B     		ldr	r3, .L125+4
 1406 000c 07CB     		ldmia	r3!, {r0, r1, r2}
 1407 000e C4F80102 		str	r0, [r4, #513]	@ unaligned
 1408 0012 C4F80512 		str	r1, [r4, #517]	@ unaligned
 1409 0016 C4F80922 		str	r2, [r4, #521]	@ unaligned
 1410 001a 1B88     		ldrh	r3, [r3]	@ unaligned
 1411 001c A4F80D32 		strh	r3, [r4, #525]	@ unaligned
 301:Core/Src/esp32.c ****         if (Wifi_SendString((char *)Wifi.TxBuffer) == false)
 1412              		.loc 1 301 9 view .LVU329
 1413              		.loc 1 301 13 is_stmt 0 view .LVU330
 1414 0020 04F20120 		addw	r0, r4, #513
 1415 0024 FFF7FEFF 		bl	Wifi_SendString
 1416              	.LVL126:
 1417              		.loc 1 301 12 view .LVU331
 1418 0028 08B9     		cbnz	r0, .L124
 1419              	.L122:
 1420              	.LVL127:
 302:Core/Src/esp32.c ****             break;
 303:Core/Src/esp32.c ****         if (Wifi_WaitForString(1000 * 60 * 5, &result, 2, "OK", "ERROR") == false)
 304:Core/Src/esp32.c ****             break;       // The timeout was completed and the string was not there
 305:Core/Src/esp32.c ****         if (result == 2) // It was find the "ERROR" String in the receiving information
 306:Core/Src/esp32.c ****             break;
ARM GAS  /var/folders/9y/n02fl3g16gnf7ppy14xghdy80000gn/T//ccoB4Sfq.s 			page 34


 307:Core/Src/esp32.c ****         returnVal = true;
 308:Core/Src/esp32.c ****     } while (0);
 1421              		.loc 1 308 13 is_stmt 1 view .LVU332
 309:Core/Src/esp32.c ****     return returnVal;
 1422              		.loc 1 309 5 view .LVU333
 310:Core/Src/esp32.c **** }
 1423              		.loc 1 310 1 is_stmt 0 view .LVU334
 1424 002a 04B0     		add	sp, sp, #16
 1425              		.cfi_remember_state
 1426              		.cfi_def_cfa_offset 8
 1427              		@ sp needed
 1428 002c 10BD     		pop	{r4, pc}
 1429              	.LVL128:
 1430              	.L124:
 1431              		.cfi_restore_state
 303:Core/Src/esp32.c ****             break;       // The timeout was completed and the string was not there
 1432              		.loc 1 303 9 is_stmt 1 view .LVU335
 303:Core/Src/esp32.c ****             break;       // The timeout was completed and the string was not there
 1433              		.loc 1 303 13 is_stmt 0 view .LVU336
 1434 002e 0A4B     		ldr	r3, .L125+8
 1435 0030 0093     		str	r3, [sp]
 1436 0032 0A4B     		ldr	r3, .L125+12
 1437 0034 0222     		movs	r2, #2
 1438 0036 0DF10F01 		add	r1, sp, #15
 1439 003a 0948     		ldr	r0, .L125+16
 1440 003c FFF7FEFF 		bl	Wifi_WaitForString
 1441              	.LVL129:
 303:Core/Src/esp32.c ****             break;       // The timeout was completed and the string was not there
 1442              		.loc 1 303 12 view .LVU337
 1443 0040 0028     		cmp	r0, #0
 1444 0042 F2D0     		beq	.L122
 305:Core/Src/esp32.c ****             break;
 1445              		.loc 1 305 9 is_stmt 1 view .LVU338
 305:Core/Src/esp32.c ****             break;
 1446              		.loc 1 305 20 is_stmt 0 view .LVU339
 1447 0044 9DF80F30 		ldrb	r3, [sp, #15]	@ zero_extendqisi2
 305:Core/Src/esp32.c ****             break;
 1448              		.loc 1 305 12 view .LVU340
 1449 0048 022B     		cmp	r3, #2
 1450 004a EED1     		bne	.L122
 296:Core/Src/esp32.c ****     do
 1451              		.loc 1 296 10 view .LVU341
 1452 004c 0020     		movs	r0, #0
 1453 004e ECE7     		b	.L122
 1454              	.L126:
 1455              		.align	2
 1456              	.L125:
 1457 0050 00000000 		.word	.LANCHOR0
 1458 0054 00000000 		.word	.LC6
 1459 0058 0C000000 		.word	.LC2
 1460 005c 08000000 		.word	.LC1
 1461 0060 E0930400 		.word	300000
 1462              		.cfi_endproc
 1463              	.LFE1171:
 1465              		.section	.rodata.Wifi_SetRfPower.str1.4,"aMS",%progbits,1
 1466              		.align	2
 1467              	.LC7:
ARM GAS  /var/folders/9y/n02fl3g16gnf7ppy14xghdy80000gn/T//ccoB4Sfq.s 			page 35


 1468 0000 41542B52 		.ascii	"AT+RFPOWER=%d\015\012\000"
 1468      46504F57 
 1468      45523D25 
 1468      640D0A00 
 1469              		.section	.text.Wifi_SetRfPower,"ax",%progbits
 1470              		.align	1
 1471              		.global	Wifi_SetRfPower
 1472              		.syntax unified
 1473              		.thumb
 1474              		.thumb_func
 1475              		.fpu fpv4-sp-d16
 1477              	Wifi_SetRfPower:
 1478              	.LVL130:
 1479              	.LFB1172:
 311:Core/Src/esp32.c **** // ################################################################################################
 312:Core/Src/esp32.c **** bool Wifi_SetRfPower(uint8_t Power_0_to_82)
 313:Core/Src/esp32.c **** {
 1480              		.loc 1 313 1 is_stmt 1 view -0
 1481              		.cfi_startproc
 1482              		@ args = 0, pretend = 0, frame = 8
 1483              		@ frame_needed = 0, uses_anonymous_args = 0
 1484              		.loc 1 313 1 is_stmt 0 view .LVU343
 1485 0000 30B5     		push	{r4, r5, lr}
 1486              		.cfi_def_cfa_offset 12
 1487              		.cfi_offset 4, -12
 1488              		.cfi_offset 5, -8
 1489              		.cfi_offset 14, -4
 1490 0002 85B0     		sub	sp, sp, #20
 1491              		.cfi_def_cfa_offset 32
 1492 0004 0446     		mov	r4, r0
 314:Core/Src/esp32.c ****     uint8_t result;
 1493              		.loc 1 314 5 is_stmt 1 view .LVU344
 315:Core/Src/esp32.c ****     bool returnVal = false;
 1494              		.loc 1 315 5 view .LVU345
 1495              	.LVL131:
 316:Core/Src/esp32.c ****     do
 1496              		.loc 1 316 5 view .LVU346
 317:Core/Src/esp32.c ****     {
 318:Core/Src/esp32.c ****         Wifi_RxClear();
 1497              		.loc 1 318 9 view .LVU347
 1498 0006 FFF7FEFF 		bl	Wifi_RxClear
 1499              	.LVL132:
 319:Core/Src/esp32.c ****         sprintf((char *)Wifi.TxBuffer, "AT+RFPOWER=%d\r\n", Power_0_to_82);
 1500              		.loc 1 319 9 view .LVU348
 1501 000a 0F4D     		ldr	r5, .L131
 1502 000c 2246     		mov	r2, r4
 1503 000e 0F49     		ldr	r1, .L131+4
 1504 0010 2846     		mov	r0, r5
 1505 0012 FFF7FEFF 		bl	sprintf
 1506              	.LVL133:
 320:Core/Src/esp32.c ****         if (Wifi_SendString((char *)Wifi.TxBuffer) == false)
 1507              		.loc 1 320 9 view .LVU349
 1508              		.loc 1 320 13 is_stmt 0 view .LVU350
 1509 0016 2846     		mov	r0, r5
 1510 0018 FFF7FEFF 		bl	Wifi_SendString
 1511              	.LVL134:
 1512              		.loc 1 320 12 view .LVU351
ARM GAS  /var/folders/9y/n02fl3g16gnf7ppy14xghdy80000gn/T//ccoB4Sfq.s 			page 36


 1513 001c 08B9     		cbnz	r0, .L130
 1514              	.L128:
 1515              	.LVL135:
 321:Core/Src/esp32.c ****             break;
 322:Core/Src/esp32.c ****         if (Wifi_WaitForString(_WIFI_WAIT_TIME_LOW, &result, 2, "OK", "ERROR") == false)
 323:Core/Src/esp32.c ****             break;       // The timeout was completed and the string was not there
 324:Core/Src/esp32.c ****         if (result == 2) // It was find the "ERROR" String in the receiving information
 325:Core/Src/esp32.c ****             break;
 326:Core/Src/esp32.c ****         returnVal = true;
 327:Core/Src/esp32.c ****     } while (0);
 1516              		.loc 1 327 13 is_stmt 1 view .LVU352
 328:Core/Src/esp32.c ****     return returnVal;
 1517              		.loc 1 328 5 view .LVU353
 329:Core/Src/esp32.c **** }
 1518              		.loc 1 329 1 is_stmt 0 view .LVU354
 1519 001e 05B0     		add	sp, sp, #20
 1520              		.cfi_remember_state
 1521              		.cfi_def_cfa_offset 12
 1522              		@ sp needed
 1523 0020 30BD     		pop	{r4, r5, pc}
 1524              	.LVL136:
 1525              	.L130:
 1526              		.cfi_restore_state
 322:Core/Src/esp32.c ****             break;       // The timeout was completed and the string was not there
 1527              		.loc 1 322 9 is_stmt 1 view .LVU355
 322:Core/Src/esp32.c ****             break;       // The timeout was completed and the string was not there
 1528              		.loc 1 322 13 is_stmt 0 view .LVU356
 1529 0022 0B4B     		ldr	r3, .L131+8
 1530 0024 0093     		str	r3, [sp]
 1531 0026 0B4B     		ldr	r3, .L131+12
 1532 0028 0222     		movs	r2, #2
 1533 002a 0DF10F01 		add	r1, sp, #15
 1534 002e 4FF47A70 		mov	r0, #1000
 1535 0032 FFF7FEFF 		bl	Wifi_WaitForString
 1536              	.LVL137:
 322:Core/Src/esp32.c ****             break;       // The timeout was completed and the string was not there
 1537              		.loc 1 322 12 view .LVU357
 1538 0036 0028     		cmp	r0, #0
 1539 0038 F1D0     		beq	.L128
 324:Core/Src/esp32.c ****             break;
 1540              		.loc 1 324 9 is_stmt 1 view .LVU358
 324:Core/Src/esp32.c ****             break;
 1541              		.loc 1 324 20 is_stmt 0 view .LVU359
 1542 003a 9DF80F30 		ldrb	r3, [sp, #15]	@ zero_extendqisi2
 324:Core/Src/esp32.c ****             break;
 1543              		.loc 1 324 12 view .LVU360
 1544 003e 022B     		cmp	r3, #2
 1545 0040 EDD1     		bne	.L128
 315:Core/Src/esp32.c ****     do
 1546              		.loc 1 315 10 view .LVU361
 1547 0042 0020     		movs	r0, #0
 1548 0044 EBE7     		b	.L128
 1549              	.L132:
 1550 0046 00BF     		.align	2
 1551              	.L131:
 1552 0048 01020000 		.word	.LANCHOR0+513
 1553 004c 00000000 		.word	.LC7
ARM GAS  /var/folders/9y/n02fl3g16gnf7ppy14xghdy80000gn/T//ccoB4Sfq.s 			page 37


 1554 0050 0C000000 		.word	.LC2
 1555 0054 08000000 		.word	.LC1
 1556              		.cfi_endproc
 1557              	.LFE1172:
 1559              		.section	.rodata.Wifi_SetMode.str1.4,"aMS",%progbits,1
 1560              		.align	2
 1561              	.LC8:
 1562 0000 41542B43 		.ascii	"AT+CWMODE=%d\015\012\000"
 1562      574D4F44 
 1562      453D2564 
 1562      0D0A00
 1563              		.section	.text.Wifi_SetMode,"ax",%progbits
 1564              		.align	1
 1565              		.global	Wifi_SetMode
 1566              		.syntax unified
 1567              		.thumb
 1568              		.thumb_func
 1569              		.fpu fpv4-sp-d16
 1571              	Wifi_SetMode:
 1572              	.LVL138:
 1573              	.LFB1173:
 330:Core/Src/esp32.c **** // ################################################################################################
 331:Core/Src/esp32.c **** // ################################################################################################
 332:Core/Src/esp32.c **** // ################################################################################################
 333:Core/Src/esp32.c **** // ################################################################################################
 334:Core/Src/esp32.c **** bool Wifi_SetMode(WifiMode_t WifiMode_)
 335:Core/Src/esp32.c **** {
 1574              		.loc 1 335 1 is_stmt 1 view -0
 1575              		.cfi_startproc
 1576              		@ args = 0, pretend = 0, frame = 8
 1577              		@ frame_needed = 0, uses_anonymous_args = 0
 1578              		.loc 1 335 1 is_stmt 0 view .LVU363
 1579 0000 30B5     		push	{r4, r5, lr}
 1580              		.cfi_def_cfa_offset 12
 1581              		.cfi_offset 4, -12
 1582              		.cfi_offset 5, -8
 1583              		.cfi_offset 14, -4
 1584 0002 85B0     		sub	sp, sp, #20
 1585              		.cfi_def_cfa_offset 32
 1586 0004 0446     		mov	r4, r0
 336:Core/Src/esp32.c ****     uint8_t result;
 1587              		.loc 1 336 5 is_stmt 1 view .LVU364
 337:Core/Src/esp32.c ****     bool returnVal = false;
 1588              		.loc 1 337 5 view .LVU365
 1589              	.LVL139:
 338:Core/Src/esp32.c ****     do
 1590              		.loc 1 338 5 view .LVU366
 339:Core/Src/esp32.c ****     {
 340:Core/Src/esp32.c ****         Wifi_RxClear();
 1591              		.loc 1 340 9 view .LVU367
 1592 0006 FFF7FEFF 		bl	Wifi_RxClear
 1593              	.LVL140:
 341:Core/Src/esp32.c ****         sprintf((char *)Wifi.TxBuffer, "AT+CWMODE=%d\r\n", WifiMode_);
 1594              		.loc 1 341 9 view .LVU368
 1595 000a 114D     		ldr	r5, .L138
 1596 000c 2246     		mov	r2, r4
 1597 000e 1149     		ldr	r1, .L138+4
ARM GAS  /var/folders/9y/n02fl3g16gnf7ppy14xghdy80000gn/T//ccoB4Sfq.s 			page 38


 1598 0010 2846     		mov	r0, r5
 1599 0012 FFF7FEFF 		bl	sprintf
 1600              	.LVL141:
 342:Core/Src/esp32.c ****         if (Wifi_SendString((char *)Wifi.TxBuffer) == false)
 1601              		.loc 1 342 9 view .LVU369
 1602              		.loc 1 342 13 is_stmt 0 view .LVU370
 1603 0016 2846     		mov	r0, r5
 1604 0018 FFF7FEFF 		bl	Wifi_SendString
 1605              	.LVL142:
 1606              		.loc 1 342 12 view .LVU371
 1607 001c 08B9     		cbnz	r0, .L137
 1608              	.LVL143:
 1609              	.L134:
 343:Core/Src/esp32.c ****             break;
 344:Core/Src/esp32.c ****         if (Wifi_WaitForString(_WIFI_WAIT_TIME_LOW, &result, 2, "OK", "ERROR") == false)
 345:Core/Src/esp32.c ****             break;       // The timeout was completed and the string was not there
 346:Core/Src/esp32.c ****         if (result == 2) // It was find the "ERROR" String in the receiving information
 347:Core/Src/esp32.c ****             break;
 348:Core/Src/esp32.c ****         Wifi.Mode = WifiMode_;
 349:Core/Src/esp32.c ****         returnVal = true;
 350:Core/Src/esp32.c ****     } while (0);
 1610              		.loc 1 350 13 is_stmt 1 view .LVU372
 351:Core/Src/esp32.c ****     return returnVal;
 1611              		.loc 1 351 5 view .LVU373
 352:Core/Src/esp32.c **** }
 1612              		.loc 1 352 1 is_stmt 0 view .LVU374
 1613 001e 05B0     		add	sp, sp, #20
 1614              		.cfi_remember_state
 1615              		.cfi_def_cfa_offset 12
 1616              		@ sp needed
 1617 0020 30BD     		pop	{r4, r5, pc}
 1618              	.LVL144:
 1619              	.L137:
 1620              		.cfi_restore_state
 344:Core/Src/esp32.c ****             break;       // The timeout was completed and the string was not there
 1621              		.loc 1 344 9 is_stmt 1 view .LVU375
 344:Core/Src/esp32.c ****             break;       // The timeout was completed and the string was not there
 1622              		.loc 1 344 13 is_stmt 0 view .LVU376
 1623 0022 0D4B     		ldr	r3, .L138+8
 1624 0024 0093     		str	r3, [sp]
 1625 0026 0D4B     		ldr	r3, .L138+12
 1626 0028 0222     		movs	r2, #2
 1627 002a 0DF10F01 		add	r1, sp, #15
 1628 002e 4FF47A70 		mov	r0, #1000
 1629 0032 FFF7FEFF 		bl	Wifi_WaitForString
 1630              	.LVL145:
 344:Core/Src/esp32.c ****             break;       // The timeout was completed and the string was not there
 1631              		.loc 1 344 12 view .LVU377
 1632 0036 0028     		cmp	r0, #0
 1633 0038 F1D0     		beq	.L134
 346:Core/Src/esp32.c ****             break;
 1634              		.loc 1 346 9 is_stmt 1 view .LVU378
 346:Core/Src/esp32.c ****             break;
 1635              		.loc 1 346 20 is_stmt 0 view .LVU379
 1636 003a 9DF80F30 		ldrb	r3, [sp, #15]	@ zero_extendqisi2
 346:Core/Src/esp32.c ****             break;
 1637              		.loc 1 346 12 view .LVU380
ARM GAS  /var/folders/9y/n02fl3g16gnf7ppy14xghdy80000gn/T//ccoB4Sfq.s 			page 39


 1638 003e 022B     		cmp	r3, #2
 1639 0040 04D0     		beq	.L135
 348:Core/Src/esp32.c ****         returnVal = true;
 1640              		.loc 1 348 9 is_stmt 1 view .LVU381
 348:Core/Src/esp32.c ****         returnVal = true;
 1641              		.loc 1 348 19 is_stmt 0 view .LVU382
 1642 0042 A5F20123 		subw	r3, r5, #513
 1643 0046 83F80546 		strb	r4, [r3, #1541]
 349:Core/Src/esp32.c ****     } while (0);
 1644              		.loc 1 349 9 is_stmt 1 view .LVU383
 1645              	.LVL146:
 349:Core/Src/esp32.c ****     } while (0);
 1646              		.loc 1 349 9 is_stmt 0 view .LVU384
 1647 004a E8E7     		b	.L134
 1648              	.LVL147:
 1649              	.L135:
 337:Core/Src/esp32.c ****     do
 1650              		.loc 1 337 10 view .LVU385
 1651 004c 0020     		movs	r0, #0
 1652 004e E6E7     		b	.L134
 1653              	.L139:
 1654              		.align	2
 1655              	.L138:
 1656 0050 01020000 		.word	.LANCHOR0+513
 1657 0054 00000000 		.word	.LC8
 1658 0058 0C000000 		.word	.LC2
 1659 005c 08000000 		.word	.LC1
 1660              		.cfi_endproc
 1661              	.LFE1173:
 1663              		.section	.rodata.Wifi_GetMode.str1.4,"aMS",%progbits,1
 1664              		.align	2
 1665              	.LC9:
 1666 0000 41542B43 		.ascii	"AT+CWMODE?\015\012\000"
 1666      574D4F44 
 1666      453F0D0A 
 1666      00
 1667 000d 000000   		.align	2
 1668              	.LC10:
 1669 0010 3A00     		.ascii	":\000"
 1670              		.section	.text.Wifi_GetMode,"ax",%progbits
 1671              		.align	1
 1672              		.global	Wifi_GetMode
 1673              		.syntax unified
 1674              		.thumb
 1675              		.thumb_func
 1676              		.fpu fpv4-sp-d16
 1678              	Wifi_GetMode:
 1679              	.LFB1174:
 353:Core/Src/esp32.c **** // ################################################################################################
 354:Core/Src/esp32.c **** bool Wifi_GetMode(void)
 355:Core/Src/esp32.c **** {
 1680              		.loc 1 355 1 is_stmt 1 view -0
 1681              		.cfi_startproc
 1682              		@ args = 0, pretend = 0, frame = 8
 1683              		@ frame_needed = 0, uses_anonymous_args = 0
 1684 0000 10B5     		push	{r4, lr}
 1685              		.cfi_def_cfa_offset 8
ARM GAS  /var/folders/9y/n02fl3g16gnf7ppy14xghdy80000gn/T//ccoB4Sfq.s 			page 40


 1686              		.cfi_offset 4, -8
 1687              		.cfi_offset 14, -4
 1688 0002 84B0     		sub	sp, sp, #16
 1689              		.cfi_def_cfa_offset 24
 356:Core/Src/esp32.c ****     uint8_t result;
 1690              		.loc 1 356 5 view .LVU387
 357:Core/Src/esp32.c ****     bool returnVal = false;
 1691              		.loc 1 357 5 view .LVU388
 1692              	.LVL148:
 358:Core/Src/esp32.c ****     do
 1693              		.loc 1 358 5 view .LVU389
 359:Core/Src/esp32.c ****     {
 360:Core/Src/esp32.c ****         Wifi_RxClear();
 1694              		.loc 1 360 9 view .LVU390
 1695 0004 FFF7FEFF 		bl	Wifi_RxClear
 1696              	.LVL149:
 361:Core/Src/esp32.c ****         sprintf((char *)Wifi.TxBuffer, "AT+CWMODE?\r\n");
 1697              		.loc 1 361 9 view .LVU391
 1698 0008 1D4C     		ldr	r4, .L147
 1699 000a 04F2012C 		addw	ip, r4, #513
 1700 000e 1D4B     		ldr	r3, .L147+4
 1701 0010 07CB     		ldmia	r3!, {r0, r1, r2}
 1702 0012 C4F80102 		str	r0, [r4, #513]	@ unaligned
 1703 0016 C4F80512 		str	r1, [r4, #517]	@ unaligned
 1704 001a C4F80922 		str	r2, [r4, #521]	@ unaligned
 1705 001e 1B78     		ldrb	r3, [r3]	@ zero_extendqisi2
 1706 0020 84F80D32 		strb	r3, [r4, #525]
 362:Core/Src/esp32.c ****         if (Wifi_SendString((char *)Wifi.TxBuffer) == false)
 1707              		.loc 1 362 9 view .LVU392
 1708              		.loc 1 362 13 is_stmt 0 view .LVU393
 1709 0024 6046     		mov	r0, ip
 1710 0026 FFF7FEFF 		bl	Wifi_SendString
 1711              	.LVL150:
 1712              		.loc 1 362 12 view .LVU394
 1713 002a 0446     		mov	r4, r0
 1714 002c 10B9     		cbnz	r0, .L145
 1715              	.L141:
 1716              	.LVL151:
 363:Core/Src/esp32.c ****             break;
 364:Core/Src/esp32.c ****         if (Wifi_WaitForString(_WIFI_WAIT_TIME_LOW, &result, 2, "OK", "ERROR") == false)
 365:Core/Src/esp32.c ****             break;       // The timeout was completed and the string was not there
 366:Core/Src/esp32.c ****         if (result == 2) // It was find the "ERROR" String in the receiving information
 367:Core/Src/esp32.c ****             break;
 368:Core/Src/esp32.c **** 
 369:Core/Src/esp32.c ****         if (Wifi_ReturnInteger((int32_t *)&result, 1, ":"))
 370:Core/Src/esp32.c ****             Wifi.Mode = (WifiMode_t)result;
 371:Core/Src/esp32.c ****         else
 372:Core/Src/esp32.c ****             Wifi.Mode = WifiMode_Error;
 373:Core/Src/esp32.c ****         returnVal = true;
 374:Core/Src/esp32.c ****     } while (0);
 1717              		.loc 1 374 13 is_stmt 1 view .LVU395
 375:Core/Src/esp32.c ****     return returnVal;
 1718              		.loc 1 375 5 view .LVU396
 376:Core/Src/esp32.c **** }
 1719              		.loc 1 376 1 is_stmt 0 view .LVU397
 1720 002e 2046     		mov	r0, r4
 1721 0030 04B0     		add	sp, sp, #16
ARM GAS  /var/folders/9y/n02fl3g16gnf7ppy14xghdy80000gn/T//ccoB4Sfq.s 			page 41


 1722              		.cfi_remember_state
 1723              		.cfi_def_cfa_offset 8
 1724              		@ sp needed
 1725 0032 10BD     		pop	{r4, pc}
 1726              	.LVL152:
 1727              	.L145:
 1728              		.cfi_restore_state
 364:Core/Src/esp32.c ****             break;       // The timeout was completed and the string was not there
 1729              		.loc 1 364 9 is_stmt 1 view .LVU398
 364:Core/Src/esp32.c ****             break;       // The timeout was completed and the string was not there
 1730              		.loc 1 364 13 is_stmt 0 view .LVU399
 1731 0034 144B     		ldr	r3, .L147+8
 1732 0036 0093     		str	r3, [sp]
 1733 0038 144B     		ldr	r3, .L147+12
 1734 003a 0222     		movs	r2, #2
 1735 003c 0DF10F01 		add	r1, sp, #15
 1736 0040 4FF47A70 		mov	r0, #1000
 1737 0044 FFF7FEFF 		bl	Wifi_WaitForString
 1738              	.LVL153:
 364:Core/Src/esp32.c ****             break;       // The timeout was completed and the string was not there
 1739              		.loc 1 364 12 view .LVU400
 1740 0048 0446     		mov	r4, r0
 1741 004a 0028     		cmp	r0, #0
 1742 004c EFD0     		beq	.L141
 366:Core/Src/esp32.c ****             break;
 1743              		.loc 1 366 9 is_stmt 1 view .LVU401
 366:Core/Src/esp32.c ****             break;
 1744              		.loc 1 366 20 is_stmt 0 view .LVU402
 1745 004e 9DF80F30 		ldrb	r3, [sp, #15]	@ zero_extendqisi2
 366:Core/Src/esp32.c ****             break;
 1746              		.loc 1 366 12 view .LVU403
 1747 0052 022B     		cmp	r3, #2
 1748 0054 01D1     		bne	.L146
 357:Core/Src/esp32.c ****     do
 1749              		.loc 1 357 10 view .LVU404
 1750 0056 0024     		movs	r4, #0
 1751 0058 E9E7     		b	.L141
 1752              	.L146:
 369:Core/Src/esp32.c ****             Wifi.Mode = (WifiMode_t)result;
 1753              		.loc 1 369 9 is_stmt 1 view .LVU405
 369:Core/Src/esp32.c ****             Wifi.Mode = (WifiMode_t)result;
 1754              		.loc 1 369 13 is_stmt 0 view .LVU406
 1755 005a 0D4A     		ldr	r2, .L147+16
 1756 005c 0121     		movs	r1, #1
 1757 005e 0DF10F00 		add	r0, sp, #15
 1758 0062 FFF7FEFF 		bl	Wifi_ReturnInteger
 1759              	.LVL154:
 369:Core/Src/esp32.c ****             Wifi.Mode = (WifiMode_t)result;
 1760              		.loc 1 369 12 view .LVU407
 1761 0066 30B1     		cbz	r0, .L142
 370:Core/Src/esp32.c ****         else
 1762              		.loc 1 370 13 is_stmt 1 view .LVU408
 370:Core/Src/esp32.c ****         else
 1763              		.loc 1 370 23 is_stmt 0 view .LVU409
 1764 0068 9DF80F10 		ldrb	r1, [sp, #15]	@ zero_extendqisi2
 1765 006c 044A     		ldr	r2, .L147
 1766 006e 82F80516 		strb	r1, [r2, #1541]
ARM GAS  /var/folders/9y/n02fl3g16gnf7ppy14xghdy80000gn/T//ccoB4Sfq.s 			page 42


 373:Core/Src/esp32.c ****     } while (0);
 1767              		.loc 1 373 19 view .LVU410
 1768 0072 0446     		mov	r4, r0
 1769 0074 DBE7     		b	.L141
 1770              	.L142:
 372:Core/Src/esp32.c ****         returnVal = true;
 1771              		.loc 1 372 13 is_stmt 1 view .LVU411
 372:Core/Src/esp32.c ****         returnVal = true;
 1772              		.loc 1 372 23 is_stmt 0 view .LVU412
 1773 0076 024B     		ldr	r3, .L147
 1774 0078 0022     		movs	r2, #0
 1775 007a 83F80526 		strb	r2, [r3, #1541]
 1776 007e D6E7     		b	.L141
 1777              	.L148:
 1778              		.align	2
 1779              	.L147:
 1780 0080 00000000 		.word	.LANCHOR0
 1781 0084 00000000 		.word	.LC9
 1782 0088 0C000000 		.word	.LC2
 1783 008c 08000000 		.word	.LC1
 1784 0090 10000000 		.word	.LC10
 1785              		.cfi_endproc
 1786              	.LFE1174:
 1788              		.section	.rodata.Wifi_GetMyIp.str1.4,"aMS",%progbits,1
 1789              		.align	2
 1790              	.LC11:
 1791 0000 41542B43 		.ascii	"AT+CIFSR\015\012\000"
 1791      49465352 
 1791      0D0A00
 1792 000b 00       		.align	2
 1793              	.LC12:
 1794 000c 41542B43 		.ascii	"AT+CIFSR\015\015\012+CIFSR:APIP,\"%[^\"]\000"
 1794      49465352 
 1794      0D0D0A2B 
 1794      43494653 
 1794      523A4150 
 1795 002a 0000     		.align	2
 1796              	.LC13:
 1797 002c 41542B43 		.ascii	"AT+CIFSR\015\015\012+CIFSR:STAIP,\"%[^\"]\000"
 1797      49465352 
 1797      0D0D0A2B 
 1797      43494653 
 1797      523A5354 
 1798              		.section	.text.Wifi_GetMyIp,"ax",%progbits
 1799              		.align	1
 1800              		.global	Wifi_GetMyIp
 1801              		.syntax unified
 1802              		.thumb
 1803              		.thumb_func
 1804              		.fpu fpv4-sp-d16
 1806              	Wifi_GetMyIp:
 1807              	.LFB1175:
 377:Core/Src/esp32.c **** bool Wifi_GetMyIp(void)
 378:Core/Src/esp32.c **** {
 1808              		.loc 1 378 1 is_stmt 1 view -0
 1809              		.cfi_startproc
 1810              		@ args = 0, pretend = 0, frame = 8
ARM GAS  /var/folders/9y/n02fl3g16gnf7ppy14xghdy80000gn/T//ccoB4Sfq.s 			page 43


 1811              		@ frame_needed = 0, uses_anonymous_args = 0
 1812 0000 70B5     		push	{r4, r5, r6, lr}
 1813              		.cfi_def_cfa_offset 16
 1814              		.cfi_offset 4, -16
 1815              		.cfi_offset 5, -12
 1816              		.cfi_offset 6, -8
 1817              		.cfi_offset 14, -4
 1818 0002 84B0     		sub	sp, sp, #16
 1819              		.cfi_def_cfa_offset 32
 379:Core/Src/esp32.c ****     uint8_t result;
 1820              		.loc 1 379 5 view .LVU414
 380:Core/Src/esp32.c ****     bool returnVal = false;
 1821              		.loc 1 380 5 view .LVU415
 1822              	.LVL155:
 381:Core/Src/esp32.c ****     do
 1823              		.loc 1 381 5 view .LVU416
 382:Core/Src/esp32.c ****     {
 383:Core/Src/esp32.c ****         Wifi_RxClear();
 1824              		.loc 1 383 9 view .LVU417
 1825 0004 FFF7FEFF 		bl	Wifi_RxClear
 1826              	.LVL156:
 384:Core/Src/esp32.c ****         sprintf((char *)Wifi.TxBuffer, "AT+CIFSR\r\n");
 1827              		.loc 1 384 9 view .LVU418
 1828 0008 1C4A     		ldr	r2, .L155
 1829 000a 02F2012C 		addw	ip, r2, #513
 1830 000e 1C4B     		ldr	r3, .L155+4
 1831 0010 03CB     		ldmia	r3!, {r0, r1}
 1832 0012 C2F80102 		str	r0, [r2, #513]	@ unaligned
 1833 0016 C2F80512 		str	r1, [r2, #517]	@ unaligned
 1834 001a 1988     		ldrh	r1, [r3]	@ unaligned
 1835 001c 9B78     		ldrb	r3, [r3, #2]	@ zero_extendqisi2
 1836 001e A2F80912 		strh	r1, [r2, #521]	@ unaligned
 1837 0022 82F80B32 		strb	r3, [r2, #523]
 385:Core/Src/esp32.c ****         if (Wifi_SendString((char *)Wifi.TxBuffer) == false)
 1838              		.loc 1 385 9 view .LVU419
 1839              		.loc 1 385 13 is_stmt 0 view .LVU420
 1840 0026 6046     		mov	r0, ip
 1841 0028 FFF7FEFF 		bl	Wifi_SendString
 1842              	.LVL157:
 1843              		.loc 1 385 12 view .LVU421
 1844 002c 0446     		mov	r4, r0
 1845 002e 10B9     		cbnz	r0, .L153
 1846              	.LVL158:
 1847              	.L150:
 386:Core/Src/esp32.c ****             break;
 387:Core/Src/esp32.c ****         if (Wifi_WaitForString(_WIFI_WAIT_TIME_LOW, &result, 2, "OK", "ERROR") == false)
 388:Core/Src/esp32.c ****             break;       // The timeout was completed and the string was not there
 389:Core/Src/esp32.c ****         if (result == 2) // It was find the "ERROR" String in the receiving information
 390:Core/Src/esp32.c ****             break;
 391:Core/Src/esp32.c ****         sscanf((char *)Wifi.RxBuffer, "AT+CIFSR\r\r\n+CIFSR:APIP,\"%[^\"]", Wifi.MyIP);
 392:Core/Src/esp32.c ****         sscanf((char *)Wifi.RxBuffer, "AT+CIFSR\r\r\n+CIFSR:STAIP,\"%[^\"]", Wifi.MyIP);
 393:Core/Src/esp32.c ****         returnVal = true;
 394:Core/Src/esp32.c ****     } while (0);
 1848              		.loc 1 394 13 is_stmt 1 view .LVU422
 395:Core/Src/esp32.c ****     return returnVal;
 1849              		.loc 1 395 5 view .LVU423
 396:Core/Src/esp32.c **** }
ARM GAS  /var/folders/9y/n02fl3g16gnf7ppy14xghdy80000gn/T//ccoB4Sfq.s 			page 44


 1850              		.loc 1 396 1 is_stmt 0 view .LVU424
 1851 0030 2046     		mov	r0, r4
 1852 0032 04B0     		add	sp, sp, #16
 1853              		.cfi_remember_state
 1854              		.cfi_def_cfa_offset 16
 1855              		@ sp needed
 1856 0034 70BD     		pop	{r4, r5, r6, pc}
 1857              	.LVL159:
 1858              	.L153:
 1859              		.cfi_restore_state
 387:Core/Src/esp32.c ****             break;       // The timeout was completed and the string was not there
 1860              		.loc 1 387 9 is_stmt 1 view .LVU425
 387:Core/Src/esp32.c ****             break;       // The timeout was completed and the string was not there
 1861              		.loc 1 387 13 is_stmt 0 view .LVU426
 1862 0036 134B     		ldr	r3, .L155+8
 1863 0038 0093     		str	r3, [sp]
 1864 003a 134B     		ldr	r3, .L155+12
 1865 003c 0222     		movs	r2, #2
 1866 003e 0DF10F01 		add	r1, sp, #15
 1867 0042 4FF47A70 		mov	r0, #1000
 1868 0046 FFF7FEFF 		bl	Wifi_WaitForString
 1869              	.LVL160:
 387:Core/Src/esp32.c ****             break;       // The timeout was completed and the string was not there
 1870              		.loc 1 387 12 view .LVU427
 1871 004a 0446     		mov	r4, r0
 1872 004c 0028     		cmp	r0, #0
 1873 004e EFD0     		beq	.L150
 389:Core/Src/esp32.c ****             break;
 1874              		.loc 1 389 9 is_stmt 1 view .LVU428
 389:Core/Src/esp32.c ****             break;
 1875              		.loc 1 389 20 is_stmt 0 view .LVU429
 1876 0050 9DF80F30 		ldrb	r3, [sp, #15]	@ zero_extendqisi2
 389:Core/Src/esp32.c ****             break;
 1877              		.loc 1 389 12 view .LVU430
 1878 0054 022B     		cmp	r3, #2
 1879 0056 01D1     		bne	.L154
 380:Core/Src/esp32.c ****     do
 1880              		.loc 1 380 10 view .LVU431
 1881 0058 0024     		movs	r4, #0
 1882 005a E9E7     		b	.L150
 1883              	.L154:
 391:Core/Src/esp32.c ****         sscanf((char *)Wifi.RxBuffer, "AT+CIFSR\r\r\n+CIFSR:STAIP,\"%[^\"]", Wifi.MyIP);
 1884              		.loc 1 391 9 is_stmt 1 view .LVU432
 1885 005c 074D     		ldr	r5, .L155
 1886 005e 05F20666 		addw	r6, r5, #1542
 1887 0062 0135     		adds	r5, r5, #1
 1888 0064 3246     		mov	r2, r6
 1889 0066 0949     		ldr	r1, .L155+16
 1890 0068 2846     		mov	r0, r5
 1891 006a FFF7FEFF 		bl	sscanf
 1892              	.LVL161:
 392:Core/Src/esp32.c ****         returnVal = true;
 1893              		.loc 1 392 9 view .LVU433
 1894 006e 3246     		mov	r2, r6
 1895 0070 0749     		ldr	r1, .L155+20
 1896 0072 2846     		mov	r0, r5
 1897 0074 FFF7FEFF 		bl	sscanf
ARM GAS  /var/folders/9y/n02fl3g16gnf7ppy14xghdy80000gn/T//ccoB4Sfq.s 			page 45


 1898              	.LVL162:
 393:Core/Src/esp32.c ****     } while (0);
 1899              		.loc 1 393 9 view .LVU434
 393:Core/Src/esp32.c ****     } while (0);
 1900              		.loc 1 393 9 is_stmt 0 view .LVU435
 1901 0078 DAE7     		b	.L150
 1902              	.L156:
 1903 007a 00BF     		.align	2
 1904              	.L155:
 1905 007c 00000000 		.word	.LANCHOR0
 1906 0080 00000000 		.word	.LC11
 1907 0084 0C000000 		.word	.LC2
 1908 0088 08000000 		.word	.LC1
 1909 008c 0C000000 		.word	.LC12
 1910 0090 2C000000 		.word	.LC13
 1911              		.cfi_endproc
 1912              	.LFE1175:
 1914              		.section	.rodata.Wifi_Station_ConnectToAp.str1.4,"aMS",%progbits,1
 1915              		.align	2
 1916              	.LC14:
 1917 0000 41542B43 		.ascii	"AT+CWJAP=\"%s\",\"%s\"\015\012\000"
 1917      574A4150 
 1917      3D222573 
 1917      222C2225 
 1917      73220D0A 
 1918 0015 000000   		.align	2
 1919              	.LC15:
 1920 0018 41542B43 		.ascii	"AT+CWJAP=\"%s\",\"%s\",\"%s\"\015\012\000"
 1920      574A4150 
 1920      3D222573 
 1920      222C2225 
 1920      73222C22 
 1921 0032 0000     		.align	2
 1922              	.LC16:
 1923 0034 0D0A4F4B 		.ascii	"\015\012OK\015\012\000"
 1923      0D0A00
 1924 003b 00       		.align	2
 1925              	.LC17:
 1926 003c 0D0A4641 		.ascii	"\015\012FAIL\015\012\000"
 1926      494C0D0A 
 1926      00
 1927 0045 000000   		.align	2
 1928              	.LC18:
 1929 0048 0D0A4552 		.ascii	"\015\012ERROR\015\012\000"
 1929      524F520D 
 1929      0A00
 1930              		.section	.text.Wifi_Station_ConnectToAp,"ax",%progbits
 1931              		.align	1
 1932              		.global	Wifi_Station_ConnectToAp
 1933              		.syntax unified
 1934              		.thumb
 1935              		.thumb_func
 1936              		.fpu fpv4-sp-d16
 1938              	Wifi_Station_ConnectToAp:
 1939              	.LVL163:
 1940              	.LFB1176:
 397:Core/Src/esp32.c **** // ################################################################################################
ARM GAS  /var/folders/9y/n02fl3g16gnf7ppy14xghdy80000gn/T//ccoB4Sfq.s 			page 46


 398:Core/Src/esp32.c **** // ################################################################################################
 399:Core/Src/esp32.c **** // ################################################################################################
 400:Core/Src/esp32.c **** // ################################################################################################
 401:Core/Src/esp32.c **** bool Wifi_Station_ConnectToAp(char *SSID, char *Pass, char *MAC)
 402:Core/Src/esp32.c **** {
 1941              		.loc 1 402 1 is_stmt 1 view -0
 1942              		.cfi_startproc
 1943              		@ args = 0, pretend = 0, frame = 8
 1944              		@ frame_needed = 0, uses_anonymous_args = 0
 1945              		.loc 1 402 1 is_stmt 0 view .LVU437
 1946 0000 70B5     		push	{r4, r5, r6, lr}
 1947              		.cfi_def_cfa_offset 16
 1948              		.cfi_offset 4, -16
 1949              		.cfi_offset 5, -12
 1950              		.cfi_offset 6, -8
 1951              		.cfi_offset 14, -4
 1952 0002 84B0     		sub	sp, sp, #16
 1953              		.cfi_def_cfa_offset 32
 1954 0004 0546     		mov	r5, r0
 1955 0006 0E46     		mov	r6, r1
 1956 0008 1446     		mov	r4, r2
 403:Core/Src/esp32.c ****     uint8_t result;
 1957              		.loc 1 403 5 is_stmt 1 view .LVU438
 404:Core/Src/esp32.c ****     bool returnVal = false;
 1958              		.loc 1 404 5 view .LVU439
 1959              	.LVL164:
 405:Core/Src/esp32.c ****     do
 1960              		.loc 1 405 5 view .LVU440
 406:Core/Src/esp32.c ****     {
 407:Core/Src/esp32.c ****         /*
 408:Core/Src/esp32.c ****          * It connects to a WiFi network who has all the parameters correctly
 409:Core/Src/esp32.c ****          */
 410:Core/Src/esp32.c ****         Wifi_RxClear();
 1961              		.loc 1 410 9 view .LVU441
 1962 000a FFF7FEFF 		bl	Wifi_RxClear
 1963              	.LVL165:
 411:Core/Src/esp32.c ****         if (MAC == NULL)
 1964              		.loc 1 411 9 view .LVU442
 1965              		.loc 1 411 12 is_stmt 0 view .LVU443
 1966 000e 64B1     		cbz	r4, .L162
 412:Core/Src/esp32.c ****             sprintf((char *)Wifi.TxBuffer, "AT+CWJAP=\"%s\",\"%s\"\r\n", SSID, Pass);
 413:Core/Src/esp32.c ****         else
 414:Core/Src/esp32.c ****             sprintf((char *)Wifi.TxBuffer, "AT+CWJAP=\"%s\",\"%s\",\"%s\"\r\n", SSID, Pass, MAC);
 1967              		.loc 1 414 13 is_stmt 1 view .LVU444
 1968 0010 0094     		str	r4, [sp]
 1969 0012 3346     		mov	r3, r6
 1970 0014 2A46     		mov	r2, r5
 1971 0016 1249     		ldr	r1, .L164
 1972 0018 1248     		ldr	r0, .L164+4
 1973 001a FFF7FEFF 		bl	sprintf
 1974              	.LVL166:
 1975              	.L159:
 415:Core/Src/esp32.c ****         if (Wifi_SendString((char *)Wifi.TxBuffer) == false)
 1976              		.loc 1 415 9 view .LVU445
 1977              		.loc 1 415 13 is_stmt 0 view .LVU446
 1978 001e 1148     		ldr	r0, .L164+4
 1979 0020 FFF7FEFF 		bl	Wifi_SendString
ARM GAS  /var/folders/9y/n02fl3g16gnf7ppy14xghdy80000gn/T//ccoB4Sfq.s 			page 47


 1980              	.LVL167:
 1981              		.loc 1 415 12 view .LVU447
 1982 0024 40B9     		cbnz	r0, .L163
 1983              	.L160:
 1984              	.LVL168:
 416:Core/Src/esp32.c ****             break;
 417:Core/Src/esp32.c ****         if (Wifi_WaitForString(_WIFI_WAIT_TIME_VERYHIGH, &result, 3, "\r\nOK\r\n", "\r\nERROR\r\n",
 418:Core/Src/esp32.c ****             break;
 419:Core/Src/esp32.c ****         if (result > 1) // If the result is higher to 1 is because there were an error
 420:Core/Src/esp32.c ****             break;      // in the communication
 421:Core/Src/esp32.c ****         returnVal = true;
 422:Core/Src/esp32.c ****     } while (0);
 1985              		.loc 1 422 13 is_stmt 1 view .LVU448
 423:Core/Src/esp32.c ****     return returnVal;
 1986              		.loc 1 423 5 view .LVU449
 424:Core/Src/esp32.c **** }
 1987              		.loc 1 424 1 is_stmt 0 view .LVU450
 1988 0026 04B0     		add	sp, sp, #16
 1989              		.cfi_remember_state
 1990              		.cfi_def_cfa_offset 16
 1991              		@ sp needed
 1992 0028 70BD     		pop	{r4, r5, r6, pc}
 1993              	.LVL169:
 1994              	.L162:
 1995              		.cfi_restore_state
 412:Core/Src/esp32.c ****         else
 1996              		.loc 1 412 13 is_stmt 1 view .LVU451
 1997 002a 3346     		mov	r3, r6
 1998 002c 2A46     		mov	r2, r5
 1999 002e 0E49     		ldr	r1, .L164+8
 2000 0030 0C48     		ldr	r0, .L164+4
 2001 0032 FFF7FEFF 		bl	sprintf
 2002              	.LVL170:
 2003 0036 F2E7     		b	.L159
 2004              	.L163:
 417:Core/Src/esp32.c ****             break;
 2005              		.loc 1 417 9 view .LVU452
 417:Core/Src/esp32.c ****             break;
 2006              		.loc 1 417 13 is_stmt 0 view .LVU453
 2007 0038 0C4B     		ldr	r3, .L164+12
 2008 003a 0193     		str	r3, [sp, #4]
 2009 003c 0C4B     		ldr	r3, .L164+16
 2010 003e 0093     		str	r3, [sp]
 2011 0040 0C4B     		ldr	r3, .L164+20
 2012 0042 0322     		movs	r2, #3
 2013 0044 0DF10F01 		add	r1, sp, #15
 2014 0048 46F2A810 		movw	r0, #25000
 2015 004c FFF7FEFF 		bl	Wifi_WaitForString
 2016              	.LVL171:
 417:Core/Src/esp32.c ****             break;
 2017              		.loc 1 417 12 view .LVU454
 2018 0050 0028     		cmp	r0, #0
 2019 0052 E8D0     		beq	.L160
 419:Core/Src/esp32.c ****             break;      // in the communication
 2020              		.loc 1 419 9 is_stmt 1 view .LVU455
 419:Core/Src/esp32.c ****             break;      // in the communication
 2021              		.loc 1 419 20 is_stmt 0 view .LVU456
ARM GAS  /var/folders/9y/n02fl3g16gnf7ppy14xghdy80000gn/T//ccoB4Sfq.s 			page 48


 2022 0054 9DF80F30 		ldrb	r3, [sp, #15]	@ zero_extendqisi2
 419:Core/Src/esp32.c ****             break;      // in the communication
 2023              		.loc 1 419 12 view .LVU457
 2024 0058 012B     		cmp	r3, #1
 2025 005a E4D9     		bls	.L160
 404:Core/Src/esp32.c ****     do
 2026              		.loc 1 404 10 view .LVU458
 2027 005c 0020     		movs	r0, #0
 2028 005e E2E7     		b	.L160
 2029              	.L165:
 2030              		.align	2
 2031              	.L164:
 2032 0060 18000000 		.word	.LC15
 2033 0064 01020000 		.word	.LANCHOR0+513
 2034 0068 00000000 		.word	.LC14
 2035 006c 3C000000 		.word	.LC17
 2036 0070 48000000 		.word	.LC18
 2037 0074 34000000 		.word	.LC16
 2038              		.cfi_endproc
 2039              	.LFE1176:
 2041              		.section	.rodata.Wifi_Station_Disconnect.str1.4,"aMS",%progbits,1
 2042              		.align	2
 2043              	.LC19:
 2044 0000 41542B43 		.ascii	"AT+CWQAP\015\012\000"
 2044      57514150 
 2044      0D0A00
 2045              		.section	.text.Wifi_Station_Disconnect,"ax",%progbits
 2046              		.align	1
 2047              		.global	Wifi_Station_Disconnect
 2048              		.syntax unified
 2049              		.thumb
 2050              		.thumb_func
 2051              		.fpu fpv4-sp-d16
 2053              	Wifi_Station_Disconnect:
 2054              	.LFB1177:
 425:Core/Src/esp32.c **** // ################################################################################################
 426:Core/Src/esp32.c **** bool Wifi_Station_Disconnect(void)
 427:Core/Src/esp32.c **** {
 2055              		.loc 1 427 1 is_stmt 1 view -0
 2056              		.cfi_startproc
 2057              		@ args = 0, pretend = 0, frame = 8
 2058              		@ frame_needed = 0, uses_anonymous_args = 0
 2059 0000 00B5     		push	{lr}
 2060              		.cfi_def_cfa_offset 4
 2061              		.cfi_offset 14, -4
 2062 0002 85B0     		sub	sp, sp, #20
 2063              		.cfi_def_cfa_offset 24
 428:Core/Src/esp32.c ****     uint8_t result;
 2064              		.loc 1 428 5 view .LVU460
 429:Core/Src/esp32.c ****     bool returnVal = false;
 2065              		.loc 1 429 5 view .LVU461
 2066              	.LVL172:
 430:Core/Src/esp32.c ****     do
 2067              		.loc 1 430 5 view .LVU462
 431:Core/Src/esp32.c ****     {
 432:Core/Src/esp32.c ****         Wifi_RxClear();
 2068              		.loc 1 432 9 view .LVU463
ARM GAS  /var/folders/9y/n02fl3g16gnf7ppy14xghdy80000gn/T//ccoB4Sfq.s 			page 49


 2069 0004 FFF7FEFF 		bl	Wifi_RxClear
 2070              	.LVL173:
 433:Core/Src/esp32.c ****         sprintf((char *)Wifi.TxBuffer, "AT+CWQAP\r\n");
 2071              		.loc 1 433 9 view .LVU464
 2072 0008 134A     		ldr	r2, .L170
 2073 000a 02F2012C 		addw	ip, r2, #513
 2074 000e 134B     		ldr	r3, .L170+4
 2075 0010 03CB     		ldmia	r3!, {r0, r1}
 2076 0012 C2F80102 		str	r0, [r2, #513]	@ unaligned
 2077 0016 C2F80512 		str	r1, [r2, #517]	@ unaligned
 2078 001a 1988     		ldrh	r1, [r3]	@ unaligned
 2079 001c 9B78     		ldrb	r3, [r3, #2]	@ zero_extendqisi2
 2080 001e A2F80912 		strh	r1, [r2, #521]	@ unaligned
 2081 0022 82F80B32 		strb	r3, [r2, #523]
 434:Core/Src/esp32.c ****         if (Wifi_SendString((char *)Wifi.TxBuffer) == false)
 2082              		.loc 1 434 9 view .LVU465
 2083              		.loc 1 434 13 is_stmt 0 view .LVU466
 2084 0026 6046     		mov	r0, ip
 2085 0028 FFF7FEFF 		bl	Wifi_SendString
 2086              	.LVL174:
 2087              		.loc 1 434 12 view .LVU467
 2088 002c 10B9     		cbnz	r0, .L169
 2089              	.L167:
 2090              	.LVL175:
 435:Core/Src/esp32.c ****             break;
 436:Core/Src/esp32.c ****         if (Wifi_WaitForString(_WIFI_WAIT_TIME_LOW, &result, 2, "OK", "ERROR") == false)
 437:Core/Src/esp32.c ****             break;       // The timeout was completed and the string was not there
 438:Core/Src/esp32.c ****         if (result == 2) // It was find the "ERROR" String in the receiving information
 439:Core/Src/esp32.c ****             break;
 440:Core/Src/esp32.c ****         returnVal = true;
 441:Core/Src/esp32.c ****     } while (0);
 2091              		.loc 1 441 13 is_stmt 1 view .LVU468
 442:Core/Src/esp32.c ****     return returnVal;
 2092              		.loc 1 442 5 view .LVU469
 443:Core/Src/esp32.c **** }
 2093              		.loc 1 443 1 is_stmt 0 view .LVU470
 2094 002e 05B0     		add	sp, sp, #20
 2095              		.cfi_remember_state
 2096              		.cfi_def_cfa_offset 4
 2097              		@ sp needed
 2098 0030 5DF804FB 		ldr	pc, [sp], #4
 2099              	.LVL176:
 2100              	.L169:
 2101              		.cfi_restore_state
 436:Core/Src/esp32.c ****             break;       // The timeout was completed and the string was not there
 2102              		.loc 1 436 9 is_stmt 1 view .LVU471
 436:Core/Src/esp32.c ****             break;       // The timeout was completed and the string was not there
 2103              		.loc 1 436 13 is_stmt 0 view .LVU472
 2104 0034 0A4B     		ldr	r3, .L170+8
 2105 0036 0093     		str	r3, [sp]
 2106 0038 0A4B     		ldr	r3, .L170+12
 2107 003a 0222     		movs	r2, #2
 2108 003c 0DF10F01 		add	r1, sp, #15
 2109 0040 4FF47A70 		mov	r0, #1000
 2110 0044 FFF7FEFF 		bl	Wifi_WaitForString
 2111              	.LVL177:
 436:Core/Src/esp32.c ****             break;       // The timeout was completed and the string was not there
ARM GAS  /var/folders/9y/n02fl3g16gnf7ppy14xghdy80000gn/T//ccoB4Sfq.s 			page 50


 2112              		.loc 1 436 12 view .LVU473
 2113 0048 0028     		cmp	r0, #0
 2114 004a F0D0     		beq	.L167
 438:Core/Src/esp32.c ****             break;
 2115              		.loc 1 438 9 is_stmt 1 view .LVU474
 438:Core/Src/esp32.c ****             break;
 2116              		.loc 1 438 20 is_stmt 0 view .LVU475
 2117 004c 9DF80F30 		ldrb	r3, [sp, #15]	@ zero_extendqisi2
 438:Core/Src/esp32.c ****             break;
 2118              		.loc 1 438 12 view .LVU476
 2119 0050 022B     		cmp	r3, #2
 2120 0052 ECD1     		bne	.L167
 429:Core/Src/esp32.c ****     do
 2121              		.loc 1 429 10 view .LVU477
 2122 0054 0020     		movs	r0, #0
 2123 0056 EAE7     		b	.L167
 2124              	.L171:
 2125              		.align	2
 2126              	.L170:
 2127 0058 00000000 		.word	.LANCHOR0
 2128 005c 00000000 		.word	.LC19
 2129 0060 0C000000 		.word	.LC2
 2130 0064 08000000 		.word	.LC1
 2131              		.cfi_endproc
 2132              	.LFE1177:
 2134              		.section	.rodata.Wifi_Station_SetIp.str1.4,"aMS",%progbits,1
 2135              		.align	2
 2136              	.LC20:
 2137 0000 41542B43 		.ascii	"AT+CIPSTA=\"%s\",\"%s\",\"%s\"\015\012\000"
 2137      49505354 
 2137      413D2225 
 2137      73222C22 
 2137      2573222C 
 2138              		.section	.text.Wifi_Station_SetIp,"ax",%progbits
 2139              		.align	1
 2140              		.global	Wifi_Station_SetIp
 2141              		.syntax unified
 2142              		.thumb
 2143              		.thumb_func
 2144              		.fpu fpv4-sp-d16
 2146              	Wifi_Station_SetIp:
 2147              	.LVL178:
 2148              	.LFB1178:
 444:Core/Src/esp32.c **** // ################################################################################################
 445:Core/Src/esp32.c **** bool Wifi_Station_SetIp(char *IP, char *GateWay, char *NetMask)
 446:Core/Src/esp32.c **** {
 2149              		.loc 1 446 1 is_stmt 1 view -0
 2150              		.cfi_startproc
 2151              		@ args = 0, pretend = 0, frame = 8
 2152              		@ frame_needed = 0, uses_anonymous_args = 0
 2153              		.loc 1 446 1 is_stmt 0 view .LVU479
 2154 0000 F0B5     		push	{r4, r5, r6, r7, lr}
 2155              		.cfi_def_cfa_offset 20
 2156              		.cfi_offset 4, -20
 2157              		.cfi_offset 5, -16
 2158              		.cfi_offset 6, -12
 2159              		.cfi_offset 7, -8
ARM GAS  /var/folders/9y/n02fl3g16gnf7ppy14xghdy80000gn/T//ccoB4Sfq.s 			page 51


 2160              		.cfi_offset 14, -4
 2161 0002 85B0     		sub	sp, sp, #20
 2162              		.cfi_def_cfa_offset 40
 2163 0004 0446     		mov	r4, r0
 2164 0006 0D46     		mov	r5, r1
 2165 0008 1646     		mov	r6, r2
 447:Core/Src/esp32.c ****     uint8_t result;
 2166              		.loc 1 447 5 is_stmt 1 view .LVU480
 448:Core/Src/esp32.c ****     bool returnVal = false;
 2167              		.loc 1 448 5 view .LVU481
 2168              	.LVL179:
 449:Core/Src/esp32.c ****     do
 2169              		.loc 1 449 5 view .LVU482
 450:Core/Src/esp32.c ****     {
 451:Core/Src/esp32.c ****         Wifi_RxClear();
 2170              		.loc 1 451 9 view .LVU483
 2171 000a FFF7FEFF 		bl	Wifi_RxClear
 2172              	.LVL180:
 452:Core/Src/esp32.c ****         sprintf((char *)Wifi.TxBuffer, "AT+CIPSTA=\"%s\",\"%s\",\"%s\"\r\n", IP, GateWay, NetMask);
 2173              		.loc 1 452 9 view .LVU484
 2174 000e 134F     		ldr	r7, .L177
 2175 0010 0096     		str	r6, [sp]
 2176 0012 2B46     		mov	r3, r5
 2177 0014 2246     		mov	r2, r4
 2178 0016 1249     		ldr	r1, .L177+4
 2179 0018 3846     		mov	r0, r7
 2180 001a FFF7FEFF 		bl	sprintf
 2181              	.LVL181:
 453:Core/Src/esp32.c ****         if (Wifi_SendString((char *)Wifi.TxBuffer) == false)
 2182              		.loc 1 453 9 view .LVU485
 2183              		.loc 1 453 13 is_stmt 0 view .LVU486
 2184 001e 3846     		mov	r0, r7
 2185 0020 FFF7FEFF 		bl	Wifi_SendString
 2186              	.LVL182:
 2187              		.loc 1 453 12 view .LVU487
 2188 0024 08B9     		cbnz	r0, .L176
 2189              	.LVL183:
 2190              	.L173:
 454:Core/Src/esp32.c ****             break;
 455:Core/Src/esp32.c ****         if (Wifi_WaitForString(_WIFI_WAIT_TIME_LOW, &result, 2, "OK", "ERROR") == false)
 456:Core/Src/esp32.c ****             break;       // The timeout was completed and the string was not there
 457:Core/Src/esp32.c ****         if (result == 2) // It was find the "ERROR" String in the receiving information
 458:Core/Src/esp32.c ****             break;
 459:Core/Src/esp32.c ****         Wifi.StationDhcp = false;
 460:Core/Src/esp32.c ****         returnVal = true;
 461:Core/Src/esp32.c ****     } while (0);
 2191              		.loc 1 461 13 is_stmt 1 view .LVU488
 462:Core/Src/esp32.c ****     return returnVal;
 2192              		.loc 1 462 5 view .LVU489
 463:Core/Src/esp32.c **** }
 2193              		.loc 1 463 1 is_stmt 0 view .LVU490
 2194 0026 05B0     		add	sp, sp, #20
 2195              		.cfi_remember_state
 2196              		.cfi_def_cfa_offset 20
 2197              		@ sp needed
 2198 0028 F0BD     		pop	{r4, r5, r6, r7, pc}
 2199              	.LVL184:
ARM GAS  /var/folders/9y/n02fl3g16gnf7ppy14xghdy80000gn/T//ccoB4Sfq.s 			page 52


 2200              	.L176:
 2201              		.cfi_restore_state
 455:Core/Src/esp32.c ****             break;       // The timeout was completed and the string was not there
 2202              		.loc 1 455 9 is_stmt 1 view .LVU491
 455:Core/Src/esp32.c ****             break;       // The timeout was completed and the string was not there
 2203              		.loc 1 455 13 is_stmt 0 view .LVU492
 2204 002a 0E4B     		ldr	r3, .L177+8
 2205 002c 0093     		str	r3, [sp]
 2206 002e 0E4B     		ldr	r3, .L177+12
 2207 0030 0222     		movs	r2, #2
 2208 0032 0DF10F01 		add	r1, sp, #15
 2209 0036 4FF47A70 		mov	r0, #1000
 2210 003a FFF7FEFF 		bl	Wifi_WaitForString
 2211              	.LVL185:
 455:Core/Src/esp32.c ****             break;       // The timeout was completed and the string was not there
 2212              		.loc 1 455 12 view .LVU493
 2213 003e 0028     		cmp	r0, #0
 2214 0040 F1D0     		beq	.L173
 457:Core/Src/esp32.c ****             break;
 2215              		.loc 1 457 9 is_stmt 1 view .LVU494
 457:Core/Src/esp32.c ****             break;
 2216              		.loc 1 457 20 is_stmt 0 view .LVU495
 2217 0042 9DF80F30 		ldrb	r3, [sp, #15]	@ zero_extendqisi2
 457:Core/Src/esp32.c ****             break;
 2218              		.loc 1 457 12 view .LVU496
 2219 0046 022B     		cmp	r3, #2
 2220 0048 05D0     		beq	.L174
 459:Core/Src/esp32.c ****         returnVal = true;
 2221              		.loc 1 459 9 is_stmt 1 view .LVU497
 459:Core/Src/esp32.c ****         returnVal = true;
 2222              		.loc 1 459 26 is_stmt 0 view .LVU498
 2223 004a A7F20123 		subw	r3, r7, #513
 2224 004e 0022     		movs	r2, #0
 2225 0050 83F83A26 		strb	r2, [r3, #1594]
 460:Core/Src/esp32.c ****     } while (0);
 2226              		.loc 1 460 9 is_stmt 1 view .LVU499
 2227              	.LVL186:
 460:Core/Src/esp32.c ****     } while (0);
 2228              		.loc 1 460 9 is_stmt 0 view .LVU500
 2229 0054 E7E7     		b	.L173
 2230              	.LVL187:
 2231              	.L174:
 448:Core/Src/esp32.c ****     do
 2232              		.loc 1 448 10 view .LVU501
 2233 0056 0020     		movs	r0, #0
 2234 0058 E5E7     		b	.L173
 2235              	.L178:
 2236 005a 00BF     		.align	2
 2237              	.L177:
 2238 005c 01020000 		.word	.LANCHOR0+513
 2239 0060 00000000 		.word	.LC20
 2240 0064 0C000000 		.word	.LC2
 2241 0068 08000000 		.word	.LC1
 2242              		.cfi_endproc
 2243              	.LFE1178:
 2245              		.section	.rodata.Wifi_Station_DhcpEnable.str1.4,"aMS",%progbits,1
 2246              		.align	2
ARM GAS  /var/folders/9y/n02fl3g16gnf7ppy14xghdy80000gn/T//ccoB4Sfq.s 			page 53


 2247              	.LC21:
 2248 0000 41542B43 		.ascii	"AT+CWDHCP=1,%d\015\012\000"
 2248      57444843 
 2248      503D312C 
 2248      25640D0A 
 2248      00
 2249              		.section	.text.Wifi_Station_DhcpEnable,"ax",%progbits
 2250              		.align	1
 2251              		.global	Wifi_Station_DhcpEnable
 2252              		.syntax unified
 2253              		.thumb
 2254              		.thumb_func
 2255              		.fpu fpv4-sp-d16
 2257              	Wifi_Station_DhcpEnable:
 2258              	.LVL188:
 2259              	.LFB1179:
 464:Core/Src/esp32.c **** // ################################################################################################
 465:Core/Src/esp32.c **** bool Wifi_Station_DhcpEnable(bool Enable)
 466:Core/Src/esp32.c **** {
 2260              		.loc 1 466 1 is_stmt 1 view -0
 2261              		.cfi_startproc
 2262              		@ args = 0, pretend = 0, frame = 8
 2263              		@ frame_needed = 0, uses_anonymous_args = 0
 2264              		.loc 1 466 1 is_stmt 0 view .LVU503
 2265 0000 30B5     		push	{r4, r5, lr}
 2266              		.cfi_def_cfa_offset 12
 2267              		.cfi_offset 4, -12
 2268              		.cfi_offset 5, -8
 2269              		.cfi_offset 14, -4
 2270 0002 85B0     		sub	sp, sp, #20
 2271              		.cfi_def_cfa_offset 32
 2272 0004 0446     		mov	r4, r0
 467:Core/Src/esp32.c ****     uint8_t result;
 2273              		.loc 1 467 5 is_stmt 1 view .LVU504
 468:Core/Src/esp32.c ****     bool returnVal = false;
 2274              		.loc 1 468 5 view .LVU505
 2275              	.LVL189:
 469:Core/Src/esp32.c ****     do
 2276              		.loc 1 469 5 view .LVU506
 470:Core/Src/esp32.c ****     {
 471:Core/Src/esp32.c ****         /*
 472:Core/Src/esp32.c ****          * It makes the DHCP from the Station Mode enable
 473:Core/Src/esp32.c ****          */
 474:Core/Src/esp32.c ****         Wifi_RxClear();
 2277              		.loc 1 474 9 view .LVU507
 2278 0006 FFF7FEFF 		bl	Wifi_RxClear
 2279              	.LVL190:
 475:Core/Src/esp32.c ****         sprintf((char *)Wifi.TxBuffer, "AT+CWDHCP=1,%d\r\n", Enable);
 2280              		.loc 1 475 9 view .LVU508
 2281 000a 114D     		ldr	r5, .L184
 2282 000c 2246     		mov	r2, r4
 2283 000e 1149     		ldr	r1, .L184+4
 2284 0010 2846     		mov	r0, r5
 2285 0012 FFF7FEFF 		bl	sprintf
 2286              	.LVL191:
 476:Core/Src/esp32.c ****         if (Wifi_SendString((char *)Wifi.TxBuffer) == false)
 2287              		.loc 1 476 9 view .LVU509
ARM GAS  /var/folders/9y/n02fl3g16gnf7ppy14xghdy80000gn/T//ccoB4Sfq.s 			page 54


 2288              		.loc 1 476 13 is_stmt 0 view .LVU510
 2289 0016 2846     		mov	r0, r5
 2290 0018 FFF7FEFF 		bl	Wifi_SendString
 2291              	.LVL192:
 2292              		.loc 1 476 12 view .LVU511
 2293 001c 08B9     		cbnz	r0, .L183
 2294              	.LVL193:
 2295              	.L180:
 477:Core/Src/esp32.c ****             break;
 478:Core/Src/esp32.c ****         if (Wifi_WaitForString(_WIFI_WAIT_TIME_LOW, &result, 2, "OK", "ERROR") == false)
 479:Core/Src/esp32.c ****             break;       // The timeout was completed and the string was not there
 480:Core/Src/esp32.c ****         if (result == 2) // It was find the "ERROR" String in the receiving information
 481:Core/Src/esp32.c ****             break;
 482:Core/Src/esp32.c ****         Wifi.StationDhcp = Enable;
 483:Core/Src/esp32.c ****         returnVal = true;
 484:Core/Src/esp32.c ****     } while (0);
 2296              		.loc 1 484 13 is_stmt 1 view .LVU512
 485:Core/Src/esp32.c ****     return returnVal;
 2297              		.loc 1 485 5 view .LVU513
 486:Core/Src/esp32.c **** }
 2298              		.loc 1 486 1 is_stmt 0 view .LVU514
 2299 001e 05B0     		add	sp, sp, #20
 2300              		.cfi_remember_state
 2301              		.cfi_def_cfa_offset 12
 2302              		@ sp needed
 2303 0020 30BD     		pop	{r4, r5, pc}
 2304              	.LVL194:
 2305              	.L183:
 2306              		.cfi_restore_state
 478:Core/Src/esp32.c ****             break;       // The timeout was completed and the string was not there
 2307              		.loc 1 478 9 is_stmt 1 view .LVU515
 478:Core/Src/esp32.c ****             break;       // The timeout was completed and the string was not there
 2308              		.loc 1 478 13 is_stmt 0 view .LVU516
 2309 0022 0D4B     		ldr	r3, .L184+8
 2310 0024 0093     		str	r3, [sp]
 2311 0026 0D4B     		ldr	r3, .L184+12
 2312 0028 0222     		movs	r2, #2
 2313 002a 0DF10F01 		add	r1, sp, #15
 2314 002e 4FF47A70 		mov	r0, #1000
 2315 0032 FFF7FEFF 		bl	Wifi_WaitForString
 2316              	.LVL195:
 478:Core/Src/esp32.c ****             break;       // The timeout was completed and the string was not there
 2317              		.loc 1 478 12 view .LVU517
 2318 0036 0028     		cmp	r0, #0
 2319 0038 F1D0     		beq	.L180
 480:Core/Src/esp32.c ****             break;
 2320              		.loc 1 480 9 is_stmt 1 view .LVU518
 480:Core/Src/esp32.c ****             break;
 2321              		.loc 1 480 20 is_stmt 0 view .LVU519
 2322 003a 9DF80F30 		ldrb	r3, [sp, #15]	@ zero_extendqisi2
 480:Core/Src/esp32.c ****             break;
 2323              		.loc 1 480 12 view .LVU520
 2324 003e 022B     		cmp	r3, #2
 2325 0040 04D0     		beq	.L181
 482:Core/Src/esp32.c ****         returnVal = true;
 2326              		.loc 1 482 9 is_stmt 1 view .LVU521
 482:Core/Src/esp32.c ****         returnVal = true;
ARM GAS  /var/folders/9y/n02fl3g16gnf7ppy14xghdy80000gn/T//ccoB4Sfq.s 			page 55


 2327              		.loc 1 482 26 is_stmt 0 view .LVU522
 2328 0042 A5F20123 		subw	r3, r5, #513
 2329 0046 83F83A46 		strb	r4, [r3, #1594]
 483:Core/Src/esp32.c ****     } while (0);
 2330              		.loc 1 483 9 is_stmt 1 view .LVU523
 2331              	.LVL196:
 483:Core/Src/esp32.c ****     } while (0);
 2332              		.loc 1 483 9 is_stmt 0 view .LVU524
 2333 004a E8E7     		b	.L180
 2334              	.LVL197:
 2335              	.L181:
 468:Core/Src/esp32.c ****     do
 2336              		.loc 1 468 10 view .LVU525
 2337 004c 0020     		movs	r0, #0
 2338 004e E6E7     		b	.L180
 2339              	.L185:
 2340              		.align	2
 2341              	.L184:
 2342 0050 01020000 		.word	.LANCHOR0+513
 2343 0054 00000000 		.word	.LC21
 2344 0058 0C000000 		.word	.LC2
 2345 005c 08000000 		.word	.LC1
 2346              		.cfi_endproc
 2347              	.LFE1179:
 2349              		.section	.rodata.Wifi_Station_DhcpIsEnable.str1.4,"aMS",%progbits,1
 2350              		.align	2
 2351              	.LC22:
 2352 0000 41542B43 		.ascii	"AT+CWDHCP?\015\012\000"
 2352      57444843 
 2352      503F0D0A 
 2352      00
 2353              		.section	.text.Wifi_Station_DhcpIsEnable,"ax",%progbits
 2354              		.align	1
 2355              		.global	Wifi_Station_DhcpIsEnable
 2356              		.syntax unified
 2357              		.thumb
 2358              		.thumb_func
 2359              		.fpu fpv4-sp-d16
 2361              	Wifi_Station_DhcpIsEnable:
 2362              	.LFB1180:
 487:Core/Src/esp32.c **** // ################################################################################################
 488:Core/Src/esp32.c **** bool Wifi_Station_DhcpIsEnable(void)
 489:Core/Src/esp32.c **** {
 2363              		.loc 1 489 1 is_stmt 1 view -0
 2364              		.cfi_startproc
 2365              		@ args = 0, pretend = 0, frame = 8
 2366              		@ frame_needed = 0, uses_anonymous_args = 0
 2367 0000 10B5     		push	{r4, lr}
 2368              		.cfi_def_cfa_offset 8
 2369              		.cfi_offset 4, -8
 2370              		.cfi_offset 14, -4
 2371 0002 84B0     		sub	sp, sp, #16
 2372              		.cfi_def_cfa_offset 24
 490:Core/Src/esp32.c ****     uint8_t result;
 2373              		.loc 1 490 5 view .LVU527
 491:Core/Src/esp32.c ****     bool returnVal = false;
 2374              		.loc 1 491 5 view .LVU528
ARM GAS  /var/folders/9y/n02fl3g16gnf7ppy14xghdy80000gn/T//ccoB4Sfq.s 			page 56


 2375              	.LVL198:
 492:Core/Src/esp32.c ****     do
 2376              		.loc 1 492 5 view .LVU529
 493:Core/Src/esp32.c ****     {
 494:Core/Src/esp32.c ****         /*
 495:Core/Src/esp32.c ****          * It makes a question to the micro-controller to know how is the status of the
 496:Core/Src/esp32.c ****          * DHCP process inside of it
 497:Core/Src/esp32.c ****          */
 498:Core/Src/esp32.c ****         Wifi_RxClear();
 2377              		.loc 1 498 9 view .LVU530
 2378 0004 FFF7FEFF 		bl	Wifi_RxClear
 2379              	.LVL199:
 499:Core/Src/esp32.c ****         sprintf((char *)Wifi.TxBuffer, "AT+CWDHCP?\r\n");
 2380              		.loc 1 499 9 view .LVU531
 2381 0008 294C     		ldr	r4, .L197
 2382 000a 04F2012C 		addw	ip, r4, #513
 2383 000e 294B     		ldr	r3, .L197+4
 2384 0010 07CB     		ldmia	r3!, {r0, r1, r2}
 2385 0012 C4F80102 		str	r0, [r4, #513]	@ unaligned
 2386 0016 C4F80512 		str	r1, [r4, #517]	@ unaligned
 2387 001a C4F80922 		str	r2, [r4, #521]	@ unaligned
 2388 001e 1B78     		ldrb	r3, [r3]	@ zero_extendqisi2
 2389 0020 84F80D32 		strb	r3, [r4, #525]
 500:Core/Src/esp32.c ****         if (Wifi_SendString((char *)Wifi.TxBuffer) == false)
 2390              		.loc 1 500 9 view .LVU532
 2391              		.loc 1 500 13 is_stmt 0 view .LVU533
 2392 0024 6046     		mov	r0, ip
 2393 0026 FFF7FEFF 		bl	Wifi_SendString
 2394              	.LVL200:
 2395              		.loc 1 500 12 view .LVU534
 2396 002a 08B9     		cbnz	r0, .L195
 2397              	.L187:
 2398              	.LVL201:
 501:Core/Src/esp32.c ****             break;
 502:Core/Src/esp32.c ****         if (Wifi_WaitForString(_WIFI_WAIT_TIME_LOW, &result, 2, "OK", "ERROR") == false)
 503:Core/Src/esp32.c ****             break;       // The timeout was completed and the string was not there
 504:Core/Src/esp32.c ****         if (result == 2) // It was find the "ERROR" String in the receiving information
 505:Core/Src/esp32.c ****             break;
 506:Core/Src/esp32.c ****         if (Wifi_ReturnInteger((int32_t *)&result, 1, ":") == false)
 507:Core/Src/esp32.c ****             break; // It searches for a ':' Character to know
 508:Core/Src/esp32.c ****                    // the next integer value after that
 509:Core/Src/esp32.c ****         switch (result)
 510:Core/Src/esp32.c ****         {
 511:Core/Src/esp32.c ****         case 0:
 512:Core/Src/esp32.c ****             Wifi.StationDhcp = false;
 513:Core/Src/esp32.c ****             Wifi.SoftApDhcp = false;
 514:Core/Src/esp32.c ****             break;
 515:Core/Src/esp32.c ****         case 1:
 516:Core/Src/esp32.c ****             Wifi.StationDhcp = false;
 517:Core/Src/esp32.c ****             Wifi.SoftApDhcp = true;
 518:Core/Src/esp32.c ****             break;
 519:Core/Src/esp32.c ****         case 2:
 520:Core/Src/esp32.c ****             Wifi.StationDhcp = true;
 521:Core/Src/esp32.c ****             Wifi.SoftApDhcp = false;
 522:Core/Src/esp32.c ****             break;
 523:Core/Src/esp32.c ****         case 3:
 524:Core/Src/esp32.c ****             Wifi.StationDhcp = true;
ARM GAS  /var/folders/9y/n02fl3g16gnf7ppy14xghdy80000gn/T//ccoB4Sfq.s 			page 57


 525:Core/Src/esp32.c ****             Wifi.SoftApDhcp = true;
 526:Core/Src/esp32.c ****             break;
 527:Core/Src/esp32.c ****         }
 528:Core/Src/esp32.c ****         returnVal = true;
 529:Core/Src/esp32.c ****     } while (0);
 2399              		.loc 1 529 13 is_stmt 1 view .LVU535
 530:Core/Src/esp32.c ****     return returnVal;
 2400              		.loc 1 530 5 view .LVU536
 531:Core/Src/esp32.c **** }
 2401              		.loc 1 531 1 is_stmt 0 view .LVU537
 2402 002c 04B0     		add	sp, sp, #16
 2403              		.cfi_remember_state
 2404              		.cfi_def_cfa_offset 8
 2405              		@ sp needed
 2406 002e 10BD     		pop	{r4, pc}
 2407              	.LVL202:
 2408              	.L195:
 2409              		.cfi_restore_state
 502:Core/Src/esp32.c ****             break;       // The timeout was completed and the string was not there
 2410              		.loc 1 502 9 is_stmt 1 view .LVU538
 502:Core/Src/esp32.c ****             break;       // The timeout was completed and the string was not there
 2411              		.loc 1 502 13 is_stmt 0 view .LVU539
 2412 0030 214B     		ldr	r3, .L197+8
 2413 0032 0093     		str	r3, [sp]
 2414 0034 214B     		ldr	r3, .L197+12
 2415 0036 0222     		movs	r2, #2
 2416 0038 0DF10F01 		add	r1, sp, #15
 2417 003c 4FF47A70 		mov	r0, #1000
 2418 0040 FFF7FEFF 		bl	Wifi_WaitForString
 2419              	.LVL203:
 502:Core/Src/esp32.c ****             break;       // The timeout was completed and the string was not there
 2420              		.loc 1 502 12 view .LVU540
 2421 0044 0028     		cmp	r0, #0
 2422 0046 F1D0     		beq	.L187
 504:Core/Src/esp32.c ****             break;
 2423              		.loc 1 504 9 is_stmt 1 view .LVU541
 504:Core/Src/esp32.c ****             break;
 2424              		.loc 1 504 20 is_stmt 0 view .LVU542
 2425 0048 9DF80F30 		ldrb	r3, [sp, #15]	@ zero_extendqisi2
 504:Core/Src/esp32.c ****             break;
 2426              		.loc 1 504 12 view .LVU543
 2427 004c 022B     		cmp	r3, #2
 2428 004e 01D1     		bne	.L196
 491:Core/Src/esp32.c ****     do
 2429              		.loc 1 491 10 view .LVU544
 2430 0050 0020     		movs	r0, #0
 2431 0052 EBE7     		b	.L187
 2432              	.L196:
 506:Core/Src/esp32.c ****             break; // It searches for a ':' Character to know
 2433              		.loc 1 506 9 is_stmt 1 view .LVU545
 506:Core/Src/esp32.c ****             break; // It searches for a ':' Character to know
 2434              		.loc 1 506 13 is_stmt 0 view .LVU546
 2435 0054 1A4A     		ldr	r2, .L197+16
 2436 0056 0121     		movs	r1, #1
 2437 0058 0DF10F00 		add	r0, sp, #15
 2438 005c FFF7FEFF 		bl	Wifi_ReturnInteger
 2439              	.LVL204:
ARM GAS  /var/folders/9y/n02fl3g16gnf7ppy14xghdy80000gn/T//ccoB4Sfq.s 			page 58


 506:Core/Src/esp32.c ****             break; // It searches for a ':' Character to know
 2440              		.loc 1 506 12 view .LVU547
 2441 0060 0028     		cmp	r0, #0
 2442 0062 E3D0     		beq	.L187
 509:Core/Src/esp32.c ****         {
 2443              		.loc 1 509 9 is_stmt 1 view .LVU548
 2444 0064 9DF80F30 		ldrb	r3, [sp, #15]	@ zero_extendqisi2
 2445 0068 032B     		cmp	r3, #3
 2446 006a DFD8     		bhi	.L187
 2447 006c DFE803F0 		tbb	[pc, r3]
 2448              	.L189:
 2449 0070 02       		.byte	(.L192-.L189)/2
 2450 0071 09       		.byte	(.L191-.L189)/2
 2451 0072 11       		.byte	(.L190-.L189)/2
 2452 0073 19       		.byte	(.L188-.L189)/2
 2453              		.p2align 1
 2454              	.L192:
 512:Core/Src/esp32.c ****             Wifi.SoftApDhcp = false;
 2455              		.loc 1 512 13 view .LVU549
 512:Core/Src/esp32.c ****             Wifi.SoftApDhcp = false;
 2456              		.loc 1 512 30 is_stmt 0 view .LVU550
 2457 0074 0E4B     		ldr	r3, .L197
 2458 0076 0022     		movs	r2, #0
 2459 0078 83F83A26 		strb	r2, [r3, #1594]
 513:Core/Src/esp32.c ****             break;
 2460              		.loc 1 513 13 is_stmt 1 view .LVU551
 513:Core/Src/esp32.c ****             break;
 2461              		.loc 1 513 29 is_stmt 0 view .LVU552
 2462 007c 83F84B26 		strb	r2, [r3, #1611]
 514:Core/Src/esp32.c ****         case 1:
 2463              		.loc 1 514 13 is_stmt 1 view .LVU553
 2464 0080 D4E7     		b	.L187
 2465              	.L191:
 516:Core/Src/esp32.c ****             Wifi.SoftApDhcp = true;
 2466              		.loc 1 516 13 view .LVU554
 516:Core/Src/esp32.c ****             Wifi.SoftApDhcp = true;
 2467              		.loc 1 516 30 is_stmt 0 view .LVU555
 2468 0082 0B4B     		ldr	r3, .L197
 2469 0084 0022     		movs	r2, #0
 2470 0086 83F83A26 		strb	r2, [r3, #1594]
 517:Core/Src/esp32.c ****             break;
 2471              		.loc 1 517 13 is_stmt 1 view .LVU556
 517:Core/Src/esp32.c ****             break;
 2472              		.loc 1 517 29 is_stmt 0 view .LVU557
 2473 008a 0122     		movs	r2, #1
 2474 008c 83F84B26 		strb	r2, [r3, #1611]
 518:Core/Src/esp32.c ****         case 2:
 2475              		.loc 1 518 13 is_stmt 1 view .LVU558
 2476 0090 CCE7     		b	.L187
 2477              	.L190:
 520:Core/Src/esp32.c ****             Wifi.SoftApDhcp = false;
 2478              		.loc 1 520 13 view .LVU559
 520:Core/Src/esp32.c ****             Wifi.SoftApDhcp = false;
 2479              		.loc 1 520 30 is_stmt 0 view .LVU560
 2480 0092 074B     		ldr	r3, .L197
 2481 0094 0122     		movs	r2, #1
 2482 0096 83F83A26 		strb	r2, [r3, #1594]
ARM GAS  /var/folders/9y/n02fl3g16gnf7ppy14xghdy80000gn/T//ccoB4Sfq.s 			page 59


 521:Core/Src/esp32.c ****             break;
 2483              		.loc 1 521 13 is_stmt 1 view .LVU561
 521:Core/Src/esp32.c ****             break;
 2484              		.loc 1 521 29 is_stmt 0 view .LVU562
 2485 009a 0022     		movs	r2, #0
 2486 009c 83F84B26 		strb	r2, [r3, #1611]
 522:Core/Src/esp32.c ****         case 3:
 2487              		.loc 1 522 13 is_stmt 1 view .LVU563
 2488 00a0 C4E7     		b	.L187
 2489              	.L188:
 524:Core/Src/esp32.c ****             Wifi.SoftApDhcp = true;
 2490              		.loc 1 524 13 view .LVU564
 524:Core/Src/esp32.c ****             Wifi.SoftApDhcp = true;
 2491              		.loc 1 524 30 is_stmt 0 view .LVU565
 2492 00a2 034B     		ldr	r3, .L197
 2493 00a4 0122     		movs	r2, #1
 2494 00a6 83F83A26 		strb	r2, [r3, #1594]
 525:Core/Src/esp32.c ****             break;
 2495              		.loc 1 525 13 is_stmt 1 view .LVU566
 525:Core/Src/esp32.c ****             break;
 2496              		.loc 1 525 29 is_stmt 0 view .LVU567
 2497 00aa 83F84B26 		strb	r2, [r3, #1611]
 526:Core/Src/esp32.c ****         }
 2498              		.loc 1 526 13 is_stmt 1 view .LVU568
 2499 00ae BDE7     		b	.L187
 2500              	.L198:
 2501              		.align	2
 2502              	.L197:
 2503 00b0 00000000 		.word	.LANCHOR0
 2504 00b4 00000000 		.word	.LC22
 2505 00b8 0C000000 		.word	.LC2
 2506 00bc 08000000 		.word	.LC1
 2507 00c0 10000000 		.word	.LC10
 2508              		.cfi_endproc
 2509              	.LFE1180:
 2511              		.section	.rodata.Wifi_SoftAp_Create.str1.4,"aMS",%progbits,1
 2512              		.align	2
 2513              	.LC23:
 2514 0000 41542B43 		.ascii	"AT+CWSAP=\"%s\",\"%s\",%d,%d,%d,%d\015\012\000"
 2514      57534150 
 2514      3D222573 
 2514      222C2225 
 2514      73222C25 
 2515              		.section	.text.Wifi_SoftAp_Create,"ax",%progbits
 2516              		.align	1
 2517              		.global	Wifi_SoftAp_Create
 2518              		.syntax unified
 2519              		.thumb
 2520              		.thumb_func
 2521              		.fpu fpv4-sp-d16
 2523              	Wifi_SoftAp_Create:
 2524              	.LVL205:
 2525              	.LFB1181:
 532:Core/Src/esp32.c **** // ################################################################################################
 533:Core/Src/esp32.c **** // ################################################################################################
 534:Core/Src/esp32.c **** // ################################################################################################
 535:Core/Src/esp32.c **** // ################################################################################################
ARM GAS  /var/folders/9y/n02fl3g16gnf7ppy14xghdy80000gn/T//ccoB4Sfq.s 			page 60


 536:Core/Src/esp32.c **** bool Wifi_SoftAp_Create(char *SSID, char *password, uint8_t channel, WifiEncryptionType_t WifiEncry
 537:Core/Src/esp32.c **** {
 2526              		.loc 1 537 1 view -0
 2527              		.cfi_startproc
 2528              		@ args = 8, pretend = 0, frame = 8
 2529              		@ frame_needed = 0, uses_anonymous_args = 0
 2530              		.loc 1 537 1 is_stmt 0 view .LVU570
 2531 0000 2DE9F041 		push	{r4, r5, r6, r7, r8, lr}
 2532              		.cfi_def_cfa_offset 24
 2533              		.cfi_offset 4, -24
 2534              		.cfi_offset 5, -20
 2535              		.cfi_offset 6, -16
 2536              		.cfi_offset 7, -12
 2537              		.cfi_offset 8, -8
 2538              		.cfi_offset 14, -4
 2539 0004 86B0     		sub	sp, sp, #24
 2540              		.cfi_def_cfa_offset 48
 2541 0006 0446     		mov	r4, r0
 2542 0008 0D46     		mov	r5, r1
 2543 000a 1646     		mov	r6, r2
 2544 000c 1F46     		mov	r7, r3
 538:Core/Src/esp32.c ****     uint8_t result;
 2545              		.loc 1 538 5 is_stmt 1 view .LVU571
 539:Core/Src/esp32.c ****     bool returnVal = false;
 2546              		.loc 1 539 5 view .LVU572
 2547              	.LVL206:
 540:Core/Src/esp32.c ****     do
 2548              		.loc 1 540 5 view .LVU573
 541:Core/Src/esp32.c ****     {
 542:Core/Src/esp32.c ****         /*
 543:Core/Src/esp32.c ****          * It creates the SoftAP (Small WiFi Network) that it is possible with the ESP8266
 544:Core/Src/esp32.c ****          * the data of this network is defined by the inputs of the function
 545:Core/Src/esp32.c ****          */
 546:Core/Src/esp32.c ****         Wifi_RxClear();
 2549              		.loc 1 546 9 view .LVU574
 2550 000e FFF7FEFF 		bl	Wifi_RxClear
 2551              	.LVL207:
 547:Core/Src/esp32.c ****         sprintf((char *)Wifi.TxBuffer, "AT+CWSAP=\"%s\",\"%s\",%d,%d,%d,%d\r\n", SSID, password, ch
 2552              		.loc 1 547 9 view .LVU575
 2553 0012 DFF85C80 		ldr	r8, .L203+12
 2554 0016 9DF83430 		ldrb	r3, [sp, #52]	@ zero_extendqisi2
 2555 001a 0393     		str	r3, [sp, #12]
 2556 001c 9DF83030 		ldrb	r3, [sp, #48]	@ zero_extendqisi2
 2557 0020 0293     		str	r3, [sp, #8]
 2558 0022 0197     		str	r7, [sp, #4]
 2559 0024 0096     		str	r6, [sp]
 2560 0026 2B46     		mov	r3, r5
 2561 0028 2246     		mov	r2, r4
 2562 002a 0E49     		ldr	r1, .L203
 2563 002c 4046     		mov	r0, r8
 2564 002e FFF7FEFF 		bl	sprintf
 2565              	.LVL208:
 548:Core/Src/esp32.c ****         if (Wifi_SendString((char *)Wifi.TxBuffer) == false)
 2566              		.loc 1 548 9 view .LVU576
 2567              		.loc 1 548 13 is_stmt 0 view .LVU577
 2568 0032 4046     		mov	r0, r8
 2569 0034 FFF7FEFF 		bl	Wifi_SendString
ARM GAS  /var/folders/9y/n02fl3g16gnf7ppy14xghdy80000gn/T//ccoB4Sfq.s 			page 61


 2570              	.LVL209:
 2571              		.loc 1 548 12 view .LVU578
 2572 0038 10B9     		cbnz	r0, .L202
 2573              	.L200:
 2574              	.LVL210:
 549:Core/Src/esp32.c ****             break;
 550:Core/Src/esp32.c ****         if (Wifi_WaitForString(_WIFI_WAIT_TIME_LOW, &result, 2, "OK", "ERROR") == false)
 551:Core/Src/esp32.c ****             break;       // The timeout was completed and the string was not there
 552:Core/Src/esp32.c ****         if (result == 2) // It was find the "ERROR" String in the receiving information
 553:Core/Src/esp32.c ****             break;
 554:Core/Src/esp32.c **** 
 555:Core/Src/esp32.c ****         returnVal = true;
 556:Core/Src/esp32.c ****     } while (0);
 2575              		.loc 1 556 13 is_stmt 1 view .LVU579
 557:Core/Src/esp32.c ****     return returnVal;
 2576              		.loc 1 557 5 view .LVU580
 558:Core/Src/esp32.c **** }
 2577              		.loc 1 558 1 is_stmt 0 view .LVU581
 2578 003a 06B0     		add	sp, sp, #24
 2579              		.cfi_remember_state
 2580              		.cfi_def_cfa_offset 24
 2581              		@ sp needed
 2582 003c BDE8F081 		pop	{r4, r5, r6, r7, r8, pc}
 2583              	.LVL211:
 2584              	.L202:
 2585              		.cfi_restore_state
 550:Core/Src/esp32.c ****             break;       // The timeout was completed and the string was not there
 2586              		.loc 1 550 9 is_stmt 1 view .LVU582
 550:Core/Src/esp32.c ****             break;       // The timeout was completed and the string was not there
 2587              		.loc 1 550 13 is_stmt 0 view .LVU583
 2588 0040 094B     		ldr	r3, .L203+4
 2589 0042 0093     		str	r3, [sp]
 2590 0044 094B     		ldr	r3, .L203+8
 2591 0046 0222     		movs	r2, #2
 2592 0048 0DF11701 		add	r1, sp, #23
 2593 004c 4FF47A70 		mov	r0, #1000
 2594 0050 FFF7FEFF 		bl	Wifi_WaitForString
 2595              	.LVL212:
 550:Core/Src/esp32.c ****             break;       // The timeout was completed and the string was not there
 2596              		.loc 1 550 12 view .LVU584
 2597 0054 0028     		cmp	r0, #0
 2598 0056 F0D0     		beq	.L200
 552:Core/Src/esp32.c ****             break;
 2599              		.loc 1 552 9 is_stmt 1 view .LVU585
 552:Core/Src/esp32.c ****             break;
 2600              		.loc 1 552 20 is_stmt 0 view .LVU586
 2601 0058 9DF81730 		ldrb	r3, [sp, #23]	@ zero_extendqisi2
 552:Core/Src/esp32.c ****             break;
 2602              		.loc 1 552 12 view .LVU587
 2603 005c 022B     		cmp	r3, #2
 2604 005e ECD1     		bne	.L200
 539:Core/Src/esp32.c ****     do
 2605              		.loc 1 539 10 view .LVU588
 2606 0060 0020     		movs	r0, #0
 2607 0062 EAE7     		b	.L200
 2608              	.L204:
 2609              		.align	2
ARM GAS  /var/folders/9y/n02fl3g16gnf7ppy14xghdy80000gn/T//ccoB4Sfq.s 			page 62


 2610              	.L203:
 2611 0064 00000000 		.word	.LC23
 2612 0068 0C000000 		.word	.LC2
 2613 006c 08000000 		.word	.LC1
 2614 0070 01020000 		.word	.LANCHOR0+513
 2615              		.cfi_endproc
 2616              	.LFE1181:
 2618              		.section	.rodata.Wifi_GetApConnection.str1.4,"aMS",%progbits,1
 2619              		.align	2
 2620              	.LC24:
 2621 0000 41542B43 		.ascii	"AT+CWJAP?\015\012\000"
 2621      574A4150 
 2621      3F0D0A00 
 2622              		.align	2
 2623              	.LC25:
 2624 000c 3A2200   		.ascii	":\"\000"
 2625 000f 00       		.align	2
 2626              	.LC26:
 2627 0010 4E6F2041 		.ascii	"No AP\000"
 2627      5000
 2628              		.section	.text.Wifi_GetApConnection,"ax",%progbits
 2629              		.align	1
 2630              		.global	Wifi_GetApConnection
 2631              		.syntax unified
 2632              		.thumb
 2633              		.thumb_func
 2634              		.fpu fpv4-sp-d16
 2636              	Wifi_GetApConnection:
 2637              	.LFB1182:
 559:Core/Src/esp32.c **** // ################################################################################################
 560:Core/Src/esp32.c **** bool Wifi_GetApConnection(void)
 561:Core/Src/esp32.c **** {
 2638              		.loc 1 561 1 is_stmt 1 view -0
 2639              		.cfi_startproc
 2640              		@ args = 0, pretend = 0, frame = 8
 2641              		@ frame_needed = 0, uses_anonymous_args = 0
 2642 0000 F0B5     		push	{r4, r5, r6, r7, lr}
 2643              		.cfi_def_cfa_offset 20
 2644              		.cfi_offset 4, -20
 2645              		.cfi_offset 5, -16
 2646              		.cfi_offset 6, -12
 2647              		.cfi_offset 7, -8
 2648              		.cfi_offset 14, -4
 2649 0002 85B0     		sub	sp, sp, #20
 2650              		.cfi_def_cfa_offset 40
 562:Core/Src/esp32.c ****     bool returnVal = false;
 2651              		.loc 1 562 5 view .LVU590
 2652              	.LVL213:
 563:Core/Src/esp32.c ****     uint8_t result;
 2653              		.loc 1 563 5 view .LVU591
 564:Core/Src/esp32.c ****     do
 2654              		.loc 1 564 5 view .LVU592
 2655              	.LBB7:
 565:Core/Src/esp32.c ****     {
 566:Core/Src/esp32.c ****         Wifi_RxClear();
 2656              		.loc 1 566 9 view .LVU593
 2657 0004 FFF7FEFF 		bl	Wifi_RxClear
ARM GAS  /var/folders/9y/n02fl3g16gnf7ppy14xghdy80000gn/T//ccoB4Sfq.s 			page 63


 2658              	.LVL214:
 567:Core/Src/esp32.c ****         // Get the name of the AP Connection
 568:Core/Src/esp32.c ****         sprintf((char *)Wifi.TxBuffer, "AT+CWJAP?\r\n");
 2659              		.loc 1 568 9 view .LVU594
 2660 0008 284C     		ldr	r4, .L213
 2661 000a 294B     		ldr	r3, .L213+4
 2662 000c 07CB     		ldmia	r3!, {r0, r1, r2}
 2663 000e C4F80102 		str	r0, [r4, #513]	@ unaligned
 2664 0012 C4F80512 		str	r1, [r4, #517]	@ unaligned
 2665 0016 C4F80922 		str	r2, [r4, #521]	@ unaligned
 569:Core/Src/esp32.c ****         if (Wifi_SendString((char *)Wifi.TxBuffer) == false)
 2666              		.loc 1 569 9 view .LVU595
 2667              		.loc 1 569 13 is_stmt 0 view .LVU596
 2668 001a 04F20120 		addw	r0, r4, #513
 2669 001e FFF7FEFF 		bl	Wifi_SendString
 2670              	.LVL215:
 2671              		.loc 1 569 12 view .LVU597
 2672 0022 0446     		mov	r4, r0
 2673 0024 10B9     		cbnz	r0, .L211
 2674              	.LVL216:
 2675              	.L206:
 2676              		.loc 1 569 12 view .LVU598
 2677              	.LBE7:
 570:Core/Src/esp32.c ****             break;
 571:Core/Src/esp32.c ****         if (Wifi_WaitForString(_WIFI_WAIT_TIME_LOW, &result, 2, "OK", "ERROR") == false)
 572:Core/Src/esp32.c ****             break;       // The timeout was completed and the string was not there
 573:Core/Src/esp32.c ****         if (result == 2) // It was find the "ERROR" String in the receiving information
 574:Core/Src/esp32.c ****             break;
 575:Core/Src/esp32.c ****         /*
 576:Core/Src/esp32.c ****          * The previous AT Command has a response like the next example:
 577:Core/Src/esp32.c ****          * 			AT+CWJAP?
 578:Core/Src/esp32.c ****          * 			+CWJAP:<ssid>,<bssid>,<channel>,<rssi>
 579:Core/Src/esp32.c ****          * 			OK
 580:Core/Src/esp32.c ****          * The previous function checks the OK Response and the next lines search for the
 581:Core/Src/esp32.c ****          * information of the SSID, taking in count the position of that information in
 582:Core/Src/esp32.c ****          * the string. It uses pointers to get the start and the final position and the
 583:Core/Src/esp32.c ****          * value is saved in the structure of the Wifi Connection.
 584:Core/Src/esp32.c ****          */
 585:Core/Src/esp32.c **** 
 586:Core/Src/esp32.c ****         char *str1 = strstr((char *)Wifi.RxBuffer, ":\"");
 587:Core/Src/esp32.c ****         if (str1 == NULL)
 588:Core/Src/esp32.c ****         {
 589:Core/Src/esp32.c ****             str1 = strstr((char *)Wifi.RxBuffer, "No AP");
 590:Core/Src/esp32.c ****             if (str1 == NULL)
 591:Core/Src/esp32.c ****                 break;
 592:Core/Src/esp32.c ****             else
 593:Core/Src/esp32.c ****             {
 594:Core/Src/esp32.c ****                 memset(Wifi.SSID_Connected, (uint8_t)'\0', 20);
 595:Core/Src/esp32.c ****                 returnVal = true;
 596:Core/Src/esp32.c ****             }
 597:Core/Src/esp32.c ****         }
 598:Core/Src/esp32.c ****         else
 599:Core/Src/esp32.c ****         {
 600:Core/Src/esp32.c ****             str1 = str1 + 2;
 601:Core/Src/esp32.c ****             char *str2 = strstr(str1, "\"");
 602:Core/Src/esp32.c ****             size_t len = str2 - str1;
 603:Core/Src/esp32.c ****             strncpy(Wifi.SSID_Connected, str1, len);
ARM GAS  /var/folders/9y/n02fl3g16gnf7ppy14xghdy80000gn/T//ccoB4Sfq.s 			page 64


 604:Core/Src/esp32.c ****             Wifi.SSID_Connected[len] = '\0';
 605:Core/Src/esp32.c ****             returnVal = true;
 606:Core/Src/esp32.c ****         }
 607:Core/Src/esp32.c ****     } while (0);
 2678              		.loc 1 607 13 is_stmt 1 view .LVU599
 608:Core/Src/esp32.c **** 
 609:Core/Src/esp32.c ****     return returnVal;
 2679              		.loc 1 609 5 view .LVU600
 610:Core/Src/esp32.c **** }
 2680              		.loc 1 610 1 is_stmt 0 view .LVU601
 2681 0026 2046     		mov	r0, r4
 2682 0028 05B0     		add	sp, sp, #20
 2683              		.cfi_remember_state
 2684              		.cfi_def_cfa_offset 20
 2685              		@ sp needed
 2686 002a F0BD     		pop	{r4, r5, r6, r7, pc}
 2687              	.LVL217:
 2688              	.L211:
 2689              		.cfi_restore_state
 2690              	.LBB9:
 571:Core/Src/esp32.c ****             break;       // The timeout was completed and the string was not there
 2691              		.loc 1 571 9 is_stmt 1 view .LVU602
 571:Core/Src/esp32.c ****             break;       // The timeout was completed and the string was not there
 2692              		.loc 1 571 13 is_stmt 0 view .LVU603
 2693 002c 214B     		ldr	r3, .L213+8
 2694 002e 0093     		str	r3, [sp]
 2695 0030 214B     		ldr	r3, .L213+12
 2696 0032 0222     		movs	r2, #2
 2697 0034 0DF10F01 		add	r1, sp, #15
 2698 0038 4FF47A70 		mov	r0, #1000
 2699 003c FFF7FEFF 		bl	Wifi_WaitForString
 2700              	.LVL218:
 571:Core/Src/esp32.c ****             break;       // The timeout was completed and the string was not there
 2701              		.loc 1 571 12 view .LVU604
 2702 0040 0446     		mov	r4, r0
 2703 0042 0028     		cmp	r0, #0
 2704 0044 EFD0     		beq	.L206
 573:Core/Src/esp32.c ****             break;
 2705              		.loc 1 573 9 is_stmt 1 view .LVU605
 573:Core/Src/esp32.c ****             break;
 2706              		.loc 1 573 20 is_stmt 0 view .LVU606
 2707 0046 9DF80F30 		ldrb	r3, [sp, #15]	@ zero_extendqisi2
 573:Core/Src/esp32.c ****             break;
 2708              		.loc 1 573 12 view .LVU607
 2709 004a 022B     		cmp	r3, #2
 2710 004c 29D0     		beq	.L208
 586:Core/Src/esp32.c ****         if (str1 == NULL)
 2711              		.loc 1 586 9 is_stmt 1 view .LVU608
 586:Core/Src/esp32.c ****         if (str1 == NULL)
 2712              		.loc 1 586 22 is_stmt 0 view .LVU609
 2713 004e 1B49     		ldr	r1, .L213+16
 2714 0050 1B48     		ldr	r0, .L213+20
 2715 0052 FFF7FEFF 		bl	strstr
 2716              	.LVL219:
 587:Core/Src/esp32.c ****         {
 2717              		.loc 1 587 9 is_stmt 1 view .LVU610
 587:Core/Src/esp32.c ****         {
ARM GAS  /var/folders/9y/n02fl3g16gnf7ppy14xghdy80000gn/T//ccoB4Sfq.s 			page 65


 2718              		.loc 1 587 12 is_stmt 0 view .LVU611
 2719 0056 0546     		mov	r5, r0
 2720 0058 88B1     		cbz	r0, .L212
 2721              	.LBB8:
 600:Core/Src/esp32.c ****             char *str2 = strstr(str1, "\"");
 2722              		.loc 1 600 13 is_stmt 1 view .LVU612
 600:Core/Src/esp32.c ****             char *str2 = strstr(str1, "\"");
 2723              		.loc 1 600 18 is_stmt 0 view .LVU613
 2724 005a 0235     		adds	r5, r5, #2
 2725              	.LVL220:
 601:Core/Src/esp32.c ****             size_t len = str2 - str1;
 2726              		.loc 1 601 13 is_stmt 1 view .LVU614
 601:Core/Src/esp32.c ****             size_t len = str2 - str1;
 2727              		.loc 1 601 26 is_stmt 0 view .LVU615
 2728 005c 2221     		movs	r1, #34
 2729 005e 2846     		mov	r0, r5
 2730 0060 FFF7FEFF 		bl	strchr
 2731              	.LVL221:
 602:Core/Src/esp32.c ****             strncpy(Wifi.SSID_Connected, str1, len);
 2732              		.loc 1 602 13 is_stmt 1 view .LVU616
 602:Core/Src/esp32.c ****             strncpy(Wifi.SSID_Connected, str1, len);
 2733              		.loc 1 602 31 is_stmt 0 view .LVU617
 2734 0064 471B     		subs	r7, r0, r5
 2735              	.LVL222:
 603:Core/Src/esp32.c ****             Wifi.SSID_Connected[len] = '\0';
 2736              		.loc 1 603 13 is_stmt 1 view .LVU618
 2737 0066 114E     		ldr	r6, .L213
 2738 0068 3A46     		mov	r2, r7
 2739 006a 2946     		mov	r1, r5
 2740 006c 06F22660 		addw	r0, r6, #1574
 2741              	.LVL223:
 603:Core/Src/esp32.c ****             Wifi.SSID_Connected[len] = '\0';
 2742              		.loc 1 603 13 is_stmt 0 view .LVU619
 2743 0070 FFF7FEFF 		bl	strncpy
 2744              	.LVL224:
 604:Core/Src/esp32.c ****             returnVal = true;
 2745              		.loc 1 604 13 is_stmt 1 view .LVU620
 604:Core/Src/esp32.c ****             returnVal = true;
 2746              		.loc 1 604 38 is_stmt 0 view .LVU621
 2747 0074 3E44     		add	r6, r6, r7
 2748 0076 0023     		movs	r3, #0
 2749 0078 86F82636 		strb	r3, [r6, #1574]
 605:Core/Src/esp32.c ****         }
 2750              		.loc 1 605 13 is_stmt 1 view .LVU622
 2751              	.LVL225:
 605:Core/Src/esp32.c ****         }
 2752              		.loc 1 605 13 is_stmt 0 view .LVU623
 2753 007c D3E7     		b	.L206
 2754              	.LVL226:
 2755              	.L212:
 605:Core/Src/esp32.c ****         }
 2756              		.loc 1 605 13 view .LVU624
 2757              	.LBE8:
 589:Core/Src/esp32.c ****             if (str1 == NULL)
 2758              		.loc 1 589 13 is_stmt 1 view .LVU625
 589:Core/Src/esp32.c ****             if (str1 == NULL)
 2759              		.loc 1 589 20 is_stmt 0 view .LVU626
ARM GAS  /var/folders/9y/n02fl3g16gnf7ppy14xghdy80000gn/T//ccoB4Sfq.s 			page 66


 2760 007e 1149     		ldr	r1, .L213+24
 2761 0080 0F48     		ldr	r0, .L213+20
 2762              	.LVL227:
 589:Core/Src/esp32.c ****             if (str1 == NULL)
 2763              		.loc 1 589 20 view .LVU627
 2764 0082 FFF7FEFF 		bl	strstr
 2765              	.LVL228:
 590:Core/Src/esp32.c ****                 break;
 2766              		.loc 1 590 13 is_stmt 1 view .LVU628
 590:Core/Src/esp32.c ****                 break;
 2767              		.loc 1 590 16 is_stmt 0 view .LVU629
 2768 0086 70B1     		cbz	r0, .L209
 594:Core/Src/esp32.c ****                 returnVal = true;
 2769              		.loc 1 594 17 is_stmt 1 view .LVU630
 2770 0088 084B     		ldr	r3, .L213
 2771 008a 0022     		movs	r2, #0
 2772 008c C3F82626 		str	r2, [r3, #1574]	@ unaligned
 2773 0090 C3F82A26 		str	r2, [r3, #1578]	@ unaligned
 2774 0094 C3F82E26 		str	r2, [r3, #1582]	@ unaligned
 2775 0098 C3F83226 		str	r2, [r3, #1586]	@ unaligned
 2776 009c C3F83626 		str	r2, [r3, #1590]	@ unaligned
 595:Core/Src/esp32.c ****             }
 2777              		.loc 1 595 17 view .LVU631
 2778              	.LVL229:
 595:Core/Src/esp32.c ****             }
 2779              		.loc 1 595 17 is_stmt 0 view .LVU632
 2780 00a0 C1E7     		b	.L206
 2781              	.LVL230:
 2782              	.L208:
 595:Core/Src/esp32.c ****             }
 2783              		.loc 1 595 17 view .LVU633
 2784              	.LBE9:
 562:Core/Src/esp32.c ****     uint8_t result;
 2785              		.loc 1 562 10 view .LVU634
 2786 00a2 0024     		movs	r4, #0
 2787 00a4 BFE7     		b	.L206
 2788              	.LVL231:
 2789              	.L209:
 562:Core/Src/esp32.c ****     uint8_t result;
 2790              		.loc 1 562 10 view .LVU635
 2791 00a6 0024     		movs	r4, #0
 2792 00a8 BDE7     		b	.L206
 2793              	.L214:
 2794 00aa 00BF     		.align	2
 2795              	.L213:
 2796 00ac 00000000 		.word	.LANCHOR0
 2797 00b0 00000000 		.word	.LC24
 2798 00b4 0C000000 		.word	.LC2
 2799 00b8 08000000 		.word	.LC1
 2800 00bc 0C000000 		.word	.LC25
 2801 00c0 01000000 		.word	.LANCHOR0+1
 2802 00c4 10000000 		.word	.LC26
 2803              		.cfi_endproc
 2804              	.LFE1182:
 2806              		.section	.rodata.Wifi_SoftAp_GetConnectedDevices.str1.4,"aMS",%progbits,1
 2807              		.align	2
 2808              	.LC27:
ARM GAS  /var/folders/9y/n02fl3g16gnf7ppy14xghdy80000gn/T//ccoB4Sfq.s 			page 67


 2809 0000 41542B43 		.ascii	"AT+CWLIF\015\012\000"
 2809      574C4946 
 2809      0D0A00
 2810 000b 00       		.align	2
 2811              	.LC28:
 2812 000c 0A2C00   		.ascii	"\012,\000"
 2813              		.section	.text.Wifi_SoftAp_GetConnectedDevices,"ax",%progbits
 2814              		.align	1
 2815              		.global	Wifi_SoftAp_GetConnectedDevices
 2816              		.syntax unified
 2817              		.thumb
 2818              		.thumb_func
 2819              		.fpu fpv4-sp-d16
 2821              	Wifi_SoftAp_GetConnectedDevices:
 2822              	.LFB1183:
 611:Core/Src/esp32.c **** 
 612:Core/Src/esp32.c **** // ################################################################################################
 613:Core/Src/esp32.c **** bool Wifi_SoftAp_GetConnectedDevices(void)
 614:Core/Src/esp32.c **** {
 2823              		.loc 1 614 1 is_stmt 1 view -0
 2824              		.cfi_startproc
 2825              		@ args = 0, pretend = 0, frame = 8
 2826              		@ frame_needed = 0, uses_anonymous_args = 0
 2827 0000 70B5     		push	{r4, r5, r6, lr}
 2828              		.cfi_def_cfa_offset 16
 2829              		.cfi_offset 4, -16
 2830              		.cfi_offset 5, -12
 2831              		.cfi_offset 6, -8
 2832              		.cfi_offset 14, -4
 2833 0002 8CB0     		sub	sp, sp, #48
 2834              		.cfi_def_cfa_offset 64
 615:Core/Src/esp32.c ****     uint8_t result;
 2835              		.loc 1 615 5 view .LVU637
 616:Core/Src/esp32.c ****     bool returnVal = false;
 2836              		.loc 1 616 5 view .LVU638
 2837              	.LVL232:
 617:Core/Src/esp32.c ****     do
 2838              		.loc 1 617 5 view .LVU639
 618:Core/Src/esp32.c ****     {
 619:Core/Src/esp32.c ****         /*
 620:Core/Src/esp32.c ****          * The ESP8266 has the possibility to have in a SoftAP (Small WiFi Network) four
 621:Core/Src/esp32.c ****          * devices connected at the same time. This function save the information about
 622:Core/Src/esp32.c ****          * the devices, which is the IP address and the MAC Address of every device
 623:Core/Src/esp32.c ****          */
 624:Core/Src/esp32.c ****         Wifi_RxClear();
 2839              		.loc 1 624 9 view .LVU640
 2840 0004 FFF7FEFF 		bl	Wifi_RxClear
 2841              	.LVL233:
 625:Core/Src/esp32.c ****         sprintf((char *)Wifi.TxBuffer, "AT+CWLIF\r\n");
 2842              		.loc 1 625 9 view .LVU641
 2843 0008 3D4A     		ldr	r2, .L225
 2844 000a 02F2012C 		addw	ip, r2, #513
 2845 000e 3D4B     		ldr	r3, .L225+4
 2846 0010 03CB     		ldmia	r3!, {r0, r1}
 2847 0012 C2F80102 		str	r0, [r2, #513]	@ unaligned
 2848 0016 C2F80512 		str	r1, [r2, #517]	@ unaligned
 2849 001a 1988     		ldrh	r1, [r3]	@ unaligned
ARM GAS  /var/folders/9y/n02fl3g16gnf7ppy14xghdy80000gn/T//ccoB4Sfq.s 			page 68


 2850 001c 9B78     		ldrb	r3, [r3, #2]	@ zero_extendqisi2
 2851 001e A2F80912 		strh	r1, [r2, #521]	@ unaligned
 2852 0022 82F80B32 		strb	r3, [r2, #523]
 626:Core/Src/esp32.c ****         if (Wifi_SendString((char *)Wifi.TxBuffer) == false)
 2853              		.loc 1 626 9 view .LVU642
 2854              		.loc 1 626 13 is_stmt 0 view .LVU643
 2855 0026 6046     		mov	r0, ip
 2856 0028 FFF7FEFF 		bl	Wifi_SendString
 2857              	.LVL234:
 2858              		.loc 1 626 12 view .LVU644
 2859 002c 0446     		mov	r4, r0
 2860 002e 10B9     		cbnz	r0, .L223
 2861              	.L216:
 2862              	.LVL235:
 627:Core/Src/esp32.c ****             break;
 628:Core/Src/esp32.c ****         if (Wifi_WaitForString(_WIFI_WAIT_TIME_LOW, &result, 2, "OK", "ERROR") == false)
 629:Core/Src/esp32.c ****             break;       // The timeout was completed and the string was not there
 630:Core/Src/esp32.c ****         if (result == 2) // It was find the "ERROR" String in the receiving information
 631:Core/Src/esp32.c ****             break;
 632:Core/Src/esp32.c **** 
 633:Core/Src/esp32.c ****         Wifi_RemoveChar((char *)Wifi.RxBuffer, '\r');
 634:Core/Src/esp32.c ****         Wifi_ReturnStrings((char *)Wifi.RxBuffer, "\n,", 10, Wifi.SoftApConnectedDevicesIp[0], Wifi
 635:Core/Src/esp32.c **** 
 636:Core/Src/esp32.c ****         // Search if there is any device or it does not have any
 637:Core/Src/esp32.c ****         for (uint8_t i = 0; i < 6; i++)
 638:Core/Src/esp32.c ****         {
 639:Core/Src/esp32.c ****             if ((Wifi.SoftApConnectedDevicesIp[i][0] < '0') || (Wifi.SoftApConnectedDevicesIp[i][0]
 640:Core/Src/esp32.c ****                 Wifi.SoftApConnectedDevicesIp[i][0] = 0;
 641:Core/Src/esp32.c ****             if ((Wifi.SoftApConnectedDevicesMac[i][0] < '0') || (Wifi.SoftApConnectedDevicesMac[i][
 642:Core/Src/esp32.c ****                 Wifi.SoftApConnectedDevicesMac[i][0] = 0;
 643:Core/Src/esp32.c ****         }
 644:Core/Src/esp32.c **** 
 645:Core/Src/esp32.c ****         returnVal = true;
 646:Core/Src/esp32.c ****     } while (0);
 2863              		.loc 1 646 13 is_stmt 1 view .LVU645
 647:Core/Src/esp32.c ****     return returnVal;
 2864              		.loc 1 647 5 view .LVU646
 648:Core/Src/esp32.c **** }
 2865              		.loc 1 648 1 is_stmt 0 view .LVU647
 2866 0030 2046     		mov	r0, r4
 2867 0032 0CB0     		add	sp, sp, #48
 2868              		.cfi_remember_state
 2869              		.cfi_def_cfa_offset 16
 2870              		@ sp needed
 2871 0034 70BD     		pop	{r4, r5, r6, pc}
 2872              	.LVL236:
 2873              	.L223:
 2874              		.cfi_restore_state
 628:Core/Src/esp32.c ****             break;       // The timeout was completed and the string was not there
 2875              		.loc 1 628 9 is_stmt 1 view .LVU648
 628:Core/Src/esp32.c ****             break;       // The timeout was completed and the string was not there
 2876              		.loc 1 628 13 is_stmt 0 view .LVU649
 2877 0036 344B     		ldr	r3, .L225+8
 2878 0038 0093     		str	r3, [sp]
 2879 003a 344B     		ldr	r3, .L225+12
 2880 003c 0222     		movs	r2, #2
 2881 003e 0DF12F01 		add	r1, sp, #47
ARM GAS  /var/folders/9y/n02fl3g16gnf7ppy14xghdy80000gn/T//ccoB4Sfq.s 			page 69


 2882 0042 4FF47A70 		mov	r0, #1000
 2883 0046 FFF7FEFF 		bl	Wifi_WaitForString
 2884              	.LVL237:
 628:Core/Src/esp32.c ****             break;       // The timeout was completed and the string was not there
 2885              		.loc 1 628 12 view .LVU650
 2886 004a 0446     		mov	r4, r0
 2887 004c 0028     		cmp	r0, #0
 2888 004e EFD0     		beq	.L216
 630:Core/Src/esp32.c ****             break;
 2889              		.loc 1 630 9 is_stmt 1 view .LVU651
 630:Core/Src/esp32.c ****             break;
 2890              		.loc 1 630 20 is_stmt 0 view .LVU652
 2891 0050 9DF82F30 		ldrb	r3, [sp, #47]	@ zero_extendqisi2
 630:Core/Src/esp32.c ****             break;
 2892              		.loc 1 630 12 view .LVU653
 2893 0054 022B     		cmp	r3, #2
 2894 0056 01D1     		bne	.L224
 616:Core/Src/esp32.c ****     do
 2895              		.loc 1 616 10 view .LVU654
 2896 0058 0024     		movs	r4, #0
 2897 005a E9E7     		b	.L216
 2898              	.L224:
 633:Core/Src/esp32.c ****         Wifi_ReturnStrings((char *)Wifi.RxBuffer, "\n,", 10, Wifi.SoftApConnectedDevicesIp[0], Wifi
 2899              		.loc 1 633 9 is_stmt 1 view .LVU655
 2900 005c 284D     		ldr	r5, .L225
 2901 005e 6E1C     		adds	r6, r5, #1
 2902 0060 0D21     		movs	r1, #13
 2903 0062 3046     		mov	r0, r6
 2904 0064 FFF7FEFF 		bl	Wifi_RemoveChar
 2905              	.LVL238:
 634:Core/Src/esp32.c **** 
 2906              		.loc 1 634 9 view .LVU656
 2907 0068 05F2F463 		addw	r3, r5, #1780
 2908 006c 0893     		str	r3, [sp, #32]
 2909 006e 05F28C63 		addw	r3, r5, #1676
 2910 0072 0793     		str	r3, [sp, #28]
 2911 0074 05F2E263 		addw	r3, r5, #1762
 2912 0078 0693     		str	r3, [sp, #24]
 2913 007a 05F27C63 		addw	r3, r5, #1660
 2914 007e 0593     		str	r3, [sp, #20]
 2915 0080 05F5DA63 		add	r3, r5, #1744
 2916 0084 0493     		str	r3, [sp, #16]
 2917 0086 05F26C63 		addw	r3, r5, #1644
 2918 008a 0393     		str	r3, [sp, #12]
 2919 008c 05F2BE63 		addw	r3, r5, #1726
 2920 0090 0293     		str	r3, [sp, #8]
 2921 0092 05F25C63 		addw	r3, r5, #1628
 2922 0096 0193     		str	r3, [sp, #4]
 2923 0098 05F2AC63 		addw	r3, r5, #1708
 2924 009c 0093     		str	r3, [sp]
 2925 009e 05F24C63 		addw	r3, r5, #1612
 2926 00a2 0A22     		movs	r2, #10
 2927 00a4 1A49     		ldr	r1, .L225+16
 2928 00a6 3046     		mov	r0, r6
 2929 00a8 FFF7FEFF 		bl	Wifi_ReturnStrings
 2930              	.LVL239:
 637:Core/Src/esp32.c ****         {
ARM GAS  /var/folders/9y/n02fl3g16gnf7ppy14xghdy80000gn/T//ccoB4Sfq.s 			page 70


 2931              		.loc 1 637 9 view .LVU657
 2932              	.LBB10:
 637:Core/Src/esp32.c ****         {
 2933              		.loc 1 637 14 view .LVU658
 637:Core/Src/esp32.c ****         {
 2934              		.loc 1 637 22 is_stmt 0 view .LVU659
 2935 00ac 0023     		movs	r3, #0
 637:Core/Src/esp32.c ****         {
 2936              		.loc 1 637 9 view .LVU660
 2937 00ae 01E0     		b	.L217
 2938              	.LVL240:
 2939              	.L219:
 637:Core/Src/esp32.c ****         {
 2940              		.loc 1 637 36 is_stmt 1 discriminator 2 view .LVU661
 637:Core/Src/esp32.c ****         {
 2941              		.loc 1 637 37 is_stmt 0 discriminator 2 view .LVU662
 2942 00b0 0133     		adds	r3, r3, #1
 2943              	.LVL241:
 637:Core/Src/esp32.c ****         {
 2944              		.loc 1 637 37 discriminator 2 view .LVU663
 2945 00b2 DBB2     		uxtb	r3, r3
 2946              	.LVL242:
 2947              	.L217:
 637:Core/Src/esp32.c ****         {
 2948              		.loc 1 637 29 is_stmt 1 discriminator 1 view .LVU664
 637:Core/Src/esp32.c ****         {
 2949              		.loc 1 637 9 is_stmt 0 discriminator 1 view .LVU665
 2950 00b4 052B     		cmp	r3, #5
 2951 00b6 BBD8     		bhi	.L216
 639:Core/Src/esp32.c ****                 Wifi.SoftApConnectedDevicesIp[i][0] = 0;
 2952              		.loc 1 639 13 is_stmt 1 view .LVU666
 639:Core/Src/esp32.c ****                 Wifi.SoftApConnectedDevicesIp[i][0] = 0;
 2953              		.loc 1 639 50 is_stmt 0 view .LVU667
 2954 00b8 1946     		mov	r1, r3
 2955 00ba 114A     		ldr	r2, .L225
 2956 00bc 02EB0312 		add	r2, r2, r3, lsl #4
 2957 00c0 92F84C26 		ldrb	r2, [r2, #1612]	@ zero_extendqisi2
 639:Core/Src/esp32.c ****                 Wifi.SoftApConnectedDevicesIp[i][0] = 0;
 2958              		.loc 1 639 61 view .LVU668
 2959 00c4 303A     		subs	r2, r2, #48
 2960 00c6 D2B2     		uxtb	r2, r2
 639:Core/Src/esp32.c ****                 Wifi.SoftApConnectedDevicesIp[i][0] = 0;
 2961              		.loc 1 639 16 view .LVU669
 2962 00c8 092A     		cmp	r2, #9
 2963 00ca 05D9     		bls	.L218
 640:Core/Src/esp32.c ****             if ((Wifi.SoftApConnectedDevicesMac[i][0] < '0') || (Wifi.SoftApConnectedDevicesMac[i][
 2964              		.loc 1 640 17 is_stmt 1 view .LVU670
 640:Core/Src/esp32.c ****             if ((Wifi.SoftApConnectedDevicesMac[i][0] < '0') || (Wifi.SoftApConnectedDevicesMac[i][
 2965              		.loc 1 640 53 is_stmt 0 view .LVU671
 2966 00cc 0C4A     		ldr	r2, .L225
 2967 00ce 02EB0312 		add	r2, r2, r3, lsl #4
 2968 00d2 0020     		movs	r0, #0
 2969 00d4 82F84C06 		strb	r0, [r2, #1612]
 2970              	.L218:
 641:Core/Src/esp32.c ****                 Wifi.SoftApConnectedDevicesMac[i][0] = 0;
 2971              		.loc 1 641 13 is_stmt 1 view .LVU672
 641:Core/Src/esp32.c ****                 Wifi.SoftApConnectedDevicesMac[i][0] = 0;
ARM GAS  /var/folders/9y/n02fl3g16gnf7ppy14xghdy80000gn/T//ccoB4Sfq.s 			page 71


 2972              		.loc 1 641 51 is_stmt 0 view .LVU673
 2973 00d8 01EBC102 		add	r2, r1, r1, lsl #3
 2974 00dc 0848     		ldr	r0, .L225
 2975 00de 00EB4202 		add	r2, r0, r2, lsl #1
 2976 00e2 92F8AC26 		ldrb	r2, [r2, #1708]	@ zero_extendqisi2
 641:Core/Src/esp32.c ****                 Wifi.SoftApConnectedDevicesMac[i][0] = 0;
 2977              		.loc 1 641 62 view .LVU674
 2978 00e6 303A     		subs	r2, r2, #48
 2979 00e8 D2B2     		uxtb	r2, r2
 641:Core/Src/esp32.c ****                 Wifi.SoftApConnectedDevicesMac[i][0] = 0;
 2980              		.loc 1 641 16 view .LVU675
 2981 00ea 092A     		cmp	r2, #9
 2982 00ec E0D9     		bls	.L219
 642:Core/Src/esp32.c ****         }
 2983              		.loc 1 642 17 is_stmt 1 view .LVU676
 642:Core/Src/esp32.c ****         }
 2984              		.loc 1 642 54 is_stmt 0 view .LVU677
 2985 00ee 01EBC101 		add	r1, r1, r1, lsl #3
 2986 00f2 00EB4101 		add	r1, r0, r1, lsl #1
 2987 00f6 0022     		movs	r2, #0
 2988 00f8 81F8AC26 		strb	r2, [r1, #1708]
 2989 00fc D8E7     		b	.L219
 2990              	.L226:
 2991 00fe 00BF     		.align	2
 2992              	.L225:
 2993 0100 00000000 		.word	.LANCHOR0
 2994 0104 00000000 		.word	.LC27
 2995 0108 0C000000 		.word	.LC2
 2996 010c 08000000 		.word	.LC1
 2997 0110 0C000000 		.word	.LC28
 2998              	.LBE10:
 2999              		.cfi_endproc
 3000              	.LFE1183:
 3002              		.section	.rodata.Wifi_TcpIp_GetConnectionStatus.str1.4,"aMS",%progbits,1
 3003              		.align	2
 3004              	.LC29:
 3005 0000 41542B43 		.ascii	"AT+CIPSTATUS\015\012\000"
 3005      49505354 
 3005      41545553 
 3005      0D0A00
 3006 000f 00       		.align	2
 3007              	.LC30:
 3008 0010 0A535441 		.ascii	"\012STATUS:\000"
 3008      5455533A 
 3008      00
 3009 0019 000000   		.align	2
 3010              	.LC31:
 3011 001c 2B434950 		.ascii	"+CIPSTATUS:\000"
 3011      53544154 
 3011      55533A00 
 3012              		.align	2
 3013              	.LC32:
 3014 0028 2B434950 		.ascii	"+CIPSTATUS:%d,\"%3s\",\"%[^\"]\",%d,%d,%d\000"
 3014      53544154 
 3014      55533A25 
 3014      642C2225 
 3014      3373222C 
ARM GAS  /var/folders/9y/n02fl3g16gnf7ppy14xghdy80000gn/T//ccoB4Sfq.s 			page 72


 3015              		.section	.text.Wifi_TcpIp_GetConnectionStatus,"ax",%progbits
 3016              		.align	1
 3017              		.global	Wifi_TcpIp_GetConnectionStatus
 3018              		.syntax unified
 3019              		.thumb
 3020              		.thumb_func
 3021              		.fpu fpv4-sp-d16
 3023              	Wifi_TcpIp_GetConnectionStatus:
 3024              	.LFB1184:
 649:Core/Src/esp32.c **** // ################################################################################################
 650:Core/Src/esp32.c **** // ################################################################################################
 651:Core/Src/esp32.c **** // ################################################################################################
 652:Core/Src/esp32.c **** // ################################################################################################
 653:Core/Src/esp32.c **** bool Wifi_TcpIp_GetConnectionStatus(void)
 654:Core/Src/esp32.c **** {
 3025              		.loc 1 654 1 is_stmt 1 view -0
 3026              		.cfi_startproc
 3027              		@ args = 0, pretend = 0, frame = 8
 3028              		@ frame_needed = 0, uses_anonymous_args = 0
 3029 0000 F0B5     		push	{r4, r5, r6, r7, lr}
 3030              		.cfi_def_cfa_offset 20
 3031              		.cfi_offset 4, -20
 3032              		.cfi_offset 5, -16
 3033              		.cfi_offset 6, -12
 3034              		.cfi_offset 7, -8
 3035              		.cfi_offset 14, -4
 3036 0002 87B0     		sub	sp, sp, #28
 3037              		.cfi_def_cfa_offset 48
 655:Core/Src/esp32.c ****     uint8_t result;
 3038              		.loc 1 655 5 view .LVU679
 656:Core/Src/esp32.c ****     bool returnVal = false;
 3039              		.loc 1 656 5 view .LVU680
 3040              	.LVL243:
 657:Core/Src/esp32.c ****     do
 3041              		.loc 1 657 5 view .LVU681
 3042              	.LBB11:
 658:Core/Src/esp32.c ****     {
 659:Core/Src/esp32.c ****         Wifi_RxClear();
 3043              		.loc 1 659 9 view .LVU682
 3044 0004 FFF7FEFF 		bl	Wifi_RxClear
 3045              	.LVL244:
 660:Core/Src/esp32.c ****         // Get the connections status of all the possible connection with the ESP8266
 661:Core/Src/esp32.c ****         sprintf((char *)Wifi.TxBuffer, "AT+CIPSTATUS\r\n");
 3046              		.loc 1 661 9 view .LVU683
 3047 0008 3E4C     		ldr	r4, .L237
 3048 000a 04F2012C 		addw	ip, r4, #513
 3049 000e 3E4B     		ldr	r3, .L237+4
 3050 0010 07CB     		ldmia	r3!, {r0, r1, r2}
 3051 0012 C4F80102 		str	r0, [r4, #513]	@ unaligned
 3052 0016 C4F80512 		str	r1, [r4, #517]	@ unaligned
 3053 001a C4F80922 		str	r2, [r4, #521]	@ unaligned
 3054 001e 1A88     		ldrh	r2, [r3]	@ unaligned
 3055 0020 9B78     		ldrb	r3, [r3, #2]	@ zero_extendqisi2
 3056 0022 A4F80D22 		strh	r2, [r4, #525]	@ unaligned
 3057 0026 84F80F32 		strb	r3, [r4, #527]
 662:Core/Src/esp32.c ****         if (Wifi_SendString((char *)Wifi.TxBuffer) == false)
 3058              		.loc 1 662 9 view .LVU684
ARM GAS  /var/folders/9y/n02fl3g16gnf7ppy14xghdy80000gn/T//ccoB4Sfq.s 			page 73


 3059              		.loc 1 662 13 is_stmt 0 view .LVU685
 3060 002a 6046     		mov	r0, ip
 3061 002c FFF7FEFF 		bl	Wifi_SendString
 3062              	.LVL245:
 3063              		.loc 1 662 12 view .LVU686
 3064 0030 0546     		mov	r5, r0
 3065 0032 10B9     		cbnz	r0, .L236
 3066              	.L228:
 3067              	.LVL246:
 3068              		.loc 1 662 12 view .LVU687
 3069              	.LBE11:
 663:Core/Src/esp32.c ****             break;
 664:Core/Src/esp32.c ****         if (Wifi_WaitForString(_WIFI_WAIT_TIME_LOW, &result, 2, "OK", "ERROR") == false)
 665:Core/Src/esp32.c ****             break;       // The timeout was completed and the string was not there
 666:Core/Src/esp32.c ****         if (result == 2) // It was find the "ERROR" String in the receiving information
 667:Core/Src/esp32.c ****             break;
 668:Core/Src/esp32.c ****         /*
 669:Core/Src/esp32.c ****          * it searches for the string STATUS: to know what is the status of the connection
 670:Core/Src/esp32.c ****          * and save this information in the different variables of the structure. The ESP8266
 671:Core/Src/esp32.c ****          * has five possible connection at the same time, therefore it uses a for to save
 672:Core/Src/esp32.c ****          * all the needed information in the structure. If there are not other connection
 673:Core/Src/esp32.c ****          * the str return a NULL value and the loop is broken.
 674:Core/Src/esp32.c ****          */
 675:Core/Src/esp32.c ****         char *str = strstr((char *)Wifi.RxBuffer, "\nSTATUS:");
 676:Core/Src/esp32.c ****         if (str == NULL)
 677:Core/Src/esp32.c ****             break;
 678:Core/Src/esp32.c ****         str = strchr(str, ':');
 679:Core/Src/esp32.c ****         str++;
 680:Core/Src/esp32.c ****         for (uint8_t i = 0; i < 5; i++)
 681:Core/Src/esp32.c ****             Wifi.TcpIpConnections[i].status = (WifiConnectionStatus_t)atoi(str);
 682:Core/Src/esp32.c ****         str = strstr((char *)Wifi.RxBuffer, "+CIPSTATUS:");
 683:Core/Src/esp32.c ****         for (uint8_t i = 0; i < 5; i++)
 684:Core/Src/esp32.c ****         {
 685:Core/Src/esp32.c ****             sscanf(str, "+CIPSTATUS:%d,\"%3s\",\"%[^\"]\",%d,%d,%d", (int *)&Wifi.TcpIpConnections[
 686:Core/Src/esp32.c ****             str++;
 687:Core/Src/esp32.c ****             str = strstr(str, "+CIPSTATUS:");
 688:Core/Src/esp32.c ****             if (str == NULL)
 689:Core/Src/esp32.c ****                 break;
 690:Core/Src/esp32.c ****         }
 691:Core/Src/esp32.c ****         returnVal = true;
 692:Core/Src/esp32.c **** 
 693:Core/Src/esp32.c ****     } while (0);
 3070              		.loc 1 693 13 is_stmt 1 view .LVU688
 694:Core/Src/esp32.c ****     return returnVal;
 3071              		.loc 1 694 5 view .LVU689
 695:Core/Src/esp32.c **** }
 3072              		.loc 1 695 1 is_stmt 0 view .LVU690
 3073 0034 2846     		mov	r0, r5
 3074 0036 07B0     		add	sp, sp, #28
 3075              		.cfi_remember_state
 3076              		.cfi_def_cfa_offset 20
 3077              		@ sp needed
 3078 0038 F0BD     		pop	{r4, r5, r6, r7, pc}
 3079              	.LVL247:
 3080              	.L236:
 3081              		.cfi_restore_state
 3082              	.LBB14:
ARM GAS  /var/folders/9y/n02fl3g16gnf7ppy14xghdy80000gn/T//ccoB4Sfq.s 			page 74


 664:Core/Src/esp32.c ****             break;       // The timeout was completed and the string was not there
 3083              		.loc 1 664 9 is_stmt 1 view .LVU691
 664:Core/Src/esp32.c ****             break;       // The timeout was completed and the string was not there
 3084              		.loc 1 664 13 is_stmt 0 view .LVU692
 3085 003a 344B     		ldr	r3, .L237+8
 3086 003c 0093     		str	r3, [sp]
 3087 003e 344B     		ldr	r3, .L237+12
 3088 0040 0222     		movs	r2, #2
 3089 0042 0DF11701 		add	r1, sp, #23
 3090 0046 4FF47A70 		mov	r0, #1000
 3091 004a FFF7FEFF 		bl	Wifi_WaitForString
 3092              	.LVL248:
 664:Core/Src/esp32.c ****             break;       // The timeout was completed and the string was not there
 3093              		.loc 1 664 12 view .LVU693
 3094 004e 0546     		mov	r5, r0
 3095 0050 0028     		cmp	r0, #0
 3096 0052 EFD0     		beq	.L228
 666:Core/Src/esp32.c ****             break;
 3097              		.loc 1 666 9 is_stmt 1 view .LVU694
 666:Core/Src/esp32.c ****             break;
 3098              		.loc 1 666 20 is_stmt 0 view .LVU695
 3099 0054 9DF81730 		ldrb	r3, [sp, #23]	@ zero_extendqisi2
 666:Core/Src/esp32.c ****             break;
 3100              		.loc 1 666 12 view .LVU696
 3101 0058 022B     		cmp	r3, #2
 3102 005a 4FD0     		beq	.L233
 675:Core/Src/esp32.c ****         if (str == NULL)
 3103              		.loc 1 675 9 is_stmt 1 view .LVU697
 675:Core/Src/esp32.c ****         if (str == NULL)
 3104              		.loc 1 675 21 is_stmt 0 view .LVU698
 3105 005c 2D49     		ldr	r1, .L237+16
 3106 005e 601C     		adds	r0, r4, #1
 3107 0060 FFF7FEFF 		bl	strstr
 3108              	.LVL249:
 676:Core/Src/esp32.c ****             break;
 3109              		.loc 1 676 9 is_stmt 1 view .LVU699
 676:Core/Src/esp32.c ****             break;
 3110              		.loc 1 676 12 is_stmt 0 view .LVU700
 3111 0064 0028     		cmp	r0, #0
 3112 0066 4BD0     		beq	.L234
 678:Core/Src/esp32.c ****         str++;
 3113              		.loc 1 678 9 is_stmt 1 view .LVU701
 678:Core/Src/esp32.c ****         str++;
 3114              		.loc 1 678 15 is_stmt 0 view .LVU702
 3115 0068 3A21     		movs	r1, #58
 3116 006a FFF7FEFF 		bl	strchr
 3117              	.LVL250:
 679:Core/Src/esp32.c ****         for (uint8_t i = 0; i < 5; i++)
 3118              		.loc 1 679 9 is_stmt 1 view .LVU703
 679:Core/Src/esp32.c ****         for (uint8_t i = 0; i < 5; i++)
 3119              		.loc 1 679 12 is_stmt 0 view .LVU704
 3120 006e 461C     		adds	r6, r0, #1
 3121              	.LVL251:
 680:Core/Src/esp32.c ****             Wifi.TcpIpConnections[i].status = (WifiConnectionStatus_t)atoi(str);
 3122              		.loc 1 680 9 is_stmt 1 view .LVU705
 3123              	.LBB12:
 680:Core/Src/esp32.c ****             Wifi.TcpIpConnections[i].status = (WifiConnectionStatus_t)atoi(str);
ARM GAS  /var/folders/9y/n02fl3g16gnf7ppy14xghdy80000gn/T//ccoB4Sfq.s 			page 75


 3124              		.loc 1 680 14 view .LVU706
 680:Core/Src/esp32.c ****             Wifi.TcpIpConnections[i].status = (WifiConnectionStatus_t)atoi(str);
 3125              		.loc 1 680 22 is_stmt 0 view .LVU707
 3126 0070 0024     		movs	r4, #0
 680:Core/Src/esp32.c ****             Wifi.TcpIpConnections[i].status = (WifiConnectionStatus_t)atoi(str);
 3127              		.loc 1 680 9 view .LVU708
 3128 0072 0BE0     		b	.L229
 3129              	.LVL252:
 3130              	.L230:
 681:Core/Src/esp32.c ****         str = strstr((char *)Wifi.RxBuffer, "+CIPSTATUS:");
 3131              		.loc 1 681 13 is_stmt 1 discriminator 3 view .LVU709
 681:Core/Src/esp32.c ****         str = strstr((char *)Wifi.RxBuffer, "+CIPSTATUS:");
 3132              		.loc 1 681 71 is_stmt 0 discriminator 3 view .LVU710
 3133 0074 3046     		mov	r0, r6
 3134 0076 FFF7FEFF 		bl	atoi
 3135              	.LVL253:
 681:Core/Src/esp32.c ****         str = strstr((char *)Wifi.RxBuffer, "+CIPSTATUS:");
 3136              		.loc 1 681 45 discriminator 3 view .LVU711
 3137 007a C4EB0412 		rsb	r2, r4, r4, lsl #4
 3138 007e 214B     		ldr	r3, .L237
 3139 0080 03EB4203 		add	r3, r3, r2, lsl #1
 3140 0084 83F81C07 		strb	r0, [r3, #1820]
 680:Core/Src/esp32.c ****             Wifi.TcpIpConnections[i].status = (WifiConnectionStatus_t)atoi(str);
 3141              		.loc 1 680 36 is_stmt 1 discriminator 3 view .LVU712
 680:Core/Src/esp32.c ****             Wifi.TcpIpConnections[i].status = (WifiConnectionStatus_t)atoi(str);
 3142              		.loc 1 680 37 is_stmt 0 discriminator 3 view .LVU713
 3143 0088 0134     		adds	r4, r4, #1
 3144              	.LVL254:
 680:Core/Src/esp32.c ****             Wifi.TcpIpConnections[i].status = (WifiConnectionStatus_t)atoi(str);
 3145              		.loc 1 680 37 discriminator 3 view .LVU714
 3146 008a E4B2     		uxtb	r4, r4
 3147              	.LVL255:
 3148              	.L229:
 680:Core/Src/esp32.c ****             Wifi.TcpIpConnections[i].status = (WifiConnectionStatus_t)atoi(str);
 3149              		.loc 1 680 29 is_stmt 1 discriminator 1 view .LVU715
 680:Core/Src/esp32.c ****             Wifi.TcpIpConnections[i].status = (WifiConnectionStatus_t)atoi(str);
 3150              		.loc 1 680 9 is_stmt 0 discriminator 1 view .LVU716
 3151 008c 042C     		cmp	r4, #4
 3152 008e F1D9     		bls	.L230
 3153              	.LBE12:
 682:Core/Src/esp32.c ****         for (uint8_t i = 0; i < 5; i++)
 3154              		.loc 1 682 9 is_stmt 1 view .LVU717
 682:Core/Src/esp32.c ****         for (uint8_t i = 0; i < 5; i++)
 3155              		.loc 1 682 15 is_stmt 0 view .LVU718
 3156 0090 2149     		ldr	r1, .L237+20
 3157 0092 2248     		ldr	r0, .L237+24
 3158 0094 FFF7FEFF 		bl	strstr
 3159              	.LVL256:
 3160 0098 0646     		mov	r6, r0
 3161              	.LVL257:
 683:Core/Src/esp32.c ****         {
 3162              		.loc 1 683 9 is_stmt 1 view .LVU719
 3163              	.LBB13:
 683:Core/Src/esp32.c ****         {
 3164              		.loc 1 683 14 view .LVU720
 683:Core/Src/esp32.c ****         {
 3165              		.loc 1 683 22 is_stmt 0 view .LVU721
ARM GAS  /var/folders/9y/n02fl3g16gnf7ppy14xghdy80000gn/T//ccoB4Sfq.s 			page 76


 3166 009a 0024     		movs	r4, #0
 3167              	.LVL258:
 3168              	.L231:
 683:Core/Src/esp32.c ****         {
 3169              		.loc 1 683 29 is_stmt 1 discriminator 1 view .LVU722
 683:Core/Src/esp32.c ****         {
 3170              		.loc 1 683 9 is_stmt 0 discriminator 1 view .LVU723
 3171 009c 042C     		cmp	r4, #4
 3172 009e C9D8     		bhi	.L228
 685:Core/Src/esp32.c ****             str++;
 3173              		.loc 1 685 13 is_stmt 1 view .LVU724
 685:Core/Src/esp32.c ****             str++;
 3174              		.loc 1 685 77 is_stmt 0 view .LVU725
 3175 00a0 1849     		ldr	r1, .L237
 3176 00a2 C4EB0412 		rsb	r2, r4, r4, lsl #4
 3177 00a6 5200     		lsls	r2, r2, #1
 3178 00a8 02F5E362 		add	r2, r2, #1816
 3179 00ac 0A44     		add	r2, r2, r1
 685:Core/Src/esp32.c ****             str++;
 3180              		.loc 1 685 166 view .LVU726
 3181 00ae 02F10A07 		add	r7, r2, #10
 685:Core/Src/esp32.c ****             str++;
 3182              		.loc 1 685 184 view .LVU727
 3183 00b2 C4EB0413 		rsb	r3, r4, r4, lsl #4
 3184 00b6 5B00     		lsls	r3, r3, #1
 3185 00b8 03F5E663 		add	r3, r3, #1840
 3186 00bc 0B44     		add	r3, r3, r1
 3187 00be 03F1040C 		add	ip, r3, #4
 685:Core/Src/esp32.c ****             str++;
 3188              		.loc 1 685 229 view .LVU728
 3189 00c2 0633     		adds	r3, r3, #6
 685:Core/Src/esp32.c ****             str++;
 3190              		.loc 1 685 273 view .LVU729
 3191 00c4 C4EB0410 		rsb	r0, r4, r4, lsl #4
 3192              	.LVL259:
 685:Core/Src/esp32.c ****             str++;
 3193              		.loc 1 685 273 view .LVU730
 3194 00c8 4000     		lsls	r0, r0, #1
 3195 00ca 00F5E660 		add	r0, r0, #1840
 3196 00ce 0144     		add	r1, r1, r0
 3197 00d0 0831     		adds	r1, r1, #8
 685:Core/Src/esp32.c ****             str++;
 3198              		.loc 1 685 13 view .LVU731
 3199 00d2 0391     		str	r1, [sp, #12]
 3200 00d4 0293     		str	r3, [sp, #8]
 3201 00d6 CDF804C0 		str	ip, [sp, #4]
 3202 00da 0097     		str	r7, [sp]
 3203 00dc 931D     		adds	r3, r2, #6
 3204 00de 0532     		adds	r2, r2, #5
 3205 00e0 0F49     		ldr	r1, .L237+28
 3206 00e2 3046     		mov	r0, r6
 3207 00e4 FFF7FEFF 		bl	sscanf
 3208              	.LVL260:
 686:Core/Src/esp32.c ****             str = strstr(str, "+CIPSTATUS:");
 3209              		.loc 1 686 13 is_stmt 1 view .LVU732
 687:Core/Src/esp32.c ****             if (str == NULL)
 3210              		.loc 1 687 13 view .LVU733
ARM GAS  /var/folders/9y/n02fl3g16gnf7ppy14xghdy80000gn/T//ccoB4Sfq.s 			page 77


 687:Core/Src/esp32.c ****             if (str == NULL)
 3211              		.loc 1 687 19 is_stmt 0 view .LVU734
 3212 00e8 0B49     		ldr	r1, .L237+20
 3213 00ea 701C     		adds	r0, r6, #1
 3214              	.LVL261:
 687:Core/Src/esp32.c ****             if (str == NULL)
 3215              		.loc 1 687 19 view .LVU735
 3216 00ec FFF7FEFF 		bl	strstr
 3217              	.LVL262:
 688:Core/Src/esp32.c ****                 break;
 3218              		.loc 1 688 13 is_stmt 1 view .LVU736
 688:Core/Src/esp32.c ****                 break;
 3219              		.loc 1 688 16 is_stmt 0 view .LVU737
 3220 00f0 0646     		mov	r6, r0
 3221 00f2 0028     		cmp	r0, #0
 3222 00f4 9ED0     		beq	.L228
 683:Core/Src/esp32.c ****         {
 3223              		.loc 1 683 36 is_stmt 1 discriminator 2 view .LVU738
 683:Core/Src/esp32.c ****         {
 3224              		.loc 1 683 37 is_stmt 0 discriminator 2 view .LVU739
 3225 00f6 0134     		adds	r4, r4, #1
 3226              	.LVL263:
 683:Core/Src/esp32.c ****         {
 3227              		.loc 1 683 37 discriminator 2 view .LVU740
 3228 00f8 E4B2     		uxtb	r4, r4
 3229              	.LVL264:
 683:Core/Src/esp32.c ****         {
 3230              		.loc 1 683 37 discriminator 2 view .LVU741
 3231 00fa CFE7     		b	.L231
 3232              	.LVL265:
 3233              	.L233:
 683:Core/Src/esp32.c ****         {
 3234              		.loc 1 683 37 discriminator 2 view .LVU742
 3235              	.LBE13:
 3236              	.LBE14:
 656:Core/Src/esp32.c ****     do
 3237              		.loc 1 656 10 view .LVU743
 3238 00fc 0025     		movs	r5, #0
 3239 00fe 99E7     		b	.L228
 3240              	.LVL266:
 3241              	.L234:
 656:Core/Src/esp32.c ****     do
 3242              		.loc 1 656 10 view .LVU744
 3243 0100 0025     		movs	r5, #0
 3244 0102 97E7     		b	.L228
 3245              	.L238:
 3246              		.align	2
 3247              	.L237:
 3248 0104 00000000 		.word	.LANCHOR0
 3249 0108 00000000 		.word	.LC29
 3250 010c 0C000000 		.word	.LC2
 3251 0110 08000000 		.word	.LC1
 3252 0114 10000000 		.word	.LC30
 3253 0118 1C000000 		.word	.LC31
 3254 011c 01000000 		.word	.LANCHOR0+1
 3255 0120 28000000 		.word	.LC32
 3256              		.cfi_endproc
ARM GAS  /var/folders/9y/n02fl3g16gnf7ppy14xghdy80000gn/T//ccoB4Sfq.s 			page 78


 3257              	.LFE1184:
 3259              		.section	.rodata.Wifi_TcpIp_Ping.str1.4,"aMS",%progbits,1
 3260              		.align	2
 3261              	.LC33:
 3262 0000 41542B50 		.ascii	"AT+PING=\"%s\"\015\012\000"
 3262      494E473D 
 3262      22257322 
 3262      0D0A00
 3263 000f 00       		.align	2
 3264              	.LC34:
 3265 0010 2B00     		.ascii	"+\000"
 3266              		.section	.text.Wifi_TcpIp_Ping,"ax",%progbits
 3267              		.align	1
 3268              		.global	Wifi_TcpIp_Ping
 3269              		.syntax unified
 3270              		.thumb
 3271              		.thumb_func
 3272              		.fpu fpv4-sp-d16
 3274              	Wifi_TcpIp_Ping:
 3275              	.LVL267:
 3276              	.LFB1185:
 696:Core/Src/esp32.c **** // ################################################################################################
 697:Core/Src/esp32.c **** bool Wifi_TcpIp_Ping(char *PingTo)
 698:Core/Src/esp32.c **** {
 3277              		.loc 1 698 1 is_stmt 1 view -0
 3278              		.cfi_startproc
 3279              		@ args = 0, pretend = 0, frame = 8
 3280              		@ frame_needed = 0, uses_anonymous_args = 0
 3281              		.loc 1 698 1 is_stmt 0 view .LVU746
 3282 0000 30B5     		push	{r4, r5, lr}
 3283              		.cfi_def_cfa_offset 12
 3284              		.cfi_offset 4, -12
 3285              		.cfi_offset 5, -8
 3286              		.cfi_offset 14, -4
 3287 0002 85B0     		sub	sp, sp, #20
 3288              		.cfi_def_cfa_offset 32
 3289 0004 0446     		mov	r4, r0
 699:Core/Src/esp32.c ****     uint8_t result;
 3290              		.loc 1 699 5 is_stmt 1 view .LVU747
 700:Core/Src/esp32.c ****     bool returnVal = false;
 3291              		.loc 1 700 5 view .LVU748
 3292              	.LVL268:
 701:Core/Src/esp32.c ****     do
 3293              		.loc 1 701 5 view .LVU749
 702:Core/Src/esp32.c ****     {
 703:Core/Src/esp32.c ****         Wifi_RxClear();
 3294              		.loc 1 703 9 view .LVU750
 3295 0006 FFF7FEFF 		bl	Wifi_RxClear
 3296              	.LVL269:
 704:Core/Src/esp32.c ****         sprintf((char *)Wifi.TxBuffer, "AT+PING=\"%s\"\r\n", PingTo);
 3297              		.loc 1 704 9 view .LVU751
 3298 000a 124D     		ldr	r5, .L245
 3299 000c 2246     		mov	r2, r4
 3300 000e 1249     		ldr	r1, .L245+4
 3301 0010 2846     		mov	r0, r5
 3302 0012 FFF7FEFF 		bl	sprintf
 3303              	.LVL270:
ARM GAS  /var/folders/9y/n02fl3g16gnf7ppy14xghdy80000gn/T//ccoB4Sfq.s 			page 79


 705:Core/Src/esp32.c ****         if (Wifi_SendString((char *)Wifi.TxBuffer) == false)
 3304              		.loc 1 705 9 view .LVU752
 3305              		.loc 1 705 13 is_stmt 0 view .LVU753
 3306 0016 2846     		mov	r0, r5
 3307 0018 FFF7FEFF 		bl	Wifi_SendString
 3308              	.LVL271:
 3309              		.loc 1 705 12 view .LVU754
 3310 001c 08B9     		cbnz	r0, .L243
 3311              	.L240:
 3312              	.LVL272:
 706:Core/Src/esp32.c ****             break;
 707:Core/Src/esp32.c ****         if (Wifi_WaitForString(_WIFI_WAIT_TIME_MED, &result, 3, "OK", "ERROR") == false)
 708:Core/Src/esp32.c ****             break;       // The timeout was completed and the string was not there
 709:Core/Src/esp32.c ****         if (result == 2) // It was find the "ERROR" String in the receiving information
 710:Core/Src/esp32.c ****             break;
 711:Core/Src/esp32.c ****         if (Wifi_ReturnInteger((int32_t *)&Wifi.TcpIpPingAnswer, 2, "+") == false)
 712:Core/Src/esp32.c ****             break;
 713:Core/Src/esp32.c ****         returnVal = true;
 714:Core/Src/esp32.c ****     } while (0);
 3313              		.loc 1 714 13 is_stmt 1 view .LVU755
 715:Core/Src/esp32.c ****     return returnVal;
 3314              		.loc 1 715 5 view .LVU756
 716:Core/Src/esp32.c **** }
 3315              		.loc 1 716 1 is_stmt 0 view .LVU757
 3316 001e 05B0     		add	sp, sp, #20
 3317              		.cfi_remember_state
 3318              		.cfi_def_cfa_offset 12
 3319              		@ sp needed
 3320 0020 30BD     		pop	{r4, r5, pc}
 3321              	.LVL273:
 3322              	.L243:
 3323              		.cfi_restore_state
 707:Core/Src/esp32.c ****             break;       // The timeout was completed and the string was not there
 3324              		.loc 1 707 9 is_stmt 1 view .LVU758
 707:Core/Src/esp32.c ****             break;       // The timeout was completed and the string was not there
 3325              		.loc 1 707 13 is_stmt 0 view .LVU759
 3326 0022 0E4B     		ldr	r3, .L245+8
 3327 0024 0093     		str	r3, [sp]
 3328 0026 0E4B     		ldr	r3, .L245+12
 3329 0028 0322     		movs	r2, #3
 3330 002a 0DF10F01 		add	r1, sp, #15
 3331 002e 41F28830 		movw	r0, #5000
 3332 0032 FFF7FEFF 		bl	Wifi_WaitForString
 3333              	.LVL274:
 707:Core/Src/esp32.c ****             break;       // The timeout was completed and the string was not there
 3334              		.loc 1 707 12 view .LVU760
 3335 0036 0028     		cmp	r0, #0
 3336 0038 F1D0     		beq	.L240
 709:Core/Src/esp32.c ****             break;
 3337              		.loc 1 709 9 is_stmt 1 view .LVU761
 709:Core/Src/esp32.c ****             break;
 3338              		.loc 1 709 20 is_stmt 0 view .LVU762
 3339 003a 9DF80F30 		ldrb	r3, [sp, #15]	@ zero_extendqisi2
 709:Core/Src/esp32.c ****             break;
 3340              		.loc 1 709 12 view .LVU763
 3341 003e 022B     		cmp	r3, #2
 3342 0040 01D1     		bne	.L244
ARM GAS  /var/folders/9y/n02fl3g16gnf7ppy14xghdy80000gn/T//ccoB4Sfq.s 			page 80


 700:Core/Src/esp32.c ****     do
 3343              		.loc 1 700 10 view .LVU764
 3344 0042 0020     		movs	r0, #0
 3345 0044 EBE7     		b	.L240
 3346              	.L244:
 711:Core/Src/esp32.c ****             break;
 3347              		.loc 1 711 9 is_stmt 1 view .LVU765
 711:Core/Src/esp32.c ****             break;
 3348              		.loc 1 711 13 is_stmt 0 view .LVU766
 3349 0046 074A     		ldr	r2, .L245+16
 3350 0048 0221     		movs	r1, #2
 3351 004a 05F21950 		addw	r0, r5, #1305
 3352 004e FFF7FEFF 		bl	Wifi_ReturnInteger
 3353              	.LVL275:
 3354 0052 E4E7     		b	.L240
 3355              	.L246:
 3356              		.align	2
 3357              	.L245:
 3358 0054 01020000 		.word	.LANCHOR0+513
 3359 0058 00000000 		.word	.LC33
 3360 005c 0C000000 		.word	.LC2
 3361 0060 08000000 		.word	.LC1
 3362 0064 10000000 		.word	.LC34
 3363              		.cfi_endproc
 3364              	.LFE1185:
 3366              		.section	.rodata.Wifi_TcpIp_SetMultiConnection.str1.4,"aMS",%progbits,1
 3367              		.align	2
 3368              	.LC35:
 3369 0000 41542B43 		.ascii	"AT+CIPMUX=%d\015\012\000"
 3369      49504D55 
 3369      583D2564 
 3369      0D0A00
 3370              		.section	.text.Wifi_TcpIp_SetMultiConnection,"ax",%progbits
 3371              		.align	1
 3372              		.global	Wifi_TcpIp_SetMultiConnection
 3373              		.syntax unified
 3374              		.thumb
 3375              		.thumb_func
 3376              		.fpu fpv4-sp-d16
 3378              	Wifi_TcpIp_SetMultiConnection:
 3379              	.LVL276:
 3380              	.LFB1186:
 717:Core/Src/esp32.c **** // ################################################################################################
 718:Core/Src/esp32.c **** bool Wifi_TcpIp_SetMultiConnection(bool EnableMultiConnections)
 719:Core/Src/esp32.c **** {
 3381              		.loc 1 719 1 is_stmt 1 view -0
 3382              		.cfi_startproc
 3383              		@ args = 0, pretend = 0, frame = 8
 3384              		@ frame_needed = 0, uses_anonymous_args = 0
 3385              		.loc 1 719 1 is_stmt 0 view .LVU768
 3386 0000 30B5     		push	{r4, r5, lr}
 3387              		.cfi_def_cfa_offset 12
 3388              		.cfi_offset 4, -12
 3389              		.cfi_offset 5, -8
 3390              		.cfi_offset 14, -4
 3391 0002 85B0     		sub	sp, sp, #20
 3392              		.cfi_def_cfa_offset 32
ARM GAS  /var/folders/9y/n02fl3g16gnf7ppy14xghdy80000gn/T//ccoB4Sfq.s 			page 81


 3393 0004 0446     		mov	r4, r0
 720:Core/Src/esp32.c ****     uint8_t result;
 3394              		.loc 1 720 5 is_stmt 1 view .LVU769
 721:Core/Src/esp32.c ****     bool returnVal = false;
 3395              		.loc 1 721 5 view .LVU770
 3396              	.LVL277:
 722:Core/Src/esp32.c ****     do
 3397              		.loc 1 722 5 view .LVU771
 723:Core/Src/esp32.c ****     {
 724:Core/Src/esp32.c ****         // Enable or Disable the multiconnection possibility
 725:Core/Src/esp32.c ****         Wifi_RxClear();
 3398              		.loc 1 725 9 view .LVU772
 3399 0006 FFF7FEFF 		bl	Wifi_RxClear
 3400              	.LVL278:
 726:Core/Src/esp32.c ****         sprintf((char *)Wifi.TxBuffer, "AT+CIPMUX=%d\r\n", EnableMultiConnections);
 3401              		.loc 1 726 9 view .LVU773
 3402 000a 114D     		ldr	r5, .L252
 3403 000c 2246     		mov	r2, r4
 3404 000e 1149     		ldr	r1, .L252+4
 3405 0010 2846     		mov	r0, r5
 3406 0012 FFF7FEFF 		bl	sprintf
 3407              	.LVL279:
 727:Core/Src/esp32.c ****         if (Wifi_SendString((char *)Wifi.TxBuffer) == false)
 3408              		.loc 1 727 9 view .LVU774
 3409              		.loc 1 727 13 is_stmt 0 view .LVU775
 3410 0016 2846     		mov	r0, r5
 3411 0018 FFF7FEFF 		bl	Wifi_SendString
 3412              	.LVL280:
 3413              		.loc 1 727 12 view .LVU776
 3414 001c 08B9     		cbnz	r0, .L251
 3415              	.LVL281:
 3416              	.L248:
 728:Core/Src/esp32.c ****             break;
 729:Core/Src/esp32.c ****         if (Wifi_WaitForString(_WIFI_WAIT_TIME_LOW, &result, 2, "OK", "ERROR") == false)
 730:Core/Src/esp32.c ****             break;
 731:Core/Src/esp32.c ****         if (result == 2)
 732:Core/Src/esp32.c ****             break;
 733:Core/Src/esp32.c ****         Wifi.TcpIpMultiConnection = EnableMultiConnections;
 734:Core/Src/esp32.c ****         returnVal = true;
 735:Core/Src/esp32.c ****     } while (0);
 3417              		.loc 1 735 13 is_stmt 1 view .LVU777
 736:Core/Src/esp32.c ****     return returnVal;
 3418              		.loc 1 736 5 view .LVU778
 737:Core/Src/esp32.c **** }
 3419              		.loc 1 737 1 is_stmt 0 view .LVU779
 3420 001e 05B0     		add	sp, sp, #20
 3421              		.cfi_remember_state
 3422              		.cfi_def_cfa_offset 12
 3423              		@ sp needed
 3424 0020 30BD     		pop	{r4, r5, pc}
 3425              	.LVL282:
 3426              	.L251:
 3427              		.cfi_restore_state
 729:Core/Src/esp32.c ****             break;
 3428              		.loc 1 729 9 is_stmt 1 view .LVU780
 729:Core/Src/esp32.c ****             break;
 3429              		.loc 1 729 13 is_stmt 0 view .LVU781
ARM GAS  /var/folders/9y/n02fl3g16gnf7ppy14xghdy80000gn/T//ccoB4Sfq.s 			page 82


 3430 0022 0D4B     		ldr	r3, .L252+8
 3431 0024 0093     		str	r3, [sp]
 3432 0026 0D4B     		ldr	r3, .L252+12
 3433 0028 0222     		movs	r2, #2
 3434 002a 0DF10F01 		add	r1, sp, #15
 3435 002e 4FF47A70 		mov	r0, #1000
 3436 0032 FFF7FEFF 		bl	Wifi_WaitForString
 3437              	.LVL283:
 729:Core/Src/esp32.c ****             break;
 3438              		.loc 1 729 12 view .LVU782
 3439 0036 0028     		cmp	r0, #0
 3440 0038 F1D0     		beq	.L248
 731:Core/Src/esp32.c ****             break;
 3441              		.loc 1 731 9 is_stmt 1 view .LVU783
 731:Core/Src/esp32.c ****             break;
 3442              		.loc 1 731 20 is_stmt 0 view .LVU784
 3443 003a 9DF80F30 		ldrb	r3, [sp, #15]	@ zero_extendqisi2
 731:Core/Src/esp32.c ****             break;
 3444              		.loc 1 731 12 view .LVU785
 3445 003e 022B     		cmp	r3, #2
 3446 0040 04D0     		beq	.L249
 733:Core/Src/esp32.c ****         returnVal = true;
 3447              		.loc 1 733 9 is_stmt 1 view .LVU786
 733:Core/Src/esp32.c ****         returnVal = true;
 3448              		.loc 1 733 35 is_stmt 0 view .LVU787
 3449 0042 A5F20123 		subw	r3, r5, #513
 3450 0046 83F81847 		strb	r4, [r3, #1816]
 734:Core/Src/esp32.c ****     } while (0);
 3451              		.loc 1 734 9 is_stmt 1 view .LVU788
 3452              	.LVL284:
 734:Core/Src/esp32.c ****     } while (0);
 3453              		.loc 1 734 9 is_stmt 0 view .LVU789
 3454 004a E8E7     		b	.L248
 3455              	.LVL285:
 3456              	.L249:
 721:Core/Src/esp32.c ****     do
 3457              		.loc 1 721 10 view .LVU790
 3458 004c 0020     		movs	r0, #0
 3459 004e E6E7     		b	.L248
 3460              	.L253:
 3461              		.align	2
 3462              	.L252:
 3463 0050 01020000 		.word	.LANCHOR0+513
 3464 0054 00000000 		.word	.LC35
 3465 0058 0C000000 		.word	.LC2
 3466 005c 08000000 		.word	.LC1
 3467              		.cfi_endproc
 3468              	.LFE1186:
 3470              		.section	.rodata.Wifi_TcpIp_GetMultiConnection.str1.4,"aMS",%progbits,1
 3471              		.align	2
 3472              	.LC36:
 3473 0000 41542B43 		.ascii	"AT+CIPMUX?\015\012\000"
 3473      49504D55 
 3473      583F0D0A 
 3473      00
 3474              		.section	.text.Wifi_TcpIp_GetMultiConnection,"ax",%progbits
 3475              		.align	1
ARM GAS  /var/folders/9y/n02fl3g16gnf7ppy14xghdy80000gn/T//ccoB4Sfq.s 			page 83


 3476              		.global	Wifi_TcpIp_GetMultiConnection
 3477              		.syntax unified
 3478              		.thumb
 3479              		.thumb_func
 3480              		.fpu fpv4-sp-d16
 3482              	Wifi_TcpIp_GetMultiConnection:
 3483              	.LFB1187:
 738:Core/Src/esp32.c **** // ################################################################################################
 739:Core/Src/esp32.c **** bool Wifi_TcpIp_GetMultiConnection(void)
 740:Core/Src/esp32.c **** {
 3484              		.loc 1 740 1 is_stmt 1 view -0
 3485              		.cfi_startproc
 3486              		@ args = 0, pretend = 0, frame = 8
 3487              		@ frame_needed = 0, uses_anonymous_args = 0
 3488 0000 10B5     		push	{r4, lr}
 3489              		.cfi_def_cfa_offset 8
 3490              		.cfi_offset 4, -8
 3491              		.cfi_offset 14, -4
 3492 0002 84B0     		sub	sp, sp, #16
 3493              		.cfi_def_cfa_offset 24
 741:Core/Src/esp32.c ****     uint8_t result;
 3494              		.loc 1 741 5 view .LVU792
 742:Core/Src/esp32.c ****     bool returnVal = false;
 3495              		.loc 1 742 5 view .LVU793
 3496              	.LVL286:
 743:Core/Src/esp32.c ****     do
 3497              		.loc 1 743 5 view .LVU794
 744:Core/Src/esp32.c ****     {
 745:Core/Src/esp32.c ****         Wifi_RxClear();
 3498              		.loc 1 745 9 view .LVU795
 3499 0004 FFF7FEFF 		bl	Wifi_RxClear
 3500              	.LVL287:
 746:Core/Src/esp32.c ****         sprintf((char *)Wifi.TxBuffer, "AT+CIPMUX?\r\n");
 3501              		.loc 1 746 9 view .LVU796
 3502 0008 1A4C     		ldr	r4, .L260
 3503 000a 04F2012C 		addw	ip, r4, #513
 3504 000e 1A4B     		ldr	r3, .L260+4
 3505 0010 07CB     		ldmia	r3!, {r0, r1, r2}
 3506 0012 C4F80102 		str	r0, [r4, #513]	@ unaligned
 3507 0016 C4F80512 		str	r1, [r4, #517]	@ unaligned
 3508 001a C4F80922 		str	r2, [r4, #521]	@ unaligned
 3509 001e 1B78     		ldrb	r3, [r3]	@ zero_extendqisi2
 3510 0020 84F80D32 		strb	r3, [r4, #525]
 747:Core/Src/esp32.c ****         if (Wifi_SendString((char *)Wifi.TxBuffer) == false)
 3511              		.loc 1 747 9 view .LVU797
 3512              		.loc 1 747 13 is_stmt 0 view .LVU798
 3513 0024 6046     		mov	r0, ip
 3514 0026 FFF7FEFF 		bl	Wifi_SendString
 3515              	.LVL288:
 3516              		.loc 1 747 12 view .LVU799
 3517 002a 08B9     		cbnz	r0, .L258
 3518              	.LVL289:
 3519              	.L255:
 748:Core/Src/esp32.c ****             break;
 749:Core/Src/esp32.c ****         if (Wifi_WaitForString(_WIFI_WAIT_TIME_LOW, &result, 2, "OK", "ERROR") == false)
 750:Core/Src/esp32.c ****             break;       // The timeout was completed and the string was not there
 751:Core/Src/esp32.c ****         if (result == 2) // It was find the "ERROR" String in the receiving information
ARM GAS  /var/folders/9y/n02fl3g16gnf7ppy14xghdy80000gn/T//ccoB4Sfq.s 			page 84


 752:Core/Src/esp32.c ****             break;
 753:Core/Src/esp32.c ****         if (Wifi_ReturnInteger((int32_t *)&result, 1, ":") == false)
 754:Core/Src/esp32.c ****             break;
 755:Core/Src/esp32.c ****         Wifi.TcpIpMultiConnection = (bool)result;
 756:Core/Src/esp32.c ****         returnVal = true;
 757:Core/Src/esp32.c ****     } while (0);
 3520              		.loc 1 757 13 is_stmt 1 view .LVU800
 758:Core/Src/esp32.c ****     return returnVal;
 3521              		.loc 1 758 5 view .LVU801
 759:Core/Src/esp32.c **** }
 3522              		.loc 1 759 1 is_stmt 0 view .LVU802
 3523 002c 04B0     		add	sp, sp, #16
 3524              		.cfi_remember_state
 3525              		.cfi_def_cfa_offset 8
 3526              		@ sp needed
 3527 002e 10BD     		pop	{r4, pc}
 3528              	.LVL290:
 3529              	.L258:
 3530              		.cfi_restore_state
 749:Core/Src/esp32.c ****             break;       // The timeout was completed and the string was not there
 3531              		.loc 1 749 9 is_stmt 1 view .LVU803
 749:Core/Src/esp32.c ****             break;       // The timeout was completed and the string was not there
 3532              		.loc 1 749 13 is_stmt 0 view .LVU804
 3533 0030 124B     		ldr	r3, .L260+8
 3534 0032 0093     		str	r3, [sp]
 3535 0034 124B     		ldr	r3, .L260+12
 3536 0036 0222     		movs	r2, #2
 3537 0038 0DF10F01 		add	r1, sp, #15
 3538 003c 4FF47A70 		mov	r0, #1000
 3539 0040 FFF7FEFF 		bl	Wifi_WaitForString
 3540              	.LVL291:
 749:Core/Src/esp32.c ****             break;       // The timeout was completed and the string was not there
 3541              		.loc 1 749 12 view .LVU805
 3542 0044 0028     		cmp	r0, #0
 3543 0046 F1D0     		beq	.L255
 751:Core/Src/esp32.c ****             break;
 3544              		.loc 1 751 9 is_stmt 1 view .LVU806
 751:Core/Src/esp32.c ****             break;
 3545              		.loc 1 751 20 is_stmt 0 view .LVU807
 3546 0048 9DF80F30 		ldrb	r3, [sp, #15]	@ zero_extendqisi2
 751:Core/Src/esp32.c ****             break;
 3547              		.loc 1 751 12 view .LVU808
 3548 004c 022B     		cmp	r3, #2
 3549 004e 01D1     		bne	.L259
 742:Core/Src/esp32.c ****     do
 3550              		.loc 1 742 10 view .LVU809
 3551 0050 0020     		movs	r0, #0
 3552 0052 EBE7     		b	.L255
 3553              	.L259:
 753:Core/Src/esp32.c ****             break;
 3554              		.loc 1 753 9 is_stmt 1 view .LVU810
 753:Core/Src/esp32.c ****             break;
 3555              		.loc 1 753 13 is_stmt 0 view .LVU811
 3556 0054 0B4A     		ldr	r2, .L260+16
 3557 0056 0121     		movs	r1, #1
 3558 0058 0DF10F00 		add	r0, sp, #15
 3559 005c FFF7FEFF 		bl	Wifi_ReturnInteger
ARM GAS  /var/folders/9y/n02fl3g16gnf7ppy14xghdy80000gn/T//ccoB4Sfq.s 			page 85


 3560              	.LVL292:
 753:Core/Src/esp32.c ****             break;
 3561              		.loc 1 753 12 view .LVU812
 3562 0060 0028     		cmp	r0, #0
 3563 0062 E3D0     		beq	.L255
 755:Core/Src/esp32.c ****         returnVal = true;
 3564              		.loc 1 755 9 is_stmt 1 view .LVU813
 755:Core/Src/esp32.c ****         returnVal = true;
 3565              		.loc 1 755 37 is_stmt 0 view .LVU814
 3566 0064 9DF80F30 		ldrb	r3, [sp, #15]	@ zero_extendqisi2
 3567 0068 003B     		subs	r3, r3, #0
 3568 006a 18BF     		it	ne
 3569 006c 0123     		movne	r3, #1
 755:Core/Src/esp32.c ****         returnVal = true;
 3570              		.loc 1 755 35 view .LVU815
 3571 006e 84F81837 		strb	r3, [r4, #1816]
 756:Core/Src/esp32.c ****     } while (0);
 3572              		.loc 1 756 9 is_stmt 1 view .LVU816
 3573              	.LVL293:
 756:Core/Src/esp32.c ****     } while (0);
 3574              		.loc 1 756 9 is_stmt 0 view .LVU817
 3575 0072 DBE7     		b	.L255
 3576              	.L261:
 3577              		.align	2
 3578              	.L260:
 3579 0074 00000000 		.word	.LANCHOR0
 3580 0078 00000000 		.word	.LC36
 3581 007c 0C000000 		.word	.LC2
 3582 0080 08000000 		.word	.LC1
 3583 0084 10000000 		.word	.LC10
 3584              		.cfi_endproc
 3585              	.LFE1187:
 3587              		.section	.rodata.Wifi_TcpIp_StartTcpConnection.str1.4,"aMS",%progbits,1
 3588              		.align	2
 3589              	.LC37:
 3590 0000 41542B43 		.ascii	"AT+CIPSERVER=1,%d\015\012\000"
 3590      49505345 
 3590      52564552 
 3590      3D312C25 
 3590      640D0A00 
 3591              		.align	2
 3592              	.LC38:
 3593 0014 41542B43 		.ascii	"AT+CIPSTART=\"TCP\",\"%s\",%d,%d\015\012\000"
 3593      49505354 
 3593      4152543D 
 3593      22544350 
 3593      222C2225 
 3594 0033 00       		.align	2
 3595              	.LC39:
 3596 0034 41542B43 		.ascii	"AT+CIPSTART=%d,\"TCP\",\"%s\",%d,%d\015\012\000"
 3596      49505354 
 3596      4152543D 
 3596      25642C22 
 3596      54435022 
 3597 0056 0000     		.align	2
 3598              	.LC40:
 3599 0058 434F4E4E 		.ascii	"CONNECT\000"
ARM GAS  /var/folders/9y/n02fl3g16gnf7ppy14xghdy80000gn/T//ccoB4Sfq.s 			page 86


 3599      45435400 
 3600              		.section	.text.Wifi_TcpIp_StartTcpConnection,"ax",%progbits
 3601              		.align	1
 3602              		.global	Wifi_TcpIp_StartTcpConnection
 3603              		.syntax unified
 3604              		.thumb
 3605              		.thumb_func
 3606              		.fpu fpv4-sp-d16
 3608              	Wifi_TcpIp_StartTcpConnection:
 3609              	.LVL294:
 3610              	.LFB1188:
 760:Core/Src/esp32.c **** // ################################################################################################
 761:Core/Src/esp32.c **** bool Wifi_TcpIp_StartTcpConnection(uint8_t LinkId, char *RemoteIp, uint16_t RemotePort, uint16_t Ti
 762:Core/Src/esp32.c **** {
 3611              		.loc 1 762 1 is_stmt 1 view -0
 3612              		.cfi_startproc
 3613              		@ args = 0, pretend = 0, frame = 8
 3614              		@ frame_needed = 0, uses_anonymous_args = 0
 3615              		.loc 1 762 1 is_stmt 0 view .LVU819
 3616 0000 2DE9F041 		push	{r4, r5, r6, r7, r8, lr}
 3617              		.cfi_def_cfa_offset 24
 3618              		.cfi_offset 4, -24
 3619              		.cfi_offset 5, -20
 3620              		.cfi_offset 6, -16
 3621              		.cfi_offset 7, -12
 3622              		.cfi_offset 8, -8
 3623              		.cfi_offset 14, -4
 3624 0004 84B0     		sub	sp, sp, #16
 3625              		.cfi_def_cfa_offset 40
 3626 0006 0746     		mov	r7, r0
 3627 0008 0D46     		mov	r5, r1
 3628 000a 1446     		mov	r4, r2
 3629 000c 1E46     		mov	r6, r3
 763:Core/Src/esp32.c ****     uint8_t result;
 3630              		.loc 1 763 5 is_stmt 1 view .LVU820
 764:Core/Src/esp32.c ****     bool returnVal = false;
 3631              		.loc 1 764 5 view .LVU821
 3632              	.LVL295:
 765:Core/Src/esp32.c ****     do
 3633              		.loc 1 765 5 view .LVU822
 766:Core/Src/esp32.c ****     {
 767:Core/Src/esp32.c ****         /*
 768:Core/Src/esp32.c ****          * It makes a TCP server and then it creates a TCP Connection according to the
 769:Core/Src/esp32.c ****          * settings in the function. It uses a very high time of waiting because the
 770:Core/Src/esp32.c ****          * ESP8266 takes a lot of time to create a connection with a TCP the first time.
 771:Core/Src/esp32.c ****          */
 772:Core/Src/esp32.c ****         Wifi_RxClear();
 3634              		.loc 1 772 9 view .LVU823
 3635 000e FFF7FEFF 		bl	Wifi_RxClear
 3636              	.LVL296:
 773:Core/Src/esp32.c ****         if (Wifi.TcpIpMultiConnection == true)
 3637              		.loc 1 773 9 view .LVU824
 3638              		.loc 1 773 17 is_stmt 0 view .LVU825
 3639 0012 2B49     		ldr	r1, .L270
 3640 0014 91F81817 		ldrb	r1, [r1, #1816]	@ zero_extendqisi2
 3641              		.loc 1 773 12 view .LVU826
 3642 0018 D9B1     		cbz	r1, .L263
ARM GAS  /var/folders/9y/n02fl3g16gnf7ppy14xghdy80000gn/T//ccoB4Sfq.s 			page 87


 774:Core/Src/esp32.c ****         {
 775:Core/Src/esp32.c ****             sprintf((char *)Wifi.TxBuffer, "AT+CIPSERVER=1,%d\r\n", RemotePort);
 3643              		.loc 1 775 13 is_stmt 1 view .LVU827
 3644 001a DFF8B880 		ldr	r8, .L270+20
 3645 001e 2246     		mov	r2, r4
 3646 0020 2849     		ldr	r1, .L270+4
 3647 0022 4046     		mov	r0, r8
 3648 0024 FFF7FEFF 		bl	sprintf
 3649              	.LVL297:
 776:Core/Src/esp32.c ****             if (Wifi_SendString((char *)Wifi.TxBuffer) == false)
 3650              		.loc 1 776 13 view .LVU828
 3651              		.loc 1 776 17 is_stmt 0 view .LVU829
 3652 0028 4046     		mov	r0, r8
 3653 002a FFF7FEFF 		bl	Wifi_SendString
 3654              	.LVL298:
 3655              		.loc 1 776 16 view .LVU830
 3656 002e 0146     		mov	r1, r0
 3657 0030 08B3     		cbz	r0, .L264
 777:Core/Src/esp32.c ****                 break;
 778:Core/Src/esp32.c ****             if (Wifi_WaitForString(_WIFI_WAIT_TIME_LOW, &result, 2, "OK", "ERROR") == false)
 3658              		.loc 1 778 13 is_stmt 1 view .LVU831
 3659              		.loc 1 778 17 is_stmt 0 view .LVU832
 3660 0032 254B     		ldr	r3, .L270+8
 3661 0034 0093     		str	r3, [sp]
 3662 0036 254B     		ldr	r3, .L270+12
 3663 0038 0222     		movs	r2, #2
 3664 003a 0DF10F01 		add	r1, sp, #15
 3665 003e 4FF47A70 		mov	r0, #1000
 3666 0042 FFF7FEFF 		bl	Wifi_WaitForString
 3667              	.LVL299:
 3668              		.loc 1 778 16 view .LVU833
 3669 0046 0146     		mov	r1, r0
 3670 0048 A8B1     		cbz	r0, .L264
 779:Core/Src/esp32.c ****                 break;       // The timeout was completed and the string was not there
 780:Core/Src/esp32.c ****             if (result == 2) // It was find the "ERROR" String in the receiving information
 3671              		.loc 1 780 13 is_stmt 1 view .LVU834
 3672              		.loc 1 780 24 is_stmt 0 view .LVU835
 3673 004a 9DF80F30 		ldrb	r3, [sp, #15]	@ zero_extendqisi2
 3674              		.loc 1 780 16 view .LVU836
 3675 004e 022B     		cmp	r3, #2
 3676 0050 33D0     		beq	.L267
 3677              	.L263:
 781:Core/Src/esp32.c ****                 break;
 782:Core/Src/esp32.c ****         }
 783:Core/Src/esp32.c ****         Wifi_RxClear();
 3678              		.loc 1 783 9 is_stmt 1 view .LVU837
 3679 0052 FFF7FEFF 		bl	Wifi_RxClear
 3680              	.LVL300:
 784:Core/Src/esp32.c ****         if (Wifi.TcpIpMultiConnection == false)
 3681              		.loc 1 784 9 view .LVU838
 3682              		.loc 1 784 17 is_stmt 0 view .LVU839
 3683 0056 1A4B     		ldr	r3, .L270
 3684 0058 93F81837 		ldrb	r3, [r3, #1816]	@ zero_extendqisi2
 3685              		.loc 1 784 12 view .LVU840
 3686 005c 7BB9     		cbnz	r3, .L265
 785:Core/Src/esp32.c ****             sprintf((char *)Wifi.TxBuffer, "AT+CIPSTART=\"TCP\",\"%s\",%d,%d\r\n", RemoteIp, Remote
 3687              		.loc 1 785 13 is_stmt 1 view .LVU841
ARM GAS  /var/folders/9y/n02fl3g16gnf7ppy14xghdy80000gn/T//ccoB4Sfq.s 			page 88


 3688 005e 0096     		str	r6, [sp]
 3689 0060 2346     		mov	r3, r4
 3690 0062 2A46     		mov	r2, r5
 3691 0064 1A49     		ldr	r1, .L270+16
 3692 0066 1B48     		ldr	r0, .L270+20
 3693 0068 FFF7FEFF 		bl	sprintf
 3694              	.LVL301:
 3695              	.L266:
 786:Core/Src/esp32.c ****         else
 787:Core/Src/esp32.c ****             sprintf((char *)Wifi.TxBuffer, "AT+CIPSTART=%d,\"TCP\",\"%s\",%d,%d\r\n", LinkId, Remot
 788:Core/Src/esp32.c ****         if (Wifi_SendString((char *)Wifi.TxBuffer) == false)
 3696              		.loc 1 788 9 view .LVU842
 3697              		.loc 1 788 13 is_stmt 0 view .LVU843
 3698 006c 1948     		ldr	r0, .L270+20
 3699 006e FFF7FEFF 		bl	Wifi_SendString
 3700              	.LVL302:
 3701              		.loc 1 788 12 view .LVU844
 3702 0072 0146     		mov	r1, r0
 3703 0074 60B9     		cbnz	r0, .L269
 3704              	.L264:
 3705              	.LVL303:
 789:Core/Src/esp32.c ****             break;
 790:Core/Src/esp32.c ****         if (Wifi_WaitForString(_WIFI_WAIT_TIME_HIGH, &result, 3, "OK", "CONNECT", "ERROR") == false
 791:Core/Src/esp32.c ****             break;
 792:Core/Src/esp32.c ****         if (result == 3)
 793:Core/Src/esp32.c ****             break;
 794:Core/Src/esp32.c ****         returnVal = true;
 795:Core/Src/esp32.c ****     } while (0);
 3706              		.loc 1 795 13 is_stmt 1 view .LVU845
 796:Core/Src/esp32.c ****     return returnVal;
 3707              		.loc 1 796 5 view .LVU846
 797:Core/Src/esp32.c **** }
 3708              		.loc 1 797 1 is_stmt 0 view .LVU847
 3709 0076 0846     		mov	r0, r1
 3710 0078 04B0     		add	sp, sp, #16
 3711              		.cfi_remember_state
 3712              		.cfi_def_cfa_offset 24
 3713              		@ sp needed
 3714 007a BDE8F081 		pop	{r4, r5, r6, r7, r8, pc}
 3715              	.LVL304:
 3716              	.L265:
 3717              		.cfi_restore_state
 787:Core/Src/esp32.c ****         if (Wifi_SendString((char *)Wifi.TxBuffer) == false)
 3718              		.loc 1 787 13 is_stmt 1 view .LVU848
 3719 007e 0196     		str	r6, [sp, #4]
 3720 0080 0094     		str	r4, [sp]
 3721 0082 2B46     		mov	r3, r5
 3722 0084 3A46     		mov	r2, r7
 3723 0086 1449     		ldr	r1, .L270+24
 3724 0088 1248     		ldr	r0, .L270+20
 3725 008a FFF7FEFF 		bl	sprintf
 3726              	.LVL305:
 3727 008e EDE7     		b	.L266
 3728              	.L269:
 790:Core/Src/esp32.c ****             break;
 3729              		.loc 1 790 9 view .LVU849
 790:Core/Src/esp32.c ****             break;
ARM GAS  /var/folders/9y/n02fl3g16gnf7ppy14xghdy80000gn/T//ccoB4Sfq.s 			page 89


 3730              		.loc 1 790 13 is_stmt 0 view .LVU850
 3731 0090 0D4B     		ldr	r3, .L270+8
 3732 0092 0193     		str	r3, [sp, #4]
 3733 0094 114B     		ldr	r3, .L270+28
 3734 0096 0093     		str	r3, [sp]
 3735 0098 0C4B     		ldr	r3, .L270+12
 3736 009a 0322     		movs	r2, #3
 3737 009c 0DF10F01 		add	r1, sp, #15
 3738 00a0 43F69820 		movw	r0, #15000
 3739 00a4 FFF7FEFF 		bl	Wifi_WaitForString
 3740              	.LVL306:
 790:Core/Src/esp32.c ****             break;
 3741              		.loc 1 790 12 view .LVU851
 3742 00a8 0146     		mov	r1, r0
 3743 00aa 0028     		cmp	r0, #0
 3744 00ac E3D0     		beq	.L264
 792:Core/Src/esp32.c ****             break;
 3745              		.loc 1 792 9 is_stmt 1 view .LVU852
 792:Core/Src/esp32.c ****             break;
 3746              		.loc 1 792 20 is_stmt 0 view .LVU853
 3747 00ae 9DF80F30 		ldrb	r3, [sp, #15]	@ zero_extendqisi2
 792:Core/Src/esp32.c ****             break;
 3748              		.loc 1 792 12 view .LVU854
 3749 00b2 032B     		cmp	r3, #3
 3750 00b4 DFD1     		bne	.L264
 764:Core/Src/esp32.c ****     do
 3751              		.loc 1 764 10 view .LVU855
 3752 00b6 0021     		movs	r1, #0
 3753 00b8 DDE7     		b	.L264
 3754              	.L267:
 3755 00ba 0021     		movs	r1, #0
 3756 00bc DBE7     		b	.L264
 3757              	.L271:
 3758 00be 00BF     		.align	2
 3759              	.L270:
 3760 00c0 00000000 		.word	.LANCHOR0
 3761 00c4 00000000 		.word	.LC37
 3762 00c8 0C000000 		.word	.LC2
 3763 00cc 08000000 		.word	.LC1
 3764 00d0 14000000 		.word	.LC38
 3765 00d4 01020000 		.word	.LANCHOR0+513
 3766 00d8 34000000 		.word	.LC39
 3767 00dc 58000000 		.word	.LC40
 3768              		.cfi_endproc
 3769              	.LFE1188:
 3771              		.section	.rodata.Wifi_TcpIp_StartUdpConnection.str1.4,"aMS",%progbits,1
 3772              		.align	2
 3773              	.LC41:
 3774 0000 41542B43 		.ascii	"AT+CIPSTART=\"UDP\",\"%s\",%d,%d\015\012\000"
 3774      49505354 
 3774      4152543D 
 3774      22554450 
 3774      222C2225 
 3775 001f 00       		.align	2
 3776              	.LC42:
 3777 0020 41542B43 		.ascii	"AT+CIPSTART=%d,\"UDP\",\"%s\",%d,%d\015\012\000"
 3777      49505354 
ARM GAS  /var/folders/9y/n02fl3g16gnf7ppy14xghdy80000gn/T//ccoB4Sfq.s 			page 90


 3777      4152543D 
 3777      25642C22 
 3777      55445022 
 3778 0042 0000     		.align	2
 3779              	.LC43:
 3780 0044 414C5245 		.ascii	"ALREADY\000"
 3780      41445900 
 3781              		.section	.text.Wifi_TcpIp_StartUdpConnection,"ax",%progbits
 3782              		.align	1
 3783              		.global	Wifi_TcpIp_StartUdpConnection
 3784              		.syntax unified
 3785              		.thumb
 3786              		.thumb_func
 3787              		.fpu fpv4-sp-d16
 3789              	Wifi_TcpIp_StartUdpConnection:
 3790              	.LVL307:
 3791              	.LFB1189:
 798:Core/Src/esp32.c **** // ################################################################################################
 799:Core/Src/esp32.c **** bool Wifi_TcpIp_StartUdpConnection(uint8_t LinkId, char *RemoteIp, uint16_t RemotePort, uint16_t Lo
 800:Core/Src/esp32.c **** {
 3792              		.loc 1 800 1 is_stmt 1 view -0
 3793              		.cfi_startproc
 3794              		@ args = 0, pretend = 0, frame = 8
 3795              		@ frame_needed = 0, uses_anonymous_args = 0
 3796              		.loc 1 800 1 is_stmt 0 view .LVU857
 3797 0000 F0B5     		push	{r4, r5, r6, r7, lr}
 3798              		.cfi_def_cfa_offset 20
 3799              		.cfi_offset 4, -20
 3800              		.cfi_offset 5, -16
 3801              		.cfi_offset 6, -12
 3802              		.cfi_offset 7, -8
 3803              		.cfi_offset 14, -4
 3804 0002 85B0     		sub	sp, sp, #20
 3805              		.cfi_def_cfa_offset 40
 3806 0004 0746     		mov	r7, r0
 3807 0006 0C46     		mov	r4, r1
 3808 0008 1546     		mov	r5, r2
 3809 000a 1E46     		mov	r6, r3
 801:Core/Src/esp32.c ****     uint8_t result;
 3810              		.loc 1 801 5 is_stmt 1 view .LVU858
 802:Core/Src/esp32.c ****     bool returnVal = false;
 3811              		.loc 1 802 5 view .LVU859
 3812              	.LVL308:
 803:Core/Src/esp32.c ****     do
 3813              		.loc 1 803 5 view .LVU860
 804:Core/Src/esp32.c ****     {
 805:Core/Src/esp32.c ****         Wifi_RxClear();
 3814              		.loc 1 805 9 view .LVU861
 3815 000c FFF7FEFF 		bl	Wifi_RxClear
 3816              	.LVL309:
 806:Core/Src/esp32.c ****         if (Wifi.TcpIpMultiConnection == false)
 3817              		.loc 1 806 9 view .LVU862
 3818              		.loc 1 806 17 is_stmt 0 view .LVU863
 3819 0010 164B     		ldr	r3, .L278
 3820 0012 93F81837 		ldrb	r3, [r3, #1816]	@ zero_extendqisi2
 3821              		.loc 1 806 12 view .LVU864
 3822 0016 63B9     		cbnz	r3, .L273
ARM GAS  /var/folders/9y/n02fl3g16gnf7ppy14xghdy80000gn/T//ccoB4Sfq.s 			page 91


 807:Core/Src/esp32.c ****             sprintf((char *)Wifi.TxBuffer, "AT+CIPSTART=\"UDP\",\"%s\",%d,%d\r\n", RemoteIp, Remote
 3823              		.loc 1 807 13 is_stmt 1 view .LVU865
 3824 0018 0096     		str	r6, [sp]
 3825 001a 2B46     		mov	r3, r5
 3826 001c 2246     		mov	r2, r4
 3827 001e 1449     		ldr	r1, .L278+4
 3828 0020 1448     		ldr	r0, .L278+8
 3829 0022 FFF7FEFF 		bl	sprintf
 3830              	.LVL310:
 3831              	.L274:
 808:Core/Src/esp32.c ****         else
 809:Core/Src/esp32.c ****             sprintf((char *)Wifi.TxBuffer, "AT+CIPSTART=%d,\"UDP\",\"%s\",%d,%d\r\n", LinkId, Remot
 810:Core/Src/esp32.c ****         if (Wifi_SendString((char *)Wifi.TxBuffer) == false)
 3832              		.loc 1 810 9 view .LVU866
 3833              		.loc 1 810 13 is_stmt 0 view .LVU867
 3834 0026 1348     		ldr	r0, .L278+8
 3835 0028 FFF7FEFF 		bl	Wifi_SendString
 3836              	.LVL311:
 3837              		.loc 1 810 12 view .LVU868
 3838 002c 50B9     		cbnz	r0, .L277
 3839              	.L275:
 3840              	.LVL312:
 811:Core/Src/esp32.c ****             break;
 812:Core/Src/esp32.c ****         if (Wifi_WaitForString(_WIFI_WAIT_TIME_HIGH, &result, 3, "OK", "ALREADY", "ERROR") == false
 813:Core/Src/esp32.c ****             break;
 814:Core/Src/esp32.c ****         if (result == 3) // If the RX String returns a ERROR the function breaks and
 815:Core/Src/esp32.c ****             break;       // send a false
 816:Core/Src/esp32.c ****         returnVal = true;
 817:Core/Src/esp32.c ****     } while (0);
 3841              		.loc 1 817 13 is_stmt 1 view .LVU869
 818:Core/Src/esp32.c ****     return returnVal;
 3842              		.loc 1 818 5 view .LVU870
 819:Core/Src/esp32.c **** }
 3843              		.loc 1 819 1 is_stmt 0 view .LVU871
 3844 002e 05B0     		add	sp, sp, #20
 3845              		.cfi_remember_state
 3846              		.cfi_def_cfa_offset 20
 3847              		@ sp needed
 3848 0030 F0BD     		pop	{r4, r5, r6, r7, pc}
 3849              	.LVL313:
 3850              	.L273:
 3851              		.cfi_restore_state
 809:Core/Src/esp32.c ****         if (Wifi_SendString((char *)Wifi.TxBuffer) == false)
 3852              		.loc 1 809 13 is_stmt 1 view .LVU872
 3853 0032 0196     		str	r6, [sp, #4]
 3854 0034 0095     		str	r5, [sp]
 3855 0036 2346     		mov	r3, r4
 3856 0038 3A46     		mov	r2, r7
 3857 003a 0F49     		ldr	r1, .L278+12
 3858 003c 0D48     		ldr	r0, .L278+8
 3859 003e FFF7FEFF 		bl	sprintf
 3860              	.LVL314:
 3861 0042 F0E7     		b	.L274
 3862              	.L277:
 812:Core/Src/esp32.c ****             break;
 3863              		.loc 1 812 9 view .LVU873
 812:Core/Src/esp32.c ****             break;
ARM GAS  /var/folders/9y/n02fl3g16gnf7ppy14xghdy80000gn/T//ccoB4Sfq.s 			page 92


 3864              		.loc 1 812 13 is_stmt 0 view .LVU874
 3865 0044 0D4B     		ldr	r3, .L278+16
 3866 0046 0193     		str	r3, [sp, #4]
 3867 0048 0D4B     		ldr	r3, .L278+20
 3868 004a 0093     		str	r3, [sp]
 3869 004c 0D4B     		ldr	r3, .L278+24
 3870 004e 0322     		movs	r2, #3
 3871 0050 0DF10F01 		add	r1, sp, #15
 3872 0054 43F69820 		movw	r0, #15000
 3873 0058 FFF7FEFF 		bl	Wifi_WaitForString
 3874              	.LVL315:
 812:Core/Src/esp32.c ****             break;
 3875              		.loc 1 812 12 view .LVU875
 3876 005c 0028     		cmp	r0, #0
 3877 005e E6D0     		beq	.L275
 814:Core/Src/esp32.c ****             break;       // send a false
 3878              		.loc 1 814 9 is_stmt 1 view .LVU876
 814:Core/Src/esp32.c ****             break;       // send a false
 3879              		.loc 1 814 20 is_stmt 0 view .LVU877
 3880 0060 9DF80F30 		ldrb	r3, [sp, #15]	@ zero_extendqisi2
 814:Core/Src/esp32.c ****             break;       // send a false
 3881              		.loc 1 814 12 view .LVU878
 3882 0064 032B     		cmp	r3, #3
 3883 0066 E2D1     		bne	.L275
 802:Core/Src/esp32.c ****     do
 3884              		.loc 1 802 10 view .LVU879
 3885 0068 0020     		movs	r0, #0
 3886 006a E0E7     		b	.L275
 3887              	.L279:
 3888              		.align	2
 3889              	.L278:
 3890 006c 00000000 		.word	.LANCHOR0
 3891 0070 00000000 		.word	.LC41
 3892 0074 01020000 		.word	.LANCHOR0+513
 3893 0078 20000000 		.word	.LC42
 3894 007c 0C000000 		.word	.LC2
 3895 0080 44000000 		.word	.LC43
 3896 0084 08000000 		.word	.LC1
 3897              		.cfi_endproc
 3898              	.LFE1189:
 3900              		.section	.rodata.Wifi_TcpIp_Close.str1.4,"aMS",%progbits,1
 3901              		.align	2
 3902              	.LC44:
 3903 0000 41542B43 		.ascii	"AT+CIPCLOSE\015\012\000"
 3903      4950434C 
 3903      4F53450D 
 3903      0A00
 3904 000e 0000     		.align	2
 3905              	.LC45:
 3906 0010 41542B43 		.ascii	"AT+CIPCLOSE=%d\015\012\000"
 3906      4950434C 
 3906      4F53453D 
 3906      25640D0A 
 3906      00
 3907              		.section	.text.Wifi_TcpIp_Close,"ax",%progbits
 3908              		.align	1
 3909              		.global	Wifi_TcpIp_Close
ARM GAS  /var/folders/9y/n02fl3g16gnf7ppy14xghdy80000gn/T//ccoB4Sfq.s 			page 93


 3910              		.syntax unified
 3911              		.thumb
 3912              		.thumb_func
 3913              		.fpu fpv4-sp-d16
 3915              	Wifi_TcpIp_Close:
 3916              	.LVL316:
 3917              	.LFB1190:
 820:Core/Src/esp32.c **** // ################################################################################################
 821:Core/Src/esp32.c **** bool Wifi_TcpIp_Close(uint8_t LinkId)
 822:Core/Src/esp32.c **** {
 3918              		.loc 1 822 1 is_stmt 1 view -0
 3919              		.cfi_startproc
 3920              		@ args = 0, pretend = 0, frame = 8
 3921              		@ frame_needed = 0, uses_anonymous_args = 0
 3922              		.loc 1 822 1 is_stmt 0 view .LVU881
 3923 0000 10B5     		push	{r4, lr}
 3924              		.cfi_def_cfa_offset 8
 3925              		.cfi_offset 4, -8
 3926              		.cfi_offset 14, -4
 3927 0002 84B0     		sub	sp, sp, #16
 3928              		.cfi_def_cfa_offset 24
 3929 0004 0446     		mov	r4, r0
 823:Core/Src/esp32.c ****     uint8_t result;
 3930              		.loc 1 823 5 is_stmt 1 view .LVU882
 824:Core/Src/esp32.c ****     bool returnVal = false;
 3931              		.loc 1 824 5 view .LVU883
 3932              	.LVL317:
 825:Core/Src/esp32.c ****     do
 3933              		.loc 1 825 5 view .LVU884
 826:Core/Src/esp32.c ****     {
 827:Core/Src/esp32.c ****         Wifi_RxClear();
 3934              		.loc 1 827 9 view .LVU885
 3935 0006 FFF7FEFF 		bl	Wifi_RxClear
 3936              	.LVL318:
 828:Core/Src/esp32.c ****         if (Wifi.TcpIpMultiConnection == false)
 3937              		.loc 1 828 9 view .LVU886
 3938              		.loc 1 828 17 is_stmt 0 view .LVU887
 3939 000a 174B     		ldr	r3, .L286
 3940 000c 93F81837 		ldrb	r3, [r3, #1816]	@ zero_extendqisi2
 3941              		.loc 1 828 12 view .LVU888
 3942 0010 8BB9     		cbnz	r3, .L281
 829:Core/Src/esp32.c ****             sprintf((char *)Wifi.TxBuffer, "AT+CIPCLOSE\r\n");
 3943              		.loc 1 829 13 is_stmt 1 view .LVU889
 3944 0012 154C     		ldr	r4, .L286
 3945 0014 154B     		ldr	r3, .L286+4
 3946 0016 07CB     		ldmia	r3!, {r0, r1, r2}
 3947 0018 C4F80102 		str	r0, [r4, #513]	@ unaligned
 3948 001c C4F80512 		str	r1, [r4, #517]	@ unaligned
 3949 0020 C4F80922 		str	r2, [r4, #521]	@ unaligned
 3950 0024 1B88     		ldrh	r3, [r3]	@ unaligned
 3951 0026 A4F80D32 		strh	r3, [r4, #525]	@ unaligned
 3952              	.L282:
 830:Core/Src/esp32.c ****         else
 831:Core/Src/esp32.c ****             sprintf((char *)Wifi.TxBuffer, "AT+CIPCLOSE=%d\r\n", LinkId);
 832:Core/Src/esp32.c ****         if (Wifi_SendString((char *)Wifi.TxBuffer) == false)
 3953              		.loc 1 832 9 view .LVU890
 3954              		.loc 1 832 13 is_stmt 0 view .LVU891
ARM GAS  /var/folders/9y/n02fl3g16gnf7ppy14xghdy80000gn/T//ccoB4Sfq.s 			page 94


 3955 002a 1148     		ldr	r0, .L286+8
 3956 002c FFF7FEFF 		bl	Wifi_SendString
 3957              	.LVL319:
 3958              		.loc 1 832 12 view .LVU892
 3959 0030 38B9     		cbnz	r0, .L285
 3960              	.L283:
 3961              	.LVL320:
 833:Core/Src/esp32.c ****             break;
 834:Core/Src/esp32.c ****         if (Wifi_WaitForString(_WIFI_WAIT_TIME_LOW, &result, 2, "OK", "ERROR") == false)
 835:Core/Src/esp32.c ****             break;       // The timeout was completed and the string was not there
 836:Core/Src/esp32.c ****         if (result == 2) // It was find the "ERROR" String in the receiving information
 837:Core/Src/esp32.c ****             break;
 838:Core/Src/esp32.c ****         returnVal = true;
 839:Core/Src/esp32.c ****     } while (0);
 3962              		.loc 1 839 13 is_stmt 1 view .LVU893
 840:Core/Src/esp32.c ****     return returnVal;
 3963              		.loc 1 840 5 view .LVU894
 841:Core/Src/esp32.c **** }
 3964              		.loc 1 841 1 is_stmt 0 view .LVU895
 3965 0032 04B0     		add	sp, sp, #16
 3966              		.cfi_remember_state
 3967              		.cfi_def_cfa_offset 8
 3968              		@ sp needed
 3969 0034 10BD     		pop	{r4, pc}
 3970              	.LVL321:
 3971              	.L281:
 3972              		.cfi_restore_state
 831:Core/Src/esp32.c ****         if (Wifi_SendString((char *)Wifi.TxBuffer) == false)
 3973              		.loc 1 831 13 is_stmt 1 view .LVU896
 3974 0036 2246     		mov	r2, r4
 3975 0038 0E49     		ldr	r1, .L286+12
 3976 003a 0D48     		ldr	r0, .L286+8
 3977 003c FFF7FEFF 		bl	sprintf
 3978              	.LVL322:
 3979 0040 F3E7     		b	.L282
 3980              	.L285:
 834:Core/Src/esp32.c ****             break;       // The timeout was completed and the string was not there
 3981              		.loc 1 834 9 view .LVU897
 834:Core/Src/esp32.c ****             break;       // The timeout was completed and the string was not there
 3982              		.loc 1 834 13 is_stmt 0 view .LVU898
 3983 0042 0D4B     		ldr	r3, .L286+16
 3984 0044 0093     		str	r3, [sp]
 3985 0046 0D4B     		ldr	r3, .L286+20
 3986 0048 0222     		movs	r2, #2
 3987 004a 0DF10F01 		add	r1, sp, #15
 3988 004e 4FF47A70 		mov	r0, #1000
 3989 0052 FFF7FEFF 		bl	Wifi_WaitForString
 3990              	.LVL323:
 834:Core/Src/esp32.c ****             break;       // The timeout was completed and the string was not there
 3991              		.loc 1 834 12 view .LVU899
 3992 0056 0028     		cmp	r0, #0
 3993 0058 EBD0     		beq	.L283
 836:Core/Src/esp32.c ****             break;
 3994              		.loc 1 836 9 is_stmt 1 view .LVU900
 836:Core/Src/esp32.c ****             break;
 3995              		.loc 1 836 20 is_stmt 0 view .LVU901
 3996 005a 9DF80F30 		ldrb	r3, [sp, #15]	@ zero_extendqisi2
ARM GAS  /var/folders/9y/n02fl3g16gnf7ppy14xghdy80000gn/T//ccoB4Sfq.s 			page 95


 836:Core/Src/esp32.c ****             break;
 3997              		.loc 1 836 12 view .LVU902
 3998 005e 022B     		cmp	r3, #2
 3999 0060 E7D1     		bne	.L283
 824:Core/Src/esp32.c ****     do
 4000              		.loc 1 824 10 view .LVU903
 4001 0062 0020     		movs	r0, #0
 4002 0064 E5E7     		b	.L283
 4003              	.L287:
 4004 0066 00BF     		.align	2
 4005              	.L286:
 4006 0068 00000000 		.word	.LANCHOR0
 4007 006c 00000000 		.word	.LC44
 4008 0070 01020000 		.word	.LANCHOR0+513
 4009 0074 10000000 		.word	.LC45
 4010 0078 0C000000 		.word	.LC2
 4011 007c 08000000 		.word	.LC1
 4012              		.cfi_endproc
 4013              	.LFE1190:
 4015              		.section	.rodata.Wifi_TcpIp_SetEnableTcpServer.str1.4,"aMS",%progbits,1
 4016              		.align	2
 4017              	.LC46:
 4018 0000 41542B43 		.ascii	"AT+CIPMUX=1\015\012\000"
 4018      49504D55 
 4018      583D310D 
 4018      0A00
 4019              		.section	.text.Wifi_TcpIp_SetEnableTcpServer,"ax",%progbits
 4020              		.align	1
 4021              		.global	Wifi_TcpIp_SetEnableTcpServer
 4022              		.syntax unified
 4023              		.thumb
 4024              		.thumb_func
 4025              		.fpu fpv4-sp-d16
 4027              	Wifi_TcpIp_SetEnableTcpServer:
 4028              	.LVL324:
 4029              	.LFB1191:
 842:Core/Src/esp32.c **** // ################################################################################################
 843:Core/Src/esp32.c **** bool Wifi_TcpIp_SetEnableTcpServer(uint16_t PortNumber)
 844:Core/Src/esp32.c **** {
 4030              		.loc 1 844 1 is_stmt 1 view -0
 4031              		.cfi_startproc
 4032              		@ args = 0, pretend = 0, frame = 8
 4033              		@ frame_needed = 0, uses_anonymous_args = 0
 4034              		.loc 1 844 1 is_stmt 0 view .LVU905
 4035 0000 30B5     		push	{r4, r5, lr}
 4036              		.cfi_def_cfa_offset 12
 4037              		.cfi_offset 4, -12
 4038              		.cfi_offset 5, -8
 4039              		.cfi_offset 14, -4
 4040 0002 85B0     		sub	sp, sp, #20
 4041              		.cfi_def_cfa_offset 32
 4042 0004 0446     		mov	r4, r0
 845:Core/Src/esp32.c ****     uint8_t result;
 4043              		.loc 1 845 5 is_stmt 1 view .LVU906
 846:Core/Src/esp32.c ****     bool returnVal = false;
 4044              		.loc 1 846 5 view .LVU907
 4045              	.LVL325:
ARM GAS  /var/folders/9y/n02fl3g16gnf7ppy14xghdy80000gn/T//ccoB4Sfq.s 			page 96


 847:Core/Src/esp32.c ****     do
 4046              		.loc 1 847 5 view .LVU908
 848:Core/Src/esp32.c ****     {
 849:Core/Src/esp32.c ****         Wifi_RxClear();
 4047              		.loc 1 849 9 view .LVU909
 4048 0006 FFF7FEFF 		bl	Wifi_RxClear
 4049              	.LVL326:
 850:Core/Src/esp32.c ****         if (Wifi.TcpIpMultiConnection == false)
 4050              		.loc 1 850 9 view .LVU910
 4051              		.loc 1 850 17 is_stmt 0 view .LVU911
 4052 000a 274B     		ldr	r3, .L296
 4053 000c 93F81857 		ldrb	r5, [r3, #1816]	@ zero_extendqisi2
 4054              		.loc 1 850 12 view .LVU912
 4055 0010 4DBB     		cbnz	r5, .L289
 851:Core/Src/esp32.c ****         {
 852:Core/Src/esp32.c ****             // it actives the Multiconnection first to make a TCP Server
 853:Core/Src/esp32.c ****             sprintf((char *)Wifi.TxBuffer, "AT+CIPMUX=1\r\n");
 4056              		.loc 1 853 13 is_stmt 1 view .LVU913
 4057 0012 1C46     		mov	r4, r3
 4058 0014 254B     		ldr	r3, .L296+4
 4059 0016 07CB     		ldmia	r3!, {r0, r1, r2}
 4060 0018 C4F80102 		str	r0, [r4, #513]	@ unaligned
 4061 001c C4F80512 		str	r1, [r4, #517]	@ unaligned
 4062 0020 C4F80922 		str	r2, [r4, #521]	@ unaligned
 4063 0024 1B88     		ldrh	r3, [r3]	@ unaligned
 4064 0026 A4F80D32 		strh	r3, [r4, #525]	@ unaligned
 854:Core/Src/esp32.c ****             if (Wifi_SendString((char *)Wifi.TxBuffer) == false)
 4065              		.loc 1 854 13 view .LVU914
 4066              		.loc 1 854 17 is_stmt 0 view .LVU915
 4067 002a 04F20120 		addw	r0, r4, #513
 4068 002e FFF7FEFF 		bl	Wifi_SendString
 4069              	.LVL327:
 4070              		.loc 1 854 16 view .LVU916
 4071 0032 0346     		mov	r3, r0
 4072 0034 08B3     		cbz	r0, .L290
 855:Core/Src/esp32.c ****                 break;
 856:Core/Src/esp32.c ****             if (Wifi_WaitForString(_WIFI_WAIT_TIME_LOW, &result, 2, "OK", "ERROR") == false)
 4073              		.loc 1 856 13 is_stmt 1 view .LVU917
 4074              		.loc 1 856 17 is_stmt 0 view .LVU918
 4075 0036 1E4B     		ldr	r3, .L296+8
 4076 0038 0093     		str	r3, [sp]
 4077 003a 1E4B     		ldr	r3, .L296+12
 4078 003c 0222     		movs	r2, #2
 4079 003e 0DF10F01 		add	r1, sp, #15
 4080 0042 4FF47A70 		mov	r0, #1000
 4081 0046 FFF7FEFF 		bl	Wifi_WaitForString
 4082              	.LVL328:
 4083              		.loc 1 856 16 view .LVU919
 4084 004a 0346     		mov	r3, r0
 4085 004c A8B1     		cbz	r0, .L290
 857:Core/Src/esp32.c ****                 break;       // The timeout was completed and the string was not there
 858:Core/Src/esp32.c ****             if (result == 2) // It was find the "ERROR" String in the receiving information
 4086              		.loc 1 858 13 is_stmt 1 view .LVU920
 4087              		.loc 1 858 24 is_stmt 0 view .LVU921
 4088 004e 9DF80F30 		ldrb	r3, [sp, #15]	@ zero_extendqisi2
 4089              		.loc 1 858 16 view .LVU922
 4090 0052 022B     		cmp	r3, #2
ARM GAS  /var/folders/9y/n02fl3g16gnf7ppy14xghdy80000gn/T//ccoB4Sfq.s 			page 97


 4091 0054 01D1     		bne	.L294
 846:Core/Src/esp32.c ****     do
 4092              		.loc 1 846 10 view .LVU923
 4093 0056 2B46     		mov	r3, r5
 4094 0058 0FE0     		b	.L290
 4095              	.L294:
 859:Core/Src/esp32.c ****                 break;
 860:Core/Src/esp32.c ****             Wifi.TcpIpMultiConnection = true;
 4096              		.loc 1 860 13 is_stmt 1 view .LVU924
 4097              		.loc 1 860 39 is_stmt 0 view .LVU925
 4098 005a 0122     		movs	r2, #1
 4099 005c 84F81827 		strb	r2, [r4, #1816]
 861:Core/Src/esp32.c ****             Wifi_RxClear();
 4100              		.loc 1 861 13 is_stmt 1 view .LVU926
 4101 0060 FFF7FEFF 		bl	Wifi_RxClear
 4102              	.LVL329:
 4103 0064 04E0     		b	.L291
 4104              	.L289:
 862:Core/Src/esp32.c ****         }
 863:Core/Src/esp32.c ****         else
 864:Core/Src/esp32.c ****             sprintf((char *)Wifi.TxBuffer, "AT+CIPSERVER=1,%d\r\n", PortNumber);
 4105              		.loc 1 864 13 view .LVU927
 4106 0066 2246     		mov	r2, r4
 4107 0068 1349     		ldr	r1, .L296+16
 4108 006a 1448     		ldr	r0, .L296+20
 4109 006c FFF7FEFF 		bl	sprintf
 4110              	.LVL330:
 4111              	.L291:
 865:Core/Src/esp32.c ****         if (Wifi_SendString((char *)Wifi.TxBuffer) == false)
 4112              		.loc 1 865 9 view .LVU928
 4113              		.loc 1 865 13 is_stmt 0 view .LVU929
 4114 0070 1248     		ldr	r0, .L296+20
 4115 0072 FFF7FEFF 		bl	Wifi_SendString
 4116              	.LVL331:
 4117              		.loc 1 865 12 view .LVU930
 4118 0076 0346     		mov	r3, r0
 4119 0078 10B9     		cbnz	r0, .L295
 4120              	.L290:
 4121              	.LVL332:
 866:Core/Src/esp32.c ****             break;
 867:Core/Src/esp32.c ****         if (Wifi_WaitForString(_WIFI_WAIT_TIME_LOW, &result, 2, "OK", "ERROR") == false)
 868:Core/Src/esp32.c ****             break;       // The timeout was completed and the string was not there
 869:Core/Src/esp32.c ****         if (result == 2) // It was find the "ERROR" String in the receiving information
 870:Core/Src/esp32.c ****             break;
 871:Core/Src/esp32.c ****         returnVal = true;
 872:Core/Src/esp32.c ****     } while (0);
 4122              		.loc 1 872 13 is_stmt 1 view .LVU931
 873:Core/Src/esp32.c ****     return returnVal;
 4123              		.loc 1 873 5 view .LVU932
 874:Core/Src/esp32.c **** }
 4124              		.loc 1 874 1 is_stmt 0 view .LVU933
 4125 007a 1846     		mov	r0, r3
 4126 007c 05B0     		add	sp, sp, #20
 4127              		.cfi_remember_state
 4128              		.cfi_def_cfa_offset 12
 4129              		@ sp needed
 4130 007e 30BD     		pop	{r4, r5, pc}
ARM GAS  /var/folders/9y/n02fl3g16gnf7ppy14xghdy80000gn/T//ccoB4Sfq.s 			page 98


 4131              	.LVL333:
 4132              	.L295:
 4133              		.cfi_restore_state
 867:Core/Src/esp32.c ****             break;       // The timeout was completed and the string was not there
 4134              		.loc 1 867 9 is_stmt 1 view .LVU934
 867:Core/Src/esp32.c ****             break;       // The timeout was completed and the string was not there
 4135              		.loc 1 867 13 is_stmt 0 view .LVU935
 4136 0080 0B4B     		ldr	r3, .L296+8
 4137 0082 0093     		str	r3, [sp]
 4138 0084 0B4B     		ldr	r3, .L296+12
 4139 0086 0222     		movs	r2, #2
 4140 0088 0DF10F01 		add	r1, sp, #15
 4141 008c 4FF47A70 		mov	r0, #1000
 4142 0090 FFF7FEFF 		bl	Wifi_WaitForString
 4143              	.LVL334:
 867:Core/Src/esp32.c ****             break;       // The timeout was completed and the string was not there
 4144              		.loc 1 867 12 view .LVU936
 4145 0094 0346     		mov	r3, r0
 4146 0096 0028     		cmp	r0, #0
 4147 0098 EFD0     		beq	.L290
 869:Core/Src/esp32.c ****             break;
 4148              		.loc 1 869 9 is_stmt 1 view .LVU937
 869:Core/Src/esp32.c ****             break;
 4149              		.loc 1 869 20 is_stmt 0 view .LVU938
 4150 009a 9DF80F20 		ldrb	r2, [sp, #15]	@ zero_extendqisi2
 869:Core/Src/esp32.c ****             break;
 4151              		.loc 1 869 12 view .LVU939
 4152 009e 022A     		cmp	r2, #2
 4153 00a0 EBD1     		bne	.L290
 846:Core/Src/esp32.c ****     do
 4154              		.loc 1 846 10 view .LVU940
 4155 00a2 0023     		movs	r3, #0
 4156 00a4 E9E7     		b	.L290
 4157              	.L297:
 4158 00a6 00BF     		.align	2
 4159              	.L296:
 4160 00a8 00000000 		.word	.LANCHOR0
 4161 00ac 00000000 		.word	.LC46
 4162 00b0 0C000000 		.word	.LC2
 4163 00b4 08000000 		.word	.LC1
 4164 00b8 00000000 		.word	.LC37
 4165 00bc 01020000 		.word	.LANCHOR0+513
 4166              		.cfi_endproc
 4167              	.LFE1191:
 4169              		.section	.rodata.Wifi_TcpIp_SetDisableTcpServer.str1.4,"aMS",%progbits,1
 4170              		.align	2
 4171              	.LC47:
 4172 0000 41542B43 		.ascii	"AT+CIPSERVER=0,%d\015\012\000"
 4172      49505345 
 4172      52564552 
 4172      3D302C25 
 4172      640D0A00 
 4173              		.section	.text.Wifi_TcpIp_SetDisableTcpServer,"ax",%progbits
 4174              		.align	1
 4175              		.global	Wifi_TcpIp_SetDisableTcpServer
 4176              		.syntax unified
 4177              		.thumb
ARM GAS  /var/folders/9y/n02fl3g16gnf7ppy14xghdy80000gn/T//ccoB4Sfq.s 			page 99


 4178              		.thumb_func
 4179              		.fpu fpv4-sp-d16
 4181              	Wifi_TcpIp_SetDisableTcpServer:
 4182              	.LVL335:
 4183              	.LFB1192:
 875:Core/Src/esp32.c **** // ################################################################################################
 876:Core/Src/esp32.c **** bool Wifi_TcpIp_SetDisableTcpServer(uint16_t PortNumber)
 877:Core/Src/esp32.c **** {
 4184              		.loc 1 877 1 is_stmt 1 view -0
 4185              		.cfi_startproc
 4186              		@ args = 0, pretend = 0, frame = 8
 4187              		@ frame_needed = 0, uses_anonymous_args = 0
 4188              		.loc 1 877 1 is_stmt 0 view .LVU942
 4189 0000 30B5     		push	{r4, r5, lr}
 4190              		.cfi_def_cfa_offset 12
 4191              		.cfi_offset 4, -12
 4192              		.cfi_offset 5, -8
 4193              		.cfi_offset 14, -4
 4194 0002 85B0     		sub	sp, sp, #20
 4195              		.cfi_def_cfa_offset 32
 4196 0004 0446     		mov	r4, r0
 878:Core/Src/esp32.c ****     uint8_t result;
 4197              		.loc 1 878 5 is_stmt 1 view .LVU943
 879:Core/Src/esp32.c ****     bool returnVal = false;
 4198              		.loc 1 879 5 view .LVU944
 4199              	.LVL336:
 880:Core/Src/esp32.c ****     do
 4200              		.loc 1 880 5 view .LVU945
 881:Core/Src/esp32.c ****     {
 882:Core/Src/esp32.c ****         Wifi_RxClear();
 4201              		.loc 1 882 9 view .LVU946
 4202 0006 FFF7FEFF 		bl	Wifi_RxClear
 4203              	.LVL337:
 883:Core/Src/esp32.c ****         sprintf((char *)Wifi.TxBuffer, "AT+CIPSERVER=0,%d\r\n", PortNumber);
 4204              		.loc 1 883 9 view .LVU947
 4205 000a 0F4D     		ldr	r5, .L302
 4206 000c 2246     		mov	r2, r4
 4207 000e 0F49     		ldr	r1, .L302+4
 4208 0010 2846     		mov	r0, r5
 4209 0012 FFF7FEFF 		bl	sprintf
 4210              	.LVL338:
 884:Core/Src/esp32.c ****         if (Wifi_SendString((char *)Wifi.TxBuffer) == false)
 4211              		.loc 1 884 9 view .LVU948
 4212              		.loc 1 884 13 is_stmt 0 view .LVU949
 4213 0016 2846     		mov	r0, r5
 4214 0018 FFF7FEFF 		bl	Wifi_SendString
 4215              	.LVL339:
 4216              		.loc 1 884 12 view .LVU950
 4217 001c 08B9     		cbnz	r0, .L301
 4218              	.L299:
 4219              	.LVL340:
 885:Core/Src/esp32.c ****             break;
 886:Core/Src/esp32.c ****         if (Wifi_WaitForString(_WIFI_WAIT_TIME_LOW, &result, 2, "OK", "ERROR") == false)
 887:Core/Src/esp32.c ****             break;       // The timeout was completed and the string was not there
 888:Core/Src/esp32.c ****         if (result == 2) // It was find the "ERROR" String in the receiving information
 889:Core/Src/esp32.c ****             break;
 890:Core/Src/esp32.c ****         returnVal = true;
ARM GAS  /var/folders/9y/n02fl3g16gnf7ppy14xghdy80000gn/T//ccoB4Sfq.s 			page 100


 891:Core/Src/esp32.c ****     } while (0);
 4220              		.loc 1 891 13 is_stmt 1 view .LVU951
 892:Core/Src/esp32.c ****     return returnVal;
 4221              		.loc 1 892 5 view .LVU952
 893:Core/Src/esp32.c **** }
 4222              		.loc 1 893 1 is_stmt 0 view .LVU953
 4223 001e 05B0     		add	sp, sp, #20
 4224              		.cfi_remember_state
 4225              		.cfi_def_cfa_offset 12
 4226              		@ sp needed
 4227 0020 30BD     		pop	{r4, r5, pc}
 4228              	.LVL341:
 4229              	.L301:
 4230              		.cfi_restore_state
 886:Core/Src/esp32.c ****             break;       // The timeout was completed and the string was not there
 4231              		.loc 1 886 9 is_stmt 1 view .LVU954
 886:Core/Src/esp32.c ****             break;       // The timeout was completed and the string was not there
 4232              		.loc 1 886 13 is_stmt 0 view .LVU955
 4233 0022 0B4B     		ldr	r3, .L302+8
 4234 0024 0093     		str	r3, [sp]
 4235 0026 0B4B     		ldr	r3, .L302+12
 4236 0028 0222     		movs	r2, #2
 4237 002a 0DF10F01 		add	r1, sp, #15
 4238 002e 4FF47A70 		mov	r0, #1000
 4239 0032 FFF7FEFF 		bl	Wifi_WaitForString
 4240              	.LVL342:
 886:Core/Src/esp32.c ****             break;       // The timeout was completed and the string was not there
 4241              		.loc 1 886 12 view .LVU956
 4242 0036 0028     		cmp	r0, #0
 4243 0038 F1D0     		beq	.L299
 888:Core/Src/esp32.c ****             break;
 4244              		.loc 1 888 9 is_stmt 1 view .LVU957
 888:Core/Src/esp32.c ****             break;
 4245              		.loc 1 888 20 is_stmt 0 view .LVU958
 4246 003a 9DF80F30 		ldrb	r3, [sp, #15]	@ zero_extendqisi2
 888:Core/Src/esp32.c ****             break;
 4247              		.loc 1 888 12 view .LVU959
 4248 003e 022B     		cmp	r3, #2
 4249 0040 EDD1     		bne	.L299
 879:Core/Src/esp32.c ****     do
 4250              		.loc 1 879 10 view .LVU960
 4251 0042 0020     		movs	r0, #0
 4252 0044 EBE7     		b	.L299
 4253              	.L303:
 4254 0046 00BF     		.align	2
 4255              	.L302:
 4256 0048 01020000 		.word	.LANCHOR0+513
 4257 004c 00000000 		.word	.LC47
 4258 0050 0C000000 		.word	.LC2
 4259 0054 08000000 		.word	.LC1
 4260              		.cfi_endproc
 4261              	.LFE1192:
 4263              		.section	.rodata.Wifi_TcpIp_SendDataUdp.str1.4,"aMS",%progbits,1
 4264              		.align	2
 4265              	.LC48:
 4266 0000 41542B43 		.ascii	"AT+CIPSEND=%d\015\012\000"
 4266      49505345 
ARM GAS  /var/folders/9y/n02fl3g16gnf7ppy14xghdy80000gn/T//ccoB4Sfq.s 			page 101


 4266      4E443D25 
 4266      640D0A00 
 4267              		.align	2
 4268              	.LC49:
 4269 0010 41542B43 		.ascii	"AT+CIPSEND=%d,%d\015\012\000"
 4269      49505345 
 4269      4E443D25 
 4269      642C2564 
 4269      0D0A00
 4270 0023 00       		.align	2
 4271              	.LC50:
 4272 0024 3E00     		.ascii	">\000"
 4273              		.section	.text.Wifi_TcpIp_SendDataUdp,"ax",%progbits
 4274              		.align	1
 4275              		.global	Wifi_TcpIp_SendDataUdp
 4276              		.syntax unified
 4277              		.thumb
 4278              		.thumb_func
 4279              		.fpu fpv4-sp-d16
 4281              	Wifi_TcpIp_SendDataUdp:
 4282              	.LVL343:
 4283              	.LFB1193:
 894:Core/Src/esp32.c **** // ################################################################################################
 895:Core/Src/esp32.c **** bool Wifi_TcpIp_SendDataUdp(uint8_t LinkId, uint16_t dataLen, uint8_t *data)
 896:Core/Src/esp32.c **** {
 4284              		.loc 1 896 1 is_stmt 1 view -0
 4285              		.cfi_startproc
 4286              		@ args = 0, pretend = 0, frame = 8
 4287              		@ frame_needed = 0, uses_anonymous_args = 0
 4288              		.loc 1 896 1 is_stmt 0 view .LVU962
 4289 0000 70B5     		push	{r4, r5, r6, lr}
 4290              		.cfi_def_cfa_offset 16
 4291              		.cfi_offset 4, -16
 4292              		.cfi_offset 5, -12
 4293              		.cfi_offset 6, -8
 4294              		.cfi_offset 14, -4
 4295 0002 84B0     		sub	sp, sp, #16
 4296              		.cfi_def_cfa_offset 32
 4297 0004 0546     		mov	r5, r0
 4298 0006 0C46     		mov	r4, r1
 4299 0008 1646     		mov	r6, r2
 897:Core/Src/esp32.c ****     uint8_t result;
 4300              		.loc 1 897 5 is_stmt 1 view .LVU963
 898:Core/Src/esp32.c ****     bool returnVal = false;
 4301              		.loc 1 898 5 view .LVU964
 4302              	.LVL344:
 899:Core/Src/esp32.c ****     do
 4303              		.loc 1 899 5 view .LVU965
 900:Core/Src/esp32.c ****     {
 901:Core/Src/esp32.c ****         Wifi_RxClear();
 4304              		.loc 1 901 9 view .LVU966
 4305 000a FFF7FEFF 		bl	Wifi_RxClear
 4306              	.LVL345:
 902:Core/Src/esp32.c ****         if (Wifi.TcpIpMultiConnection == false)
 4307              		.loc 1 902 9 view .LVU967
 4308              		.loc 1 902 17 is_stmt 0 view .LVU968
 4309 000e 204B     		ldr	r3, .L312
ARM GAS  /var/folders/9y/n02fl3g16gnf7ppy14xghdy80000gn/T//ccoB4Sfq.s 			page 102


 4310 0010 93F81837 		ldrb	r3, [r3, #1816]	@ zero_extendqisi2
 4311              		.loc 1 902 12 view .LVU969
 4312 0014 53B9     		cbnz	r3, .L305
 903:Core/Src/esp32.c ****             sprintf((char *)Wifi.TxBuffer, "AT+CIPSEND=%d\r\n", dataLen);
 4313              		.loc 1 903 13 is_stmt 1 view .LVU970
 4314 0016 2246     		mov	r2, r4
 4315 0018 1E49     		ldr	r1, .L312+4
 4316 001a 1F48     		ldr	r0, .L312+8
 4317 001c FFF7FEFF 		bl	sprintf
 4318              	.LVL346:
 4319              	.L306:
 904:Core/Src/esp32.c ****         else
 905:Core/Src/esp32.c ****             sprintf((char *)Wifi.TxBuffer, "AT+CIPSEND=%d,%d\r\n", LinkId, dataLen);
 906:Core/Src/esp32.c ****         if (Wifi_SendString((char *)Wifi.TxBuffer) == false)
 4320              		.loc 1 906 9 view .LVU971
 4321              		.loc 1 906 13 is_stmt 0 view .LVU972
 4322 0020 1D48     		ldr	r0, .L312+8
 4323 0022 FFF7FEFF 		bl	Wifi_SendString
 4324              	.LVL347:
 4325              		.loc 1 906 12 view .LVU973
 4326 0026 40B9     		cbnz	r0, .L310
 4327              	.L307:
 4328              	.LVL348:
 907:Core/Src/esp32.c ****             break;
 908:Core/Src/esp32.c ****         if (Wifi_WaitForString(_WIFI_WAIT_TIME_LOW, &result, 2, ">", "ERROR") == false)
 909:Core/Src/esp32.c ****             break;       // The timeout was completed and the string was not there
 910:Core/Src/esp32.c ****         if (result == 2) // It was find the "ERROR" String in the receiving information
 911:Core/Src/esp32.c ****             break;
 912:Core/Src/esp32.c ****         Wifi_RxClear();
 913:Core/Src/esp32.c ****         // Send in this time the information through the connection
 914:Core/Src/esp32.c ****         Wifi_SendRaw(data, dataLen);
 915:Core/Src/esp32.c ****         if (Wifi_WaitForString(_WIFI_WAIT_TIME_LOW, &result, 2, "OK", "ERROR") == false)
 916:Core/Src/esp32.c ****             break;       // The timeout was completed and the string was not there
 917:Core/Src/esp32.c ****         if (result == 2) // It was find the "ERROR" String in the receiving information
 918:Core/Src/esp32.c ****             break;
 919:Core/Src/esp32.c ****         returnVal = true;
 920:Core/Src/esp32.c ****     } while (0);
 4329              		.loc 1 920 13 is_stmt 1 view .LVU974
 921:Core/Src/esp32.c ****     return returnVal;
 4330              		.loc 1 921 5 view .LVU975
 922:Core/Src/esp32.c **** }
 4331              		.loc 1 922 1 is_stmt 0 view .LVU976
 4332 0028 04B0     		add	sp, sp, #16
 4333              		.cfi_remember_state
 4334              		.cfi_def_cfa_offset 16
 4335              		@ sp needed
 4336 002a 70BD     		pop	{r4, r5, r6, pc}
 4337              	.LVL349:
 4338              	.L305:
 4339              		.cfi_restore_state
 905:Core/Src/esp32.c ****         if (Wifi_SendString((char *)Wifi.TxBuffer) == false)
 4340              		.loc 1 905 13 is_stmt 1 view .LVU977
 4341 002c 2346     		mov	r3, r4
 4342 002e 2A46     		mov	r2, r5
 4343 0030 1A49     		ldr	r1, .L312+12
 4344 0032 1948     		ldr	r0, .L312+8
 4345 0034 FFF7FEFF 		bl	sprintf
ARM GAS  /var/folders/9y/n02fl3g16gnf7ppy14xghdy80000gn/T//ccoB4Sfq.s 			page 103


 4346              	.LVL350:
 4347 0038 F2E7     		b	.L306
 4348              	.L310:
 908:Core/Src/esp32.c ****             break;       // The timeout was completed and the string was not there
 4349              		.loc 1 908 9 view .LVU978
 908:Core/Src/esp32.c ****             break;       // The timeout was completed and the string was not there
 4350              		.loc 1 908 13 is_stmt 0 view .LVU979
 4351 003a 194B     		ldr	r3, .L312+16
 4352 003c 0093     		str	r3, [sp]
 4353 003e 194B     		ldr	r3, .L312+20
 4354 0040 0222     		movs	r2, #2
 4355 0042 0DF10F01 		add	r1, sp, #15
 4356 0046 4FF47A70 		mov	r0, #1000
 4357 004a FFF7FEFF 		bl	Wifi_WaitForString
 4358              	.LVL351:
 908:Core/Src/esp32.c ****             break;       // The timeout was completed and the string was not there
 4359              		.loc 1 908 12 view .LVU980
 4360 004e 0028     		cmp	r0, #0
 4361 0050 EAD0     		beq	.L307
 910:Core/Src/esp32.c ****             break;
 4362              		.loc 1 910 9 is_stmt 1 view .LVU981
 910:Core/Src/esp32.c ****             break;
 4363              		.loc 1 910 20 is_stmt 0 view .LVU982
 4364 0052 9DF80F30 		ldrb	r3, [sp, #15]	@ zero_extendqisi2
 910:Core/Src/esp32.c ****             break;
 4365              		.loc 1 910 12 view .LVU983
 4366 0056 022B     		cmp	r3, #2
 4367 0058 01D1     		bne	.L311
 898:Core/Src/esp32.c ****     do
 4368              		.loc 1 898 10 view .LVU984
 4369 005a 0020     		movs	r0, #0
 4370 005c E4E7     		b	.L307
 4371              	.L311:
 912:Core/Src/esp32.c ****         // Send in this time the information through the connection
 4372              		.loc 1 912 9 is_stmt 1 view .LVU985
 4373 005e FFF7FEFF 		bl	Wifi_RxClear
 4374              	.LVL352:
 914:Core/Src/esp32.c ****         if (Wifi_WaitForString(_WIFI_WAIT_TIME_LOW, &result, 2, "OK", "ERROR") == false)
 4375              		.loc 1 914 9 view .LVU986
 4376 0062 2146     		mov	r1, r4
 4377 0064 3046     		mov	r0, r6
 4378 0066 FFF7FEFF 		bl	Wifi_SendRaw
 4379              	.LVL353:
 915:Core/Src/esp32.c ****             break;       // The timeout was completed and the string was not there
 4380              		.loc 1 915 9 view .LVU987
 915:Core/Src/esp32.c ****             break;       // The timeout was completed and the string was not there
 4381              		.loc 1 915 13 is_stmt 0 view .LVU988
 4382 006a 0D4B     		ldr	r3, .L312+16
 4383 006c 0093     		str	r3, [sp]
 4384 006e 0E4B     		ldr	r3, .L312+24
 4385 0070 0222     		movs	r2, #2
 4386 0072 0DF10F01 		add	r1, sp, #15
 4387 0076 4FF47A70 		mov	r0, #1000
 4388 007a FFF7FEFF 		bl	Wifi_WaitForString
 4389              	.LVL354:
 915:Core/Src/esp32.c ****             break;       // The timeout was completed and the string was not there
 4390              		.loc 1 915 12 view .LVU989
ARM GAS  /var/folders/9y/n02fl3g16gnf7ppy14xghdy80000gn/T//ccoB4Sfq.s 			page 104


 4391 007e 0028     		cmp	r0, #0
 4392 0080 D2D0     		beq	.L307
 917:Core/Src/esp32.c ****             break;
 4393              		.loc 1 917 9 is_stmt 1 view .LVU990
 917:Core/Src/esp32.c ****             break;
 4394              		.loc 1 917 20 is_stmt 0 view .LVU991
 4395 0082 9DF80F30 		ldrb	r3, [sp, #15]	@ zero_extendqisi2
 917:Core/Src/esp32.c ****             break;
 4396              		.loc 1 917 12 view .LVU992
 4397 0086 022B     		cmp	r3, #2
 4398 0088 CED1     		bne	.L307
 898:Core/Src/esp32.c ****     do
 4399              		.loc 1 898 10 view .LVU993
 4400 008a 0020     		movs	r0, #0
 4401 008c CCE7     		b	.L307
 4402              	.L313:
 4403 008e 00BF     		.align	2
 4404              	.L312:
 4405 0090 00000000 		.word	.LANCHOR0
 4406 0094 00000000 		.word	.LC48
 4407 0098 01020000 		.word	.LANCHOR0+513
 4408 009c 10000000 		.word	.LC49
 4409 00a0 0C000000 		.word	.LC2
 4410 00a4 24000000 		.word	.LC50
 4411 00a8 08000000 		.word	.LC1
 4412              		.cfi_endproc
 4413              	.LFE1193:
 4415              		.section	.rodata.Wifi_TcpIp_SendDataTcp.str1.4,"aMS",%progbits,1
 4416              		.align	2
 4417              	.LC51:
 4418 0000 41542B43 		.ascii	"AT+CIPSENDBUF=%d\015\012\000"
 4418      49505345 
 4418      4E444255 
 4418      463D2564 
 4418      0D0A00
 4419 0013 00       		.align	2
 4420              	.LC52:
 4421 0014 41542B43 		.ascii	"AT+CIPSENDBUF=%d,%d\015\012\000"
 4421      49505345 
 4421      4E444255 
 4421      463D2564 
 4421      2C25640D 
 4422 002a 0000     		.align	2
 4423              	.LC53:
 4424 002c 62757379 		.ascii	"busy\000"
 4424      00
 4425              		.section	.text.Wifi_TcpIp_SendDataTcp,"ax",%progbits
 4426              		.align	1
 4427              		.global	Wifi_TcpIp_SendDataTcp
 4428              		.syntax unified
 4429              		.thumb
 4430              		.thumb_func
 4431              		.fpu fpv4-sp-d16
 4433              	Wifi_TcpIp_SendDataTcp:
 4434              	.LVL355:
 4435              	.LFB1194:
 923:Core/Src/esp32.c **** // ################################################################################################
ARM GAS  /var/folders/9y/n02fl3g16gnf7ppy14xghdy80000gn/T//ccoB4Sfq.s 			page 105


 924:Core/Src/esp32.c **** bool Wifi_TcpIp_SendDataTcp(uint8_t LinkId, uint16_t dataLen, uint8_t *data)
 925:Core/Src/esp32.c **** {
 4436              		.loc 1 925 1 is_stmt 1 view -0
 4437              		.cfi_startproc
 4438              		@ args = 0, pretend = 0, frame = 8
 4439              		@ frame_needed = 0, uses_anonymous_args = 0
 4440              		.loc 1 925 1 is_stmt 0 view .LVU995
 4441 0000 70B5     		push	{r4, r5, r6, lr}
 4442              		.cfi_def_cfa_offset 16
 4443              		.cfi_offset 4, -16
 4444              		.cfi_offset 5, -12
 4445              		.cfi_offset 6, -8
 4446              		.cfi_offset 14, -4
 4447 0002 84B0     		sub	sp, sp, #16
 4448              		.cfi_def_cfa_offset 32
 4449 0004 0546     		mov	r5, r0
 4450 0006 0C46     		mov	r4, r1
 4451 0008 1646     		mov	r6, r2
 926:Core/Src/esp32.c ****     uint8_t result;
 4452              		.loc 1 926 5 is_stmt 1 view .LVU996
 927:Core/Src/esp32.c ****     bool returnVal = false;
 4453              		.loc 1 927 5 view .LVU997
 4454              	.LVL356:
 928:Core/Src/esp32.c ****     do
 4455              		.loc 1 928 5 view .LVU998
 929:Core/Src/esp32.c ****     {
 930:Core/Src/esp32.c ****         Wifi_RxClear();
 4456              		.loc 1 930 9 view .LVU999
 4457 000a FFF7FEFF 		bl	Wifi_RxClear
 4458              	.LVL357:
 931:Core/Src/esp32.c ****         if (Wifi.TcpIpMultiConnection == false)
 4459              		.loc 1 931 9 view .LVU1000
 4460              		.loc 1 931 17 is_stmt 0 view .LVU1001
 4461 000e 234B     		ldr	r3, .L322
 4462 0010 93F81837 		ldrb	r3, [r3, #1816]	@ zero_extendqisi2
 4463              		.loc 1 931 12 view .LVU1002
 4464 0014 53B9     		cbnz	r3, .L315
 932:Core/Src/esp32.c ****             sprintf((char *)Wifi.TxBuffer, "AT+CIPSENDBUF=%d\r\n", dataLen);
 4465              		.loc 1 932 13 is_stmt 1 view .LVU1003
 4466 0016 2246     		mov	r2, r4
 4467 0018 2149     		ldr	r1, .L322+4
 4468 001a 2248     		ldr	r0, .L322+8
 4469 001c FFF7FEFF 		bl	sprintf
 4470              	.LVL358:
 4471              	.L316:
 933:Core/Src/esp32.c ****         else
 934:Core/Src/esp32.c ****             sprintf((char *)Wifi.TxBuffer, "AT+CIPSENDBUF=%d,%d\r\n", LinkId, dataLen);
 935:Core/Src/esp32.c ****         if (Wifi_SendString((char *)Wifi.TxBuffer) == false)
 4472              		.loc 1 935 9 view .LVU1004
 4473              		.loc 1 935 13 is_stmt 0 view .LVU1005
 4474 0020 2048     		ldr	r0, .L322+8
 4475 0022 FFF7FEFF 		bl	Wifi_SendString
 4476              	.LVL359:
 4477              		.loc 1 935 12 view .LVU1006
 4478 0026 40B9     		cbnz	r0, .L320
 4479              	.L317:
 4480              	.LVL360:
ARM GAS  /var/folders/9y/n02fl3g16gnf7ppy14xghdy80000gn/T//ccoB4Sfq.s 			page 106


 936:Core/Src/esp32.c ****             break;
 937:Core/Src/esp32.c ****         if (Wifi_WaitForString(_WIFI_WAIT_TIME_LOW, &result, 2, "OK", "ERROR") == false)
 938:Core/Src/esp32.c ****             break;
 939:Core/Src/esp32.c ****         if (Wifi_WaitForString(_WIFI_WAIT_TIME_LOW, &result, 3, ">", "ERROR", "busy") == false)
 940:Core/Src/esp32.c ****             break;
 941:Core/Src/esp32.c ****         if (result > 1)
 942:Core/Src/esp32.c ****             break;
 943:Core/Src/esp32.c ****         Wifi_RxClear();
 944:Core/Src/esp32.c ****         Wifi_SendRaw(data, dataLen);
 945:Core/Src/esp32.c ****         if (Wifi_WaitForString(_WIFI_WAIT_TIME_LOW, &result, 2, "OK", "ERROR") == false)
 946:Core/Src/esp32.c ****             break;
 947:Core/Src/esp32.c ****         returnVal = true;
 948:Core/Src/esp32.c ****     } while (0);
 4481              		.loc 1 948 13 is_stmt 1 view .LVU1007
 949:Core/Src/esp32.c ****     return returnVal;
 4482              		.loc 1 949 5 view .LVU1008
 950:Core/Src/esp32.c **** }
 4483              		.loc 1 950 1 is_stmt 0 view .LVU1009
 4484 0028 04B0     		add	sp, sp, #16
 4485              		.cfi_remember_state
 4486              		.cfi_def_cfa_offset 16
 4487              		@ sp needed
 4488 002a 70BD     		pop	{r4, r5, r6, pc}
 4489              	.LVL361:
 4490              	.L315:
 4491              		.cfi_restore_state
 934:Core/Src/esp32.c ****         if (Wifi_SendString((char *)Wifi.TxBuffer) == false)
 4492              		.loc 1 934 13 is_stmt 1 view .LVU1010
 4493 002c 2346     		mov	r3, r4
 4494 002e 2A46     		mov	r2, r5
 4495 0030 1D49     		ldr	r1, .L322+12
 4496 0032 1C48     		ldr	r0, .L322+8
 4497 0034 FFF7FEFF 		bl	sprintf
 4498              	.LVL362:
 4499 0038 F2E7     		b	.L316
 4500              	.L320:
 937:Core/Src/esp32.c ****             break;
 4501              		.loc 1 937 9 view .LVU1011
 937:Core/Src/esp32.c ****             break;
 4502              		.loc 1 937 13 is_stmt 0 view .LVU1012
 4503 003a 1C4B     		ldr	r3, .L322+16
 4504 003c 0093     		str	r3, [sp]
 4505 003e 1C4B     		ldr	r3, .L322+20
 4506 0040 0222     		movs	r2, #2
 4507 0042 0DF10F01 		add	r1, sp, #15
 4508 0046 4FF47A70 		mov	r0, #1000
 4509 004a FFF7FEFF 		bl	Wifi_WaitForString
 4510              	.LVL363:
 937:Core/Src/esp32.c ****             break;
 4511              		.loc 1 937 12 view .LVU1013
 4512 004e 0028     		cmp	r0, #0
 4513 0050 EAD0     		beq	.L317
 939:Core/Src/esp32.c ****             break;
 4514              		.loc 1 939 9 is_stmt 1 view .LVU1014
 939:Core/Src/esp32.c ****             break;
 4515              		.loc 1 939 13 is_stmt 0 view .LVU1015
 4516 0052 184B     		ldr	r3, .L322+24
ARM GAS  /var/folders/9y/n02fl3g16gnf7ppy14xghdy80000gn/T//ccoB4Sfq.s 			page 107


 4517 0054 0193     		str	r3, [sp, #4]
 4518 0056 154B     		ldr	r3, .L322+16
 4519 0058 0093     		str	r3, [sp]
 4520 005a 174B     		ldr	r3, .L322+28
 4521 005c 0322     		movs	r2, #3
 4522 005e 0DF10F01 		add	r1, sp, #15
 4523 0062 4FF47A70 		mov	r0, #1000
 4524 0066 FFF7FEFF 		bl	Wifi_WaitForString
 4525              	.LVL364:
 939:Core/Src/esp32.c ****             break;
 4526              		.loc 1 939 12 view .LVU1016
 4527 006a 0028     		cmp	r0, #0
 4528 006c DCD0     		beq	.L317
 941:Core/Src/esp32.c ****             break;
 4529              		.loc 1 941 9 is_stmt 1 view .LVU1017
 941:Core/Src/esp32.c ****             break;
 4530              		.loc 1 941 20 is_stmt 0 view .LVU1018
 4531 006e 9DF80F30 		ldrb	r3, [sp, #15]	@ zero_extendqisi2
 941:Core/Src/esp32.c ****             break;
 4532              		.loc 1 941 12 view .LVU1019
 4533 0072 012B     		cmp	r3, #1
 4534 0074 01D9     		bls	.L321
 927:Core/Src/esp32.c ****     do
 4535              		.loc 1 927 10 view .LVU1020
 4536 0076 0020     		movs	r0, #0
 4537 0078 D6E7     		b	.L317
 4538              	.L321:
 943:Core/Src/esp32.c ****         Wifi_SendRaw(data, dataLen);
 4539              		.loc 1 943 9 is_stmt 1 view .LVU1021
 4540 007a FFF7FEFF 		bl	Wifi_RxClear
 4541              	.LVL365:
 944:Core/Src/esp32.c ****         if (Wifi_WaitForString(_WIFI_WAIT_TIME_LOW, &result, 2, "OK", "ERROR") == false)
 4542              		.loc 1 944 9 view .LVU1022
 4543 007e 2146     		mov	r1, r4
 4544 0080 3046     		mov	r0, r6
 4545 0082 FFF7FEFF 		bl	Wifi_SendRaw
 4546              	.LVL366:
 945:Core/Src/esp32.c ****             break;
 4547              		.loc 1 945 9 view .LVU1023
 945:Core/Src/esp32.c ****             break;
 4548              		.loc 1 945 13 is_stmt 0 view .LVU1024
 4549 0086 094B     		ldr	r3, .L322+16
 4550 0088 0093     		str	r3, [sp]
 4551 008a 094B     		ldr	r3, .L322+20
 4552 008c 0222     		movs	r2, #2
 4553 008e 0DF10F01 		add	r1, sp, #15
 4554 0092 4FF47A70 		mov	r0, #1000
 4555 0096 FFF7FEFF 		bl	Wifi_WaitForString
 4556              	.LVL367:
 4557 009a C5E7     		b	.L317
 4558              	.L323:
 4559              		.align	2
 4560              	.L322:
 4561 009c 00000000 		.word	.LANCHOR0
 4562 00a0 00000000 		.word	.LC51
 4563 00a4 01020000 		.word	.LANCHOR0+513
 4564 00a8 14000000 		.word	.LC52
ARM GAS  /var/folders/9y/n02fl3g16gnf7ppy14xghdy80000gn/T//ccoB4Sfq.s 			page 108


 4565 00ac 0C000000 		.word	.LC2
 4566 00b0 08000000 		.word	.LC1
 4567 00b4 2C000000 		.word	.LC53
 4568 00b8 24000000 		.word	.LC50
 4569              		.cfi_endproc
 4570              	.LFE1194:
 4572              		.section	.rodata.SNTP_SetTimeZone.str1.4,"aMS",%progbits,1
 4573              		.align	2
 4574              	.LC54:
 4575 0000 41542B43 		.ascii	"AT+CIPSNTPCFG=%d,%d,\"%s\",\"%s\",\"%s\"\015\012\000"
 4575      4950534E 
 4575      54504346 
 4575      473D2564 
 4575      2C25642C 
 4576 0025 000000   		.align	2
 4577              	.LC55:
 4578 0028 41542B43 		.ascii	"AT+CIPSNTPCFG=%d,%d,\"%s\",\"%s\"\015\012\000"
 4578      4950534E 
 4578      54504346 
 4578      473D2564 
 4578      2C25642C 
 4579              		.align	2
 4580              	.LC56:
 4581 0048 41542B43 		.ascii	"AT+CIPSNTPCFG=%d,%d,\"%s\"\015\012\000"
 4581      4950534E 
 4581      54504346 
 4581      473D2564 
 4581      2C25642C 
 4582 0063 00       		.align	2
 4583              	.LC57:
 4584 0064 2B54494D 		.ascii	"+TIME_UPDATED\000"
 4584      455F5550 
 4584      44415445 
 4584      4400
 4585              		.section	.text.SNTP_SetTimeZone,"ax",%progbits
 4586              		.align	1
 4587              		.global	SNTP_SetTimeZone
 4588              		.syntax unified
 4589              		.thumb
 4590              		.thumb_func
 4591              		.fpu fpv4-sp-d16
 4593              	SNTP_SetTimeZone:
 4594              	.LVL368:
 4595              	.LFB1196:
 951:Core/Src/esp32.c **** // ################################################################################################
 952:Core/Src/esp32.c **** /* MQTT Commands */
 953:Core/Src/esp32.c **** // ################################################################################################
 954:Core/Src/esp32.c **** bool SNTP_Init(void)
 955:Core/Src/esp32.c **** {
 956:Core/Src/esp32.c ****     SNTP.enable = 1;
 957:Core/Src/esp32.c ****     SNTP.timezone = -6;
 958:Core/Src/esp32.c ****     SNTP.server1 = "pool.ntp.org";
 959:Core/Src/esp32.c **** 
 960:Core/Src/esp32.c ****     SNTP.time_updated = false;
 961:Core/Src/esp32.c ****     SNTP_QueryTime();
 962:Core/Src/esp32.c ****     if (SNTP.time.year < 2023)
 963:Core/Src/esp32.c ****     {
ARM GAS  /var/folders/9y/n02fl3g16gnf7ppy14xghdy80000gn/T//ccoB4Sfq.s 			page 109


 964:Core/Src/esp32.c ****         SNTP_SetTimeZone(1);
 965:Core/Src/esp32.c ****         SNTP_QueryTime();
 966:Core/Src/esp32.c ****     }
 967:Core/Src/esp32.c **** }
 968:Core/Src/esp32.c **** // ################################################################################################
 969:Core/Src/esp32.c **** bool SNTP_SetTimeZone(size_t numServers)
 970:Core/Src/esp32.c **** {
 4596              		.loc 1 970 1 is_stmt 1 view -0
 4597              		.cfi_startproc
 4598              		@ args = 0, pretend = 0, frame = 8
 4599              		@ frame_needed = 0, uses_anonymous_args = 0
 4600              		.loc 1 970 1 is_stmt 0 view .LVU1026
 4601 0000 10B5     		push	{r4, lr}
 4602              		.cfi_def_cfa_offset 8
 4603              		.cfi_offset 4, -8
 4604              		.cfi_offset 14, -4
 4605 0002 86B0     		sub	sp, sp, #24
 4606              		.cfi_def_cfa_offset 32
 4607 0004 0446     		mov	r4, r0
 971:Core/Src/esp32.c ****     uint8_t result;
 4608              		.loc 1 971 5 is_stmt 1 view .LVU1027
 972:Core/Src/esp32.c ****     bool returnVal = false;
 4609              		.loc 1 972 5 view .LVU1028
 4610              	.LVL369:
 973:Core/Src/esp32.c ****     do
 4611              		.loc 1 973 5 view .LVU1029
 974:Core/Src/esp32.c ****     {
 975:Core/Src/esp32.c ****         Wifi_RxClear();
 4612              		.loc 1 975 9 view .LVU1030
 4613 0006 FFF7FEFF 		bl	Wifi_RxClear
 4614              	.LVL370:
 976:Core/Src/esp32.c ****         switch (numServers)
 4615              		.loc 1 976 9 view .LVU1031
 4616 000a 022C     		cmp	r4, #2
 4617 000c 15D0     		beq	.L325
 4618 000e 032C     		cmp	r4, #3
 4619 0010 20D1     		bne	.L326
 977:Core/Src/esp32.c ****         {
 978:Core/Src/esp32.c ****         case 3:
 979:Core/Src/esp32.c ****             sprintf((char *)Wifi.TxBuffer, "AT+CIPSNTPCFG=%d,%d,\"%s\",\"%s\",\"%s\"\r\n", SNTP.ena
 4620              		.loc 1 979 13 view .LVU1032
 4621              		.loc 1 979 96 is_stmt 0 view .LVU1033
 4622 0012 274A     		ldr	r2, .L334
 4623              		.loc 1 979 13 view .LVU1034
 4624 0014 D368     		ldr	r3, [r2, #12]
 4625 0016 0293     		str	r3, [sp, #8]
 4626 0018 9368     		ldr	r3, [r2, #8]
 4627 001a 0193     		str	r3, [sp, #4]
 4628 001c 5368     		ldr	r3, [r2, #4]
 4629 001e 0093     		str	r3, [sp]
 4630 0020 92F90230 		ldrsb	r3, [r2, #2]
 4631 0024 1278     		ldrb	r2, [r2]	@ zero_extendqisi2
 4632 0026 2349     		ldr	r1, .L334+4
 4633 0028 2348     		ldr	r0, .L334+8
 4634 002a FFF7FEFF 		bl	sprintf
 4635              	.LVL371:
 980:Core/Src/esp32.c ****             break;
ARM GAS  /var/folders/9y/n02fl3g16gnf7ppy14xghdy80000gn/T//ccoB4Sfq.s 			page 110


 4636              		.loc 1 980 13 is_stmt 1 view .LVU1035
 4637              	.L327:
 981:Core/Src/esp32.c ****         case 2:
 982:Core/Src/esp32.c ****             sprintf((char *)Wifi.TxBuffer, "AT+CIPSNTPCFG=%d,%d,\"%s\",\"%s\"\r\n", SNTP.enable, SN
 983:Core/Src/esp32.c ****             break;
 984:Core/Src/esp32.c ****         default:
 985:Core/Src/esp32.c ****             sprintf((char *)Wifi.TxBuffer, "AT+CIPSNTPCFG=%d,%d,\"%s\"\r\n", SNTP.enable, SNTP.time
 986:Core/Src/esp32.c ****             break;
 987:Core/Src/esp32.c ****         }
 988:Core/Src/esp32.c ****         if (Wifi_SendString((char *)Wifi.TxBuffer) == false)
 4638              		.loc 1 988 9 view .LVU1036
 4639              		.loc 1 988 13 is_stmt 0 view .LVU1037
 4640 002e 2248     		ldr	r0, .L334+8
 4641 0030 FFF7FEFF 		bl	Wifi_SendString
 4642              	.LVL372:
 4643              		.loc 1 988 12 view .LVU1038
 4644 0034 C8B9     		cbnz	r0, .L332
 4645              	.LVL373:
 4646              	.L328:
 989:Core/Src/esp32.c ****             break;
 990:Core/Src/esp32.c ****         if (Wifi_WaitForString(_WIFI_WAIT_TIME_LOW, &result, 2, "OK", "ERROR") == false)
 991:Core/Src/esp32.c ****             break;       // The timeout was completed and the string was not there
 992:Core/Src/esp32.c ****         if (result == 2) // It was find the "ERROR" String in the receiving information
 993:Core/Src/esp32.c ****             break;
 994:Core/Src/esp32.c **** 
 995:Core/Src/esp32.c ****         if (Wifi_WaitForString(_WIFI_WAIT_TIME_ULTRAHIGH, &result, 1, "+TIME_UPDATED") == false)
 996:Core/Src/esp32.c ****         {
 997:Core/Src/esp32.c ****             SNTP.time_updated = false;
 998:Core/Src/esp32.c ****             break;
 999:Core/Src/esp32.c ****         }
1000:Core/Src/esp32.c ****         else
1001:Core/Src/esp32.c ****             SNTP.time_updated = true;
1002:Core/Src/esp32.c **** 
1003:Core/Src/esp32.c ****         returnVal = true;
1004:Core/Src/esp32.c ****     } while (0);
 4647              		.loc 1 1004 13 is_stmt 1 view .LVU1039
1005:Core/Src/esp32.c ****     return returnVal;
 4648              		.loc 1 1005 5 view .LVU1040
1006:Core/Src/esp32.c **** }
 4649              		.loc 1 1006 1 is_stmt 0 view .LVU1041
 4650 0036 06B0     		add	sp, sp, #24
 4651              		.cfi_remember_state
 4652              		.cfi_def_cfa_offset 8
 4653              		@ sp needed
 4654 0038 10BD     		pop	{r4, pc}
 4655              	.LVL374:
 4656              	.L325:
 4657              		.cfi_restore_state
 982:Core/Src/esp32.c ****             break;
 4658              		.loc 1 982 13 is_stmt 1 view .LVU1042
 982:Core/Src/esp32.c ****             break;
 4659              		.loc 1 982 89 is_stmt 0 view .LVU1043
 4660 003a 1D4A     		ldr	r2, .L334
 982:Core/Src/esp32.c ****             break;
 4661              		.loc 1 982 13 view .LVU1044
 4662 003c 9368     		ldr	r3, [r2, #8]
 4663 003e 0193     		str	r3, [sp, #4]
ARM GAS  /var/folders/9y/n02fl3g16gnf7ppy14xghdy80000gn/T//ccoB4Sfq.s 			page 111


 4664 0040 5368     		ldr	r3, [r2, #4]
 4665 0042 0093     		str	r3, [sp]
 4666 0044 92F90230 		ldrsb	r3, [r2, #2]
 4667 0048 1278     		ldrb	r2, [r2]	@ zero_extendqisi2
 4668 004a 1C49     		ldr	r1, .L334+12
 4669 004c 1A48     		ldr	r0, .L334+8
 4670 004e FFF7FEFF 		bl	sprintf
 4671              	.LVL375:
 983:Core/Src/esp32.c ****         default:
 4672              		.loc 1 983 13 is_stmt 1 view .LVU1045
 4673 0052 ECE7     		b	.L327
 4674              	.L326:
 985:Core/Src/esp32.c ****             break;
 4675              		.loc 1 985 13 view .LVU1046
 985:Core/Src/esp32.c ****             break;
 4676              		.loc 1 985 82 is_stmt 0 view .LVU1047
 4677 0054 164A     		ldr	r2, .L334
 985:Core/Src/esp32.c ****             break;
 4678              		.loc 1 985 13 view .LVU1048
 4679 0056 5368     		ldr	r3, [r2, #4]
 4680 0058 0093     		str	r3, [sp]
 4681 005a 92F90230 		ldrsb	r3, [r2, #2]
 4682 005e 1278     		ldrb	r2, [r2]	@ zero_extendqisi2
 4683 0060 1749     		ldr	r1, .L334+16
 4684 0062 1548     		ldr	r0, .L334+8
 4685 0064 FFF7FEFF 		bl	sprintf
 4686              	.LVL376:
 986:Core/Src/esp32.c ****         }
 4687              		.loc 1 986 13 is_stmt 1 view .LVU1049
 4688 0068 E1E7     		b	.L327
 4689              	.L332:
 990:Core/Src/esp32.c ****             break;       // The timeout was completed and the string was not there
 4690              		.loc 1 990 9 view .LVU1050
 990:Core/Src/esp32.c ****             break;       // The timeout was completed and the string was not there
 4691              		.loc 1 990 13 is_stmt 0 view .LVU1051
 4692 006a 164B     		ldr	r3, .L334+20
 4693 006c 0093     		str	r3, [sp]
 4694 006e 164B     		ldr	r3, .L334+24
 4695 0070 0222     		movs	r2, #2
 4696 0072 0DF11701 		add	r1, sp, #23
 4697 0076 4FF47A70 		mov	r0, #1000
 4698 007a FFF7FEFF 		bl	Wifi_WaitForString
 4699              	.LVL377:
 990:Core/Src/esp32.c ****             break;       // The timeout was completed and the string was not there
 4700              		.loc 1 990 12 view .LVU1052
 4701 007e 0028     		cmp	r0, #0
 4702 0080 D9D0     		beq	.L328
 992:Core/Src/esp32.c ****             break;
 4703              		.loc 1 992 9 is_stmt 1 view .LVU1053
 992:Core/Src/esp32.c ****             break;
 4704              		.loc 1 992 20 is_stmt 0 view .LVU1054
 4705 0082 9DF81730 		ldrb	r3, [sp, #23]	@ zero_extendqisi2
 992:Core/Src/esp32.c ****             break;
 4706              		.loc 1 992 12 view .LVU1055
 4707 0086 022B     		cmp	r3, #2
 4708 0088 01D1     		bne	.L333
 972:Core/Src/esp32.c ****     do
ARM GAS  /var/folders/9y/n02fl3g16gnf7ppy14xghdy80000gn/T//ccoB4Sfq.s 			page 112


 4709              		.loc 1 972 10 view .LVU1056
 4710 008a 0020     		movs	r0, #0
 4711 008c D3E7     		b	.L328
 4712              	.L333:
 995:Core/Src/esp32.c ****         {
 4713              		.loc 1 995 9 is_stmt 1 view .LVU1057
 995:Core/Src/esp32.c ****         {
 4714              		.loc 1 995 13 is_stmt 0 view .LVU1058
 4715 008e 0F4B     		ldr	r3, .L334+28
 4716 0090 0122     		movs	r2, #1
 4717 0092 0DF11701 		add	r1, sp, #23
 4718 0096 0E48     		ldr	r0, .L334+32
 4719 0098 FFF7FEFF 		bl	Wifi_WaitForString
 4720              	.LVL378:
 995:Core/Src/esp32.c ****         {
 4721              		.loc 1 995 12 view .LVU1059
 4722 009c 18B9     		cbnz	r0, .L329
 997:Core/Src/esp32.c ****             break;
 4723              		.loc 1 997 13 is_stmt 1 view .LVU1060
 997:Core/Src/esp32.c ****             break;
 4724              		.loc 1 997 31 is_stmt 0 view .LVU1061
 4725 009e 044B     		ldr	r3, .L334
 4726 00a0 0022     		movs	r2, #0
 4727 00a2 5A70     		strb	r2, [r3, #1]
 998:Core/Src/esp32.c ****         }
 4728              		.loc 1 998 13 is_stmt 1 view .LVU1062
 4729 00a4 C7E7     		b	.L328
 4730              	.L329:
1001:Core/Src/esp32.c **** 
 4731              		.loc 1 1001 13 view .LVU1063
1001:Core/Src/esp32.c **** 
 4732              		.loc 1 1001 31 is_stmt 0 view .LVU1064
 4733 00a6 024B     		ldr	r3, .L334
 4734 00a8 0122     		movs	r2, #1
 4735 00aa 5A70     		strb	r2, [r3, #1]
1003:Core/Src/esp32.c ****     } while (0);
 4736              		.loc 1 1003 9 is_stmt 1 view .LVU1065
 4737              	.LVL379:
1003:Core/Src/esp32.c ****     } while (0);
 4738              		.loc 1 1003 9 is_stmt 0 view .LVU1066
 4739 00ac C3E7     		b	.L328
 4740              	.L335:
 4741 00ae 00BF     		.align	2
 4742              	.L334:
 4743 00b0 00000000 		.word	.LANCHOR1
 4744 00b4 00000000 		.word	.LC54
 4745 00b8 01020000 		.word	.LANCHOR0+513
 4746 00bc 28000000 		.word	.LC55
 4747 00c0 48000000 		.word	.LC56
 4748 00c4 0C000000 		.word	.LC2
 4749 00c8 08000000 		.word	.LC1
 4750 00cc 64000000 		.word	.LC57
 4751 00d0 C0D40100 		.word	120000
 4752              		.cfi_endproc
 4753              	.LFE1196:
 4755              		.section	.rodata.SNTP_QueryTime.str1.4,"aMS",%progbits,1
 4756              		.align	2
ARM GAS  /var/folders/9y/n02fl3g16gnf7ppy14xghdy80000gn/T//ccoB4Sfq.s 			page 113


 4757              	.LC58:
 4758 0000 41542B43 		.ascii	"AT+CIPSNTPTIME?\015\012\000"
 4758      4950534E 
 4758      54505449 
 4758      4D453F0D 
 4758      0A00
 4759 0012 0000     		.align	2
 4760              	.LC59:
 4761 0014 2B434950 		.ascii	"+CIPSNTPTIME:\000"
 4761      534E5450 
 4761      54494D45 
 4761      3A00
 4762 0022 0000     		.align	2
 4763              	.LC60:
 4764 0024 2B434950 		.ascii	"+CIPSNTPTIME:%s %s %u %u:%u:%u %u\000"
 4764      534E5450 
 4764      54494D45 
 4764      3A257320 
 4764      25732025 
 4765              		.section	.text.SNTP_QueryTime,"ax",%progbits
 4766              		.align	1
 4767              		.global	SNTP_QueryTime
 4768              		.syntax unified
 4769              		.thumb
 4770              		.thumb_func
 4771              		.fpu fpv4-sp-d16
 4773              	SNTP_QueryTime:
 4774              	.LFB1197:
1007:Core/Src/esp32.c **** // ################################################################################################
1008:Core/Src/esp32.c **** bool SNTP_QueryTime(void)
1009:Core/Src/esp32.c **** {
 4775              		.loc 1 1009 1 is_stmt 1 view -0
 4776              		.cfi_startproc
 4777              		@ args = 0, pretend = 0, frame = 8
 4778              		@ frame_needed = 0, uses_anonymous_args = 0
 4779 0000 30B5     		push	{r4, r5, lr}
 4780              		.cfi_def_cfa_offset 12
 4781              		.cfi_offset 4, -12
 4782              		.cfi_offset 5, -8
 4783              		.cfi_offset 14, -4
 4784 0002 89B0     		sub	sp, sp, #36
 4785              		.cfi_def_cfa_offset 48
1010:Core/Src/esp32.c ****     uint8_t result;
 4786              		.loc 1 1010 5 view .LVU1068
1011:Core/Src/esp32.c ****     bool returnVal = false;
 4787              		.loc 1 1011 5 view .LVU1069
 4788              	.LVL380:
1012:Core/Src/esp32.c ****     do
 4789              		.loc 1 1012 5 view .LVU1070
 4790              	.LBB15:
1013:Core/Src/esp32.c ****     {
1014:Core/Src/esp32.c ****         Wifi_RxClear();
 4791              		.loc 1 1014 9 view .LVU1071
 4792 0004 FFF7FEFF 		bl	Wifi_RxClear
 4793              	.LVL381:
1015:Core/Src/esp32.c **** 
1016:Core/Src/esp32.c ****         sprintf((char *)Wifi.TxBuffer, "AT+CIPSNTPTIME?\r\n");
ARM GAS  /var/folders/9y/n02fl3g16gnf7ppy14xghdy80000gn/T//ccoB4Sfq.s 			page 114


 4794              		.loc 1 1016 9 view .LVU1072
 4795 0008 224D     		ldr	r5, .L342
 4796 000a 234C     		ldr	r4, .L342+4
 4797 000c 0FCC     		ldmia	r4!, {r0, r1, r2, r3}
 4798 000e C5F80102 		str	r0, [r5, #513]	@ unaligned
 4799 0012 C5F80512 		str	r1, [r5, #517]	@ unaligned
 4800 0016 C5F80922 		str	r2, [r5, #521]	@ unaligned
 4801 001a C5F80D32 		str	r3, [r5, #525]	@ unaligned
 4802 001e 2388     		ldrh	r3, [r4]	@ unaligned
 4803 0020 A5F81132 		strh	r3, [r5, #529]	@ unaligned
1017:Core/Src/esp32.c ****         if (Wifi_SendString((char *)Wifi.TxBuffer) == false)
 4804              		.loc 1 1017 9 view .LVU1073
 4805              		.loc 1 1017 13 is_stmt 0 view .LVU1074
 4806 0024 05F20120 		addw	r0, r5, #513
 4807 0028 FFF7FEFF 		bl	Wifi_SendString
 4808              	.LVL382:
 4809              		.loc 1 1017 12 view .LVU1075
 4810 002c 0446     		mov	r4, r0
 4811 002e 10B9     		cbnz	r0, .L340
 4812              	.LVL383:
 4813              	.L337:
 4814              		.loc 1 1017 12 view .LVU1076
 4815              	.LBE15:
1018:Core/Src/esp32.c ****             break;
1019:Core/Src/esp32.c ****         if (Wifi_WaitForString(_WIFI_WAIT_TIME_LOW, &result, 2, "OK", "ERROR") == false)
1020:Core/Src/esp32.c ****             break;       // The timeout was completed and the string was not there
1021:Core/Src/esp32.c ****         if (result == 2) // It was find the "ERROR" String in the receiving information
1022:Core/Src/esp32.c ****             break;
1023:Core/Src/esp32.c **** 
1024:Core/Src/esp32.c ****         char *str = strstr((char *)Wifi.RxBuffer, "+CIPSNTPTIME:");
1025:Core/Src/esp32.c ****         // sscanf(str, "+CIPSNTPTIME:%[^\r]", SNTP.time);
1026:Core/Src/esp32.c ****         sscanf(str, "+CIPSNTPTIME:%s %s %u %u:%u:%u %u", SNTP.time.day_of_week, SNTP.time.month, &S
1027:Core/Src/esp32.c **** 
1028:Core/Src/esp32.c ****         returnVal = true;
1029:Core/Src/esp32.c ****     } while (0);
 4816              		.loc 1 1029 13 is_stmt 1 view .LVU1077
1030:Core/Src/esp32.c **** 
1031:Core/Src/esp32.c ****     return returnVal;
 4817              		.loc 1 1031 5 view .LVU1078
1032:Core/Src/esp32.c **** }
 4818              		.loc 1 1032 1 is_stmt 0 view .LVU1079
 4819 0030 2046     		mov	r0, r4
 4820 0032 09B0     		add	sp, sp, #36
 4821              		.cfi_remember_state
 4822              		.cfi_def_cfa_offset 12
 4823              		@ sp needed
 4824 0034 30BD     		pop	{r4, r5, pc}
 4825              	.LVL384:
 4826              	.L340:
 4827              		.cfi_restore_state
 4828              	.LBB16:
1019:Core/Src/esp32.c ****             break;       // The timeout was completed and the string was not there
 4829              		.loc 1 1019 9 is_stmt 1 view .LVU1080
1019:Core/Src/esp32.c ****             break;       // The timeout was completed and the string was not there
 4830              		.loc 1 1019 13 is_stmt 0 view .LVU1081
 4831 0036 194B     		ldr	r3, .L342+8
 4832 0038 0093     		str	r3, [sp]
ARM GAS  /var/folders/9y/n02fl3g16gnf7ppy14xghdy80000gn/T//ccoB4Sfq.s 			page 115


 4833 003a 194B     		ldr	r3, .L342+12
 4834 003c 0222     		movs	r2, #2
 4835 003e 0DF11F01 		add	r1, sp, #31
 4836 0042 4FF47A70 		mov	r0, #1000
 4837 0046 FFF7FEFF 		bl	Wifi_WaitForString
 4838              	.LVL385:
1019:Core/Src/esp32.c ****             break;       // The timeout was completed and the string was not there
 4839              		.loc 1 1019 12 view .LVU1082
 4840 004a 0446     		mov	r4, r0
 4841 004c 0028     		cmp	r0, #0
 4842 004e EFD0     		beq	.L337
1021:Core/Src/esp32.c ****             break;
 4843              		.loc 1 1021 9 is_stmt 1 view .LVU1083
1021:Core/Src/esp32.c ****             break;
 4844              		.loc 1 1021 20 is_stmt 0 view .LVU1084
 4845 0050 9DF81F30 		ldrb	r3, [sp, #31]	@ zero_extendqisi2
1021:Core/Src/esp32.c ****             break;
 4846              		.loc 1 1021 12 view .LVU1085
 4847 0054 022B     		cmp	r3, #2
 4848 0056 01D1     		bne	.L341
 4849              	.LBE16:
1011:Core/Src/esp32.c ****     do
 4850              		.loc 1 1011 10 view .LVU1086
 4851 0058 0024     		movs	r4, #0
 4852 005a E9E7     		b	.L337
 4853              	.L341:
 4854              	.LBB17:
1024:Core/Src/esp32.c ****         // sscanf(str, "+CIPSNTPTIME:%[^\r]", SNTP.time);
 4855              		.loc 1 1024 9 is_stmt 1 view .LVU1087
1024:Core/Src/esp32.c ****         // sscanf(str, "+CIPSNTPTIME:%[^\r]", SNTP.time);
 4856              		.loc 1 1024 21 is_stmt 0 view .LVU1088
 4857 005c 1149     		ldr	r1, .L342+16
 4858 005e 681C     		adds	r0, r5, #1
 4859 0060 FFF7FEFF 		bl	strstr
 4860              	.LVL386:
1026:Core/Src/esp32.c **** 
 4861              		.loc 1 1026 9 is_stmt 1 view .LVU1089
 4862 0064 104A     		ldr	r2, .L342+20
 4863 0066 02F11803 		add	r3, r2, #24
 4864 006a 0493     		str	r3, [sp, #16]
 4865 006c 02F11C03 		add	r3, r2, #28
 4866 0070 0393     		str	r3, [sp, #12]
 4867 0072 02F11B03 		add	r3, r2, #27
 4868 0076 0293     		str	r3, [sp, #8]
 4869 0078 02F11A03 		add	r3, r2, #26
 4870 007c 0193     		str	r3, [sp, #4]
 4871 007e 02F11603 		add	r3, r2, #22
 4872 0082 0093     		str	r3, [sp]
 4873 0084 02F11303 		add	r3, r2, #19
 4874 0088 1032     		adds	r2, r2, #16
 4875 008a 0849     		ldr	r1, .L342+24
 4876 008c FFF7FEFF 		bl	sscanf
 4877              	.LVL387:
1028:Core/Src/esp32.c ****     } while (0);
 4878              		.loc 1 1028 9 view .LVU1090
1028:Core/Src/esp32.c ****     } while (0);
 4879              		.loc 1 1028 9 is_stmt 0 view .LVU1091
ARM GAS  /var/folders/9y/n02fl3g16gnf7ppy14xghdy80000gn/T//ccoB4Sfq.s 			page 116


 4880 0090 CEE7     		b	.L337
 4881              	.L343:
 4882 0092 00BF     		.align	2
 4883              	.L342:
 4884 0094 00000000 		.word	.LANCHOR0
 4885 0098 00000000 		.word	.LC58
 4886 009c 0C000000 		.word	.LC2
 4887 00a0 08000000 		.word	.LC1
 4888 00a4 14000000 		.word	.LC59
 4889 00a8 00000000 		.word	.LANCHOR1
 4890 00ac 24000000 		.word	.LC60
 4891              	.LBE17:
 4892              		.cfi_endproc
 4893              	.LFE1197:
 4895              		.section	.rodata.SNTP_Init.str1.4,"aMS",%progbits,1
 4896              		.align	2
 4897              	.LC61:
 4898 0000 706F6F6C 		.ascii	"pool.ntp.org\000"
 4898      2E6E7470 
 4898      2E6F7267 
 4898      00
 4899              		.section	.text.SNTP_Init,"ax",%progbits
 4900              		.align	1
 4901              		.global	SNTP_Init
 4902              		.syntax unified
 4903              		.thumb
 4904              		.thumb_func
 4905              		.fpu fpv4-sp-d16
 4907              	SNTP_Init:
 4908              	.LFB1195:
 955:Core/Src/esp32.c ****     SNTP.enable = 1;
 4909              		.loc 1 955 1 is_stmt 1 view -0
 4910              		.cfi_startproc
 4911              		@ args = 0, pretend = 0, frame = 0
 4912              		@ frame_needed = 0, uses_anonymous_args = 0
 4913 0000 10B5     		push	{r4, lr}
 4914              		.cfi_def_cfa_offset 8
 4915              		.cfi_offset 4, -8
 4916              		.cfi_offset 14, -4
 956:Core/Src/esp32.c ****     SNTP.timezone = -6;
 4917              		.loc 1 956 5 view .LVU1093
 956:Core/Src/esp32.c ****     SNTP.timezone = -6;
 4918              		.loc 1 956 17 is_stmt 0 view .LVU1094
 4919 0002 0B4C     		ldr	r4, .L348
 4920 0004 0123     		movs	r3, #1
 4921 0006 2370     		strb	r3, [r4]
 957:Core/Src/esp32.c ****     SNTP.server1 = "pool.ntp.org";
 4922              		.loc 1 957 5 is_stmt 1 view .LVU1095
 957:Core/Src/esp32.c ****     SNTP.server1 = "pool.ntp.org";
 4923              		.loc 1 957 19 is_stmt 0 view .LVU1096
 4924 0008 FA23     		movs	r3, #250
 4925 000a A370     		strb	r3, [r4, #2]
 958:Core/Src/esp32.c **** 
 4926              		.loc 1 958 5 is_stmt 1 view .LVU1097
 958:Core/Src/esp32.c **** 
 4927              		.loc 1 958 18 is_stmt 0 view .LVU1098
 4928 000c 094B     		ldr	r3, .L348+4
ARM GAS  /var/folders/9y/n02fl3g16gnf7ppy14xghdy80000gn/T//ccoB4Sfq.s 			page 117


 4929 000e 6360     		str	r3, [r4, #4]
 960:Core/Src/esp32.c ****     SNTP_QueryTime();
 4930              		.loc 1 960 5 is_stmt 1 view .LVU1099
 960:Core/Src/esp32.c ****     SNTP_QueryTime();
 4931              		.loc 1 960 23 is_stmt 0 view .LVU1100
 4932 0010 0023     		movs	r3, #0
 4933 0012 6370     		strb	r3, [r4, #1]
 961:Core/Src/esp32.c ****     if (SNTP.time.year < 2023)
 4934              		.loc 1 961 5 is_stmt 1 view .LVU1101
 4935 0014 FFF7FEFF 		bl	SNTP_QueryTime
 4936              	.LVL388:
 962:Core/Src/esp32.c ****     {
 4937              		.loc 1 962 5 view .LVU1102
 962:Core/Src/esp32.c ****     {
 4938              		.loc 1 962 18 is_stmt 0 view .LVU1103
 4939 0018 228B     		ldrh	r2, [r4, #24]
 962:Core/Src/esp32.c ****     {
 4940              		.loc 1 962 8 view .LVU1104
 4941 001a 40F2E673 		movw	r3, #2022
 4942 001e 9A42     		cmp	r2, r3
 4943 0020 00D9     		bls	.L347
 4944              	.L345:
 967:Core/Src/esp32.c **** // ################################################################################################
 4945              		.loc 1 967 1 view .LVU1105
 4946 0022 10BD     		pop	{r4, pc}
 4947              	.L347:
 964:Core/Src/esp32.c ****         SNTP_QueryTime();
 4948              		.loc 1 964 9 is_stmt 1 view .LVU1106
 4949 0024 0120     		movs	r0, #1
 4950 0026 FFF7FEFF 		bl	SNTP_SetTimeZone
 4951              	.LVL389:
 965:Core/Src/esp32.c ****     }
 4952              		.loc 1 965 9 view .LVU1107
 4953 002a FFF7FEFF 		bl	SNTP_QueryTime
 4954              	.LVL390:
 4955 002e F8E7     		b	.L345
 4956              	.L349:
 4957              		.align	2
 4958              	.L348:
 4959 0030 00000000 		.word	.LANCHOR1
 4960 0034 00000000 		.word	.LC61
 4961              		.cfi_endproc
 4962              	.LFE1195:
 4964              		.section	.rodata.MQTT_SetUserConfig.str1.4,"aMS",%progbits,1
 4965              		.align	2
 4966              	.LC62:
 4967 0000 41542B4D 		.ascii	"AT+MQTTUSERCFG=%u,%d,\"%s\",\"%s\",\"%s\",0,0,\"%s\""
 4967      51545455 
 4967      53455243 
 4967      46473D25 
 4967      752C2564 
 4968 002c 0D0A00   		.ascii	"\015\012\000"
 4969              		.section	.text.MQTT_SetUserConfig,"ax",%progbits
 4970              		.align	1
 4971              		.global	MQTT_SetUserConfig
 4972              		.syntax unified
 4973              		.thumb
ARM GAS  /var/folders/9y/n02fl3g16gnf7ppy14xghdy80000gn/T//ccoB4Sfq.s 			page 118


 4974              		.thumb_func
 4975              		.fpu fpv4-sp-d16
 4977              	MQTT_SetUserConfig:
 4978              	.LFB1199:
1033:Core/Src/esp32.c **** bool MQTT_Init(void)
1034:Core/Src/esp32.c **** {
1035:Core/Src/esp32.c ****     uint32_t(*unique_id_1) = (uint32_t *)(UID_BASE);      // BASE address
1036:Core/Src/esp32.c ****     uint32_t(*unique_id_2) = (uint32_t *)(UID_BASE + 4);  // BASE address + 0x04 offset
1037:Core/Src/esp32.c ****     uint32_t(*unique_id_3) = (uint32_t *)(UID_BASE + 14); // BASE address + 0x14 0ffset
1038:Core/Src/esp32.c **** 
1039:Core/Src/esp32.c ****     MQTT_GetConnection();
1040:Core/Src/esp32.c ****     if (!MQTT.connected)
1041:Core/Src/esp32.c ****     {
1042:Core/Src/esp32.c ****         MQTT.link_id = 0;
1043:Core/Src/esp32.c ****         MQTT.scheme = MQTTSchemes_TlsBothCert;
1044:Core/Src/esp32.c ****         sprintf(MQTT.client_id, "%p%p%p", unique_id_1, unique_id_2, unique_id_3);
1045:Core/Src/esp32.c ****         strcpy(MQTT.username, "Jpwolfe");
1046:Core/Src/esp32.c ****         strcpy(MQTT.password, "1234567890");
1047:Core/Src/esp32.c ****         strcpy(MQTT.host, "a1k7aswhvntcg-ats.iot.us-east-1.amazonaws.com");
1048:Core/Src/esp32.c ****         MQTT.port = 8883;
1049:Core/Src/esp32.c ****         MQTT.reconnect = 1;
1050:Core/Src/esp32.c ****         strcpy(MQTT.path, "");
1051:Core/Src/esp32.c **** 
1052:Core/Src/esp32.c ****         MQTT_SetUserConfig();
1053:Core/Src/esp32.c ****         MQTT_Connect();
1054:Core/Src/esp32.c ****         MQTT_GetConnection();
1055:Core/Src/esp32.c ****     }
1056:Core/Src/esp32.c **** }
1057:Core/Src/esp32.c **** 
1058:Core/Src/esp32.c **** // ################################################################################################
1059:Core/Src/esp32.c **** bool MQTT_SetUserConfig(void)
1060:Core/Src/esp32.c **** {
 4979              		.loc 1 1060 1 view -0
 4980              		.cfi_startproc
 4981              		@ args = 0, pretend = 0, frame = 8
 4982              		@ frame_needed = 0, uses_anonymous_args = 0
 4983 0000 10B5     		push	{r4, lr}
 4984              		.cfi_def_cfa_offset 8
 4985              		.cfi_offset 4, -8
 4986              		.cfi_offset 14, -4
 4987 0002 86B0     		sub	sp, sp, #24
 4988              		.cfi_def_cfa_offset 32
1061:Core/Src/esp32.c ****     uint8_t result;
 4989              		.loc 1 1061 5 view .LVU1109
1062:Core/Src/esp32.c ****     bool returnVal = false;
 4990              		.loc 1 1062 5 view .LVU1110
 4991              	.LVL391:
1063:Core/Src/esp32.c ****     do
 4992              		.loc 1 1063 5 view .LVU1111
1064:Core/Src/esp32.c ****     {
1065:Core/Src/esp32.c ****         Wifi_RxClear();
 4993              		.loc 1 1065 9 view .LVU1112
 4994 0004 FFF7FEFF 		bl	Wifi_RxClear
 4995              	.LVL392:
1066:Core/Src/esp32.c ****         // memset(Wifi.TxBuffer, '\0', sizeof(Wifi.TxBuffer));
1067:Core/Src/esp32.c ****         sprintf((char *)Wifi.TxBuffer, "AT+MQTTUSERCFG=%u,%d,\"%s\",\"%s\",\"%s\",0,0,\"%s\"\r\n", 
 4996              		.loc 1 1067 9 view .LVU1113
ARM GAS  /var/folders/9y/n02fl3g16gnf7ppy14xghdy80000gn/T//ccoB4Sfq.s 			page 119


 4997              		.loc 1 1067 104 is_stmt 0 view .LVU1114
 4998 0008 154A     		ldr	r2, .L354
 4999              		.loc 1 1067 9 view .LVU1115
 5000 000a 164C     		ldr	r4, .L354+4
 5001 000c 02F50073 		add	r3, r2, #512
 5002 0010 0393     		str	r3, [sp, #12]
 5003 0012 02F5A073 		add	r3, r2, #320
 5004 0016 0293     		str	r3, [sp, #8]
 5005 0018 02F58073 		add	r3, r2, #256
 5006 001c 0193     		str	r3, [sp, #4]
 5007 001e 0092     		str	r2, [sp]
 5008 0020 92F82132 		ldrb	r3, [r2, #545]	@ zero_extendqisi2
 5009 0024 92F82422 		ldrb	r2, [r2, #548]	@ zero_extendqisi2
 5010 0028 0F49     		ldr	r1, .L354+8
 5011 002a 2046     		mov	r0, r4
 5012 002c FFF7FEFF 		bl	sprintf
 5013              	.LVL393:
1068:Core/Src/esp32.c ****         if (Wifi_SendString((char *)Wifi.TxBuffer) == false)
 5014              		.loc 1 1068 9 is_stmt 1 view .LVU1116
 5015              		.loc 1 1068 13 is_stmt 0 view .LVU1117
 5016 0030 2046     		mov	r0, r4
 5017 0032 FFF7FEFF 		bl	Wifi_SendString
 5018              	.LVL394:
 5019              		.loc 1 1068 12 view .LVU1118
 5020 0036 08B9     		cbnz	r0, .L353
 5021              	.L351:
 5022              	.LVL395:
1069:Core/Src/esp32.c ****             break;
1070:Core/Src/esp32.c ****         if (Wifi_WaitForString(_WIFI_WAIT_TIME_LOW, &result, 2, "OK", "ERROR") == false)
1071:Core/Src/esp32.c ****             break;       // The timeout was completed and the string was not there
1072:Core/Src/esp32.c ****         if (result == 2) // It was find the "ERROR" String in the receiving information
1073:Core/Src/esp32.c ****             break;
1074:Core/Src/esp32.c ****         returnVal = true;
1075:Core/Src/esp32.c ****     } while (0);
 5023              		.loc 1 1075 13 is_stmt 1 view .LVU1119
1076:Core/Src/esp32.c ****     return returnVal;
 5024              		.loc 1 1076 5 view .LVU1120
1077:Core/Src/esp32.c **** }
 5025              		.loc 1 1077 1 is_stmt 0 view .LVU1121
 5026 0038 06B0     		add	sp, sp, #24
 5027              		.cfi_remember_state
 5028              		.cfi_def_cfa_offset 8
 5029              		@ sp needed
 5030 003a 10BD     		pop	{r4, pc}
 5031              	.LVL396:
 5032              	.L353:
 5033              		.cfi_restore_state
1070:Core/Src/esp32.c ****             break;       // The timeout was completed and the string was not there
 5034              		.loc 1 1070 9 is_stmt 1 view .LVU1122
1070:Core/Src/esp32.c ****             break;       // The timeout was completed and the string was not there
 5035              		.loc 1 1070 13 is_stmt 0 view .LVU1123
 5036 003c 0B4B     		ldr	r3, .L354+12
 5037 003e 0093     		str	r3, [sp]
 5038 0040 0B4B     		ldr	r3, .L354+16
 5039 0042 0222     		movs	r2, #2
 5040 0044 0DF11701 		add	r1, sp, #23
 5041 0048 4FF47A70 		mov	r0, #1000
ARM GAS  /var/folders/9y/n02fl3g16gnf7ppy14xghdy80000gn/T//ccoB4Sfq.s 			page 120


 5042 004c FFF7FEFF 		bl	Wifi_WaitForString
 5043              	.LVL397:
1070:Core/Src/esp32.c ****             break;       // The timeout was completed and the string was not there
 5044              		.loc 1 1070 12 view .LVU1124
 5045 0050 0028     		cmp	r0, #0
 5046 0052 F1D0     		beq	.L351
1072:Core/Src/esp32.c ****             break;
 5047              		.loc 1 1072 9 is_stmt 1 view .LVU1125
1072:Core/Src/esp32.c ****             break;
 5048              		.loc 1 1072 20 is_stmt 0 view .LVU1126
 5049 0054 9DF81730 		ldrb	r3, [sp, #23]	@ zero_extendqisi2
1072:Core/Src/esp32.c ****             break;
 5050              		.loc 1 1072 12 view .LVU1127
 5051 0058 022B     		cmp	r3, #2
 5052 005a EDD1     		bne	.L351
1062:Core/Src/esp32.c ****     do
 5053              		.loc 1 1062 10 view .LVU1128
 5054 005c 0020     		movs	r0, #0
 5055 005e EBE7     		b	.L351
 5056              	.L355:
 5057              		.align	2
 5058              	.L354:
 5059 0060 00000000 		.word	.LANCHOR2
 5060 0064 01020000 		.word	.LANCHOR0+513
 5061 0068 00000000 		.word	.LC62
 5062 006c 0C000000 		.word	.LC2
 5063 0070 08000000 		.word	.LC1
 5064              		.cfi_endproc
 5065              	.LFE1199:
 5067              		.section	.rodata.MQTT_SetClientID.str1.4,"aMS",%progbits,1
 5068              		.align	2
 5069              	.LC63:
 5070 0000 41542B4D 		.ascii	"AT+MQTTCLIENTID=%u,\"%s\"\015\012\000"
 5070      51545443 
 5070      4C49454E 
 5070      5449443D 
 5070      25752C22 
 5071              		.section	.text.MQTT_SetClientID,"ax",%progbits
 5072              		.align	1
 5073              		.global	MQTT_SetClientID
 5074              		.syntax unified
 5075              		.thumb
 5076              		.thumb_func
 5077              		.fpu fpv4-sp-d16
 5079              	MQTT_SetClientID:
 5080              	.LFB1200:
1078:Core/Src/esp32.c **** // ################################################################################################
1079:Core/Src/esp32.c **** bool MQTT_SetClientID(void)
1080:Core/Src/esp32.c **** {
 5081              		.loc 1 1080 1 is_stmt 1 view -0
 5082              		.cfi_startproc
 5083              		@ args = 0, pretend = 0, frame = 8
 5084              		@ frame_needed = 0, uses_anonymous_args = 0
 5085 0000 10B5     		push	{r4, lr}
 5086              		.cfi_def_cfa_offset 8
 5087              		.cfi_offset 4, -8
 5088              		.cfi_offset 14, -4
ARM GAS  /var/folders/9y/n02fl3g16gnf7ppy14xghdy80000gn/T//ccoB4Sfq.s 			page 121


 5089 0002 84B0     		sub	sp, sp, #16
 5090              		.cfi_def_cfa_offset 24
1081:Core/Src/esp32.c ****     uint8_t result;
 5091              		.loc 1 1081 5 view .LVU1130
1082:Core/Src/esp32.c ****     bool returnVal = false;
 5092              		.loc 1 1082 5 view .LVU1131
 5093              	.LVL398:
1083:Core/Src/esp32.c ****     do
 5094              		.loc 1 1083 5 view .LVU1132
1084:Core/Src/esp32.c ****     {
1085:Core/Src/esp32.c ****         Wifi_RxClear();
 5095              		.loc 1 1085 9 view .LVU1133
 5096 0004 FFF7FEFF 		bl	Wifi_RxClear
 5097              	.LVL399:
1086:Core/Src/esp32.c ****         sprintf((char *)Wifi.TxBuffer, "AT+MQTTCLIENTID=%u,\"%s\"\r\n", MQTT.link_id, MQTT.client_i
 5098              		.loc 1 1086 9 view .LVU1134
 5099              		.loc 1 1086 77 is_stmt 0 view .LVU1135
 5100 0008 0F4B     		ldr	r3, .L360
 5101              		.loc 1 1086 9 view .LVU1136
 5102 000a 104C     		ldr	r4, .L360+4
 5103 000c 93F82422 		ldrb	r2, [r3, #548]	@ zero_extendqisi2
 5104 0010 0F49     		ldr	r1, .L360+8
 5105 0012 2046     		mov	r0, r4
 5106 0014 FFF7FEFF 		bl	sprintf
 5107              	.LVL400:
1087:Core/Src/esp32.c ****         if (Wifi_SendString((char *)Wifi.TxBuffer) == false)
 5108              		.loc 1 1087 9 is_stmt 1 view .LVU1137
 5109              		.loc 1 1087 13 is_stmt 0 view .LVU1138
 5110 0018 2046     		mov	r0, r4
 5111 001a FFF7FEFF 		bl	Wifi_SendString
 5112              	.LVL401:
 5113              		.loc 1 1087 12 view .LVU1139
 5114 001e 08B9     		cbnz	r0, .L359
 5115              	.L357:
 5116              	.LVL402:
1088:Core/Src/esp32.c ****             break;
1089:Core/Src/esp32.c ****         if (Wifi_WaitForString(_WIFI_WAIT_TIME_LOW, &result, 2, "OK", "ERROR") == false)
1090:Core/Src/esp32.c ****             break;       // The timeout was completed and the string was not there
1091:Core/Src/esp32.c ****         if (result == 2) // It was find the "ERROR" String in the receiving information
1092:Core/Src/esp32.c ****             break;
1093:Core/Src/esp32.c ****         returnVal = true;
1094:Core/Src/esp32.c ****     } while (0);
 5117              		.loc 1 1094 13 is_stmt 1 view .LVU1140
1095:Core/Src/esp32.c ****     return returnVal;
 5118              		.loc 1 1095 5 view .LVU1141
1096:Core/Src/esp32.c **** }
 5119              		.loc 1 1096 1 is_stmt 0 view .LVU1142
 5120 0020 04B0     		add	sp, sp, #16
 5121              		.cfi_remember_state
 5122              		.cfi_def_cfa_offset 8
 5123              		@ sp needed
 5124 0022 10BD     		pop	{r4, pc}
 5125              	.LVL403:
 5126              	.L359:
 5127              		.cfi_restore_state
1089:Core/Src/esp32.c ****             break;       // The timeout was completed and the string was not there
 5128              		.loc 1 1089 9 is_stmt 1 view .LVU1143
ARM GAS  /var/folders/9y/n02fl3g16gnf7ppy14xghdy80000gn/T//ccoB4Sfq.s 			page 122


1089:Core/Src/esp32.c ****             break;       // The timeout was completed and the string was not there
 5129              		.loc 1 1089 13 is_stmt 0 view .LVU1144
 5130 0024 0B4B     		ldr	r3, .L360+12
 5131 0026 0093     		str	r3, [sp]
 5132 0028 0B4B     		ldr	r3, .L360+16
 5133 002a 0222     		movs	r2, #2
 5134 002c 0DF10F01 		add	r1, sp, #15
 5135 0030 4FF47A70 		mov	r0, #1000
 5136 0034 FFF7FEFF 		bl	Wifi_WaitForString
 5137              	.LVL404:
1089:Core/Src/esp32.c ****             break;       // The timeout was completed and the string was not there
 5138              		.loc 1 1089 12 view .LVU1145
 5139 0038 0028     		cmp	r0, #0
 5140 003a F1D0     		beq	.L357
1091:Core/Src/esp32.c ****             break;
 5141              		.loc 1 1091 9 is_stmt 1 view .LVU1146
1091:Core/Src/esp32.c ****             break;
 5142              		.loc 1 1091 20 is_stmt 0 view .LVU1147
 5143 003c 9DF80F30 		ldrb	r3, [sp, #15]	@ zero_extendqisi2
1091:Core/Src/esp32.c ****             break;
 5144              		.loc 1 1091 12 view .LVU1148
 5145 0040 022B     		cmp	r3, #2
 5146 0042 EDD1     		bne	.L357
1082:Core/Src/esp32.c ****     do
 5147              		.loc 1 1082 10 view .LVU1149
 5148 0044 0020     		movs	r0, #0
 5149 0046 EBE7     		b	.L357
 5150              	.L361:
 5151              		.align	2
 5152              	.L360:
 5153 0048 00000000 		.word	.LANCHOR2
 5154 004c 01020000 		.word	.LANCHOR0+513
 5155 0050 00000000 		.word	.LC63
 5156 0054 0C000000 		.word	.LC2
 5157 0058 08000000 		.word	.LC1
 5158              		.cfi_endproc
 5159              	.LFE1200:
 5161              		.section	.rodata.MQTT_SetUsername.str1.4,"aMS",%progbits,1
 5162              		.align	2
 5163              	.LC64:
 5164 0000 41542B4D 		.ascii	"AT+MQTTUSERNAME=%u,\"%s\"\015\012\000"
 5164      51545455 
 5164      5345524E 
 5164      414D453D 
 5164      25752C22 
 5165              		.section	.text.MQTT_SetUsername,"ax",%progbits
 5166              		.align	1
 5167              		.global	MQTT_SetUsername
 5168              		.syntax unified
 5169              		.thumb
 5170              		.thumb_func
 5171              		.fpu fpv4-sp-d16
 5173              	MQTT_SetUsername:
 5174              	.LFB1201:
1097:Core/Src/esp32.c **** // ################################################################################################
1098:Core/Src/esp32.c **** bool MQTT_SetUsername(void)
1099:Core/Src/esp32.c **** {
ARM GAS  /var/folders/9y/n02fl3g16gnf7ppy14xghdy80000gn/T//ccoB4Sfq.s 			page 123


 5175              		.loc 1 1099 1 is_stmt 1 view -0
 5176              		.cfi_startproc
 5177              		@ args = 0, pretend = 0, frame = 8
 5178              		@ frame_needed = 0, uses_anonymous_args = 0
 5179 0000 10B5     		push	{r4, lr}
 5180              		.cfi_def_cfa_offset 8
 5181              		.cfi_offset 4, -8
 5182              		.cfi_offset 14, -4
 5183 0002 84B0     		sub	sp, sp, #16
 5184              		.cfi_def_cfa_offset 24
1100:Core/Src/esp32.c ****     uint8_t result;
 5185              		.loc 1 1100 5 view .LVU1151
1101:Core/Src/esp32.c ****     bool returnVal = false;
 5186              		.loc 1 1101 5 view .LVU1152
 5187              	.LVL405:
1102:Core/Src/esp32.c ****     do
 5188              		.loc 1 1102 5 view .LVU1153
1103:Core/Src/esp32.c ****     {
1104:Core/Src/esp32.c ****         Wifi_RxClear();
 5189              		.loc 1 1104 9 view .LVU1154
 5190 0004 FFF7FEFF 		bl	Wifi_RxClear
 5191              	.LVL406:
1105:Core/Src/esp32.c ****         sprintf((char *)Wifi.TxBuffer, "AT+MQTTUSERNAME=%u,\"%s\"\r\n", MQTT.link_id, MQTT.username
 5192              		.loc 1 1105 9 view .LVU1155
 5193              		.loc 1 1105 77 is_stmt 0 view .LVU1156
 5194 0008 104A     		ldr	r2, .L366
 5195              		.loc 1 1105 9 view .LVU1157
 5196 000a 114C     		ldr	r4, .L366+4
 5197 000c 02F58073 		add	r3, r2, #256
 5198 0010 92F82422 		ldrb	r2, [r2, #548]	@ zero_extendqisi2
 5199 0014 0F49     		ldr	r1, .L366+8
 5200 0016 2046     		mov	r0, r4
 5201 0018 FFF7FEFF 		bl	sprintf
 5202              	.LVL407:
1106:Core/Src/esp32.c ****         if (Wifi_SendString((char *)Wifi.TxBuffer) == false)
 5203              		.loc 1 1106 9 is_stmt 1 view .LVU1158
 5204              		.loc 1 1106 13 is_stmt 0 view .LVU1159
 5205 001c 2046     		mov	r0, r4
 5206 001e FFF7FEFF 		bl	Wifi_SendString
 5207              	.LVL408:
 5208              		.loc 1 1106 12 view .LVU1160
 5209 0022 08B9     		cbnz	r0, .L365
 5210              	.L363:
 5211              	.LVL409:
1107:Core/Src/esp32.c ****             break;
1108:Core/Src/esp32.c ****         if (Wifi_WaitForString(_WIFI_WAIT_TIME_LOW, &result, 2, "OK", "ERROR") == false)
1109:Core/Src/esp32.c ****             break;       // The timeout was completed and the string was not there
1110:Core/Src/esp32.c ****         if (result == 2) // It was find the "ERROR" String in the receiving information
1111:Core/Src/esp32.c ****             break;
1112:Core/Src/esp32.c ****         returnVal = true;
1113:Core/Src/esp32.c ****     } while (0);
 5212              		.loc 1 1113 13 is_stmt 1 view .LVU1161
1114:Core/Src/esp32.c ****     return returnVal;
 5213              		.loc 1 1114 5 view .LVU1162
1115:Core/Src/esp32.c **** }
 5214              		.loc 1 1115 1 is_stmt 0 view .LVU1163
 5215 0024 04B0     		add	sp, sp, #16
ARM GAS  /var/folders/9y/n02fl3g16gnf7ppy14xghdy80000gn/T//ccoB4Sfq.s 			page 124


 5216              		.cfi_remember_state
 5217              		.cfi_def_cfa_offset 8
 5218              		@ sp needed
 5219 0026 10BD     		pop	{r4, pc}
 5220              	.LVL410:
 5221              	.L365:
 5222              		.cfi_restore_state
1108:Core/Src/esp32.c ****             break;       // The timeout was completed and the string was not there
 5223              		.loc 1 1108 9 is_stmt 1 view .LVU1164
1108:Core/Src/esp32.c ****             break;       // The timeout was completed and the string was not there
 5224              		.loc 1 1108 13 is_stmt 0 view .LVU1165
 5225 0028 0B4B     		ldr	r3, .L366+12
 5226 002a 0093     		str	r3, [sp]
 5227 002c 0B4B     		ldr	r3, .L366+16
 5228 002e 0222     		movs	r2, #2
 5229 0030 0DF10F01 		add	r1, sp, #15
 5230 0034 4FF47A70 		mov	r0, #1000
 5231 0038 FFF7FEFF 		bl	Wifi_WaitForString
 5232              	.LVL411:
1108:Core/Src/esp32.c ****             break;       // The timeout was completed and the string was not there
 5233              		.loc 1 1108 12 view .LVU1166
 5234 003c 0028     		cmp	r0, #0
 5235 003e F1D0     		beq	.L363
1110:Core/Src/esp32.c ****             break;
 5236              		.loc 1 1110 9 is_stmt 1 view .LVU1167
1110:Core/Src/esp32.c ****             break;
 5237              		.loc 1 1110 20 is_stmt 0 view .LVU1168
 5238 0040 9DF80F30 		ldrb	r3, [sp, #15]	@ zero_extendqisi2
1110:Core/Src/esp32.c ****             break;
 5239              		.loc 1 1110 12 view .LVU1169
 5240 0044 022B     		cmp	r3, #2
 5241 0046 EDD1     		bne	.L363
1101:Core/Src/esp32.c ****     do
 5242              		.loc 1 1101 10 view .LVU1170
 5243 0048 0020     		movs	r0, #0
 5244 004a EBE7     		b	.L363
 5245              	.L367:
 5246              		.align	2
 5247              	.L366:
 5248 004c 00000000 		.word	.LANCHOR2
 5249 0050 01020000 		.word	.LANCHOR0+513
 5250 0054 00000000 		.word	.LC64
 5251 0058 0C000000 		.word	.LC2
 5252 005c 08000000 		.word	.LC1
 5253              		.cfi_endproc
 5254              	.LFE1201:
 5256              		.section	.rodata.MQTT_SetPassword.str1.4,"aMS",%progbits,1
 5257              		.align	2
 5258              	.LC65:
 5259 0000 41542B4D 		.ascii	"AT+MQTTPASSWORD=%u,\"%s\"\015\012\000"
 5259      51545450 
 5259      41535357 
 5259      4F52443D 
 5259      25752C22 
 5260              		.section	.text.MQTT_SetPassword,"ax",%progbits
 5261              		.align	1
 5262              		.global	MQTT_SetPassword
ARM GAS  /var/folders/9y/n02fl3g16gnf7ppy14xghdy80000gn/T//ccoB4Sfq.s 			page 125


 5263              		.syntax unified
 5264              		.thumb
 5265              		.thumb_func
 5266              		.fpu fpv4-sp-d16
 5268              	MQTT_SetPassword:
 5269              	.LFB1202:
1116:Core/Src/esp32.c **** // ################################################################################################
1117:Core/Src/esp32.c **** bool MQTT_SetPassword(void)
1118:Core/Src/esp32.c **** {
 5270              		.loc 1 1118 1 is_stmt 1 view -0
 5271              		.cfi_startproc
 5272              		@ args = 0, pretend = 0, frame = 8
 5273              		@ frame_needed = 0, uses_anonymous_args = 0
 5274 0000 10B5     		push	{r4, lr}
 5275              		.cfi_def_cfa_offset 8
 5276              		.cfi_offset 4, -8
 5277              		.cfi_offset 14, -4
 5278 0002 84B0     		sub	sp, sp, #16
 5279              		.cfi_def_cfa_offset 24
1119:Core/Src/esp32.c ****     uint8_t result;
 5280              		.loc 1 1119 5 view .LVU1172
1120:Core/Src/esp32.c ****     bool returnVal = false;
 5281              		.loc 1 1120 5 view .LVU1173
 5282              	.LVL412:
1121:Core/Src/esp32.c ****     do
 5283              		.loc 1 1121 5 view .LVU1174
1122:Core/Src/esp32.c ****     {
1123:Core/Src/esp32.c ****         Wifi_RxClear();
 5284              		.loc 1 1123 9 view .LVU1175
 5285 0004 FFF7FEFF 		bl	Wifi_RxClear
 5286              	.LVL413:
1124:Core/Src/esp32.c ****         sprintf((char *)Wifi.TxBuffer, "AT+MQTTPASSWORD=%u,\"%s\"\r\n", MQTT.link_id, MQTT.password
 5287              		.loc 1 1124 9 view .LVU1176
 5288              		.loc 1 1124 77 is_stmt 0 view .LVU1177
 5289 0008 104A     		ldr	r2, .L372
 5290              		.loc 1 1124 9 view .LVU1178
 5291 000a 114C     		ldr	r4, .L372+4
 5292 000c 02F5A073 		add	r3, r2, #320
 5293 0010 92F82422 		ldrb	r2, [r2, #548]	@ zero_extendqisi2
 5294 0014 0F49     		ldr	r1, .L372+8
 5295 0016 2046     		mov	r0, r4
 5296 0018 FFF7FEFF 		bl	sprintf
 5297              	.LVL414:
1125:Core/Src/esp32.c ****         if (Wifi_SendString((char *)Wifi.TxBuffer) == false)
 5298              		.loc 1 1125 9 is_stmt 1 view .LVU1179
 5299              		.loc 1 1125 13 is_stmt 0 view .LVU1180
 5300 001c 2046     		mov	r0, r4
 5301 001e FFF7FEFF 		bl	Wifi_SendString
 5302              	.LVL415:
 5303              		.loc 1 1125 12 view .LVU1181
 5304 0022 08B9     		cbnz	r0, .L371
 5305              	.L369:
 5306              	.LVL416:
1126:Core/Src/esp32.c ****             break;
1127:Core/Src/esp32.c ****         if (Wifi_WaitForString(_WIFI_WAIT_TIME_LOW, &result, 2, "OK", "ERROR") == false)
1128:Core/Src/esp32.c ****             break;       // The timeout was completed and the string was not there
1129:Core/Src/esp32.c ****         if (result == 2) // It was find the "ERROR" String in the receiving information
ARM GAS  /var/folders/9y/n02fl3g16gnf7ppy14xghdy80000gn/T//ccoB4Sfq.s 			page 126


1130:Core/Src/esp32.c ****             break;
1131:Core/Src/esp32.c ****         returnVal = true;
1132:Core/Src/esp32.c ****     } while (0);
 5307              		.loc 1 1132 13 is_stmt 1 view .LVU1182
1133:Core/Src/esp32.c ****     return returnVal;
 5308              		.loc 1 1133 5 view .LVU1183
1134:Core/Src/esp32.c **** }
 5309              		.loc 1 1134 1 is_stmt 0 view .LVU1184
 5310 0024 04B0     		add	sp, sp, #16
 5311              		.cfi_remember_state
 5312              		.cfi_def_cfa_offset 8
 5313              		@ sp needed
 5314 0026 10BD     		pop	{r4, pc}
 5315              	.LVL417:
 5316              	.L371:
 5317              		.cfi_restore_state
1127:Core/Src/esp32.c ****             break;       // The timeout was completed and the string was not there
 5318              		.loc 1 1127 9 is_stmt 1 view .LVU1185
1127:Core/Src/esp32.c ****             break;       // The timeout was completed and the string was not there
 5319              		.loc 1 1127 13 is_stmt 0 view .LVU1186
 5320 0028 0B4B     		ldr	r3, .L372+12
 5321 002a 0093     		str	r3, [sp]
 5322 002c 0B4B     		ldr	r3, .L372+16
 5323 002e 0222     		movs	r2, #2
 5324 0030 0DF10F01 		add	r1, sp, #15
 5325 0034 4FF47A70 		mov	r0, #1000
 5326 0038 FFF7FEFF 		bl	Wifi_WaitForString
 5327              	.LVL418:
1127:Core/Src/esp32.c ****             break;       // The timeout was completed and the string was not there
 5328              		.loc 1 1127 12 view .LVU1187
 5329 003c 0028     		cmp	r0, #0
 5330 003e F1D0     		beq	.L369
1129:Core/Src/esp32.c ****             break;
 5331              		.loc 1 1129 9 is_stmt 1 view .LVU1188
1129:Core/Src/esp32.c ****             break;
 5332              		.loc 1 1129 20 is_stmt 0 view .LVU1189
 5333 0040 9DF80F30 		ldrb	r3, [sp, #15]	@ zero_extendqisi2
1129:Core/Src/esp32.c ****             break;
 5334              		.loc 1 1129 12 view .LVU1190
 5335 0044 022B     		cmp	r3, #2
 5336 0046 EDD1     		bne	.L369
1120:Core/Src/esp32.c ****     do
 5337              		.loc 1 1120 10 view .LVU1191
 5338 0048 0020     		movs	r0, #0
 5339 004a EBE7     		b	.L369
 5340              	.L373:
 5341              		.align	2
 5342              	.L372:
 5343 004c 00000000 		.word	.LANCHOR2
 5344 0050 01020000 		.word	.LANCHOR0+513
 5345 0054 00000000 		.word	.LC65
 5346 0058 0C000000 		.word	.LC2
 5347 005c 08000000 		.word	.LC1
 5348              		.cfi_endproc
 5349              	.LFE1202:
 5351              		.section	.text.MQTT_SetConnectionConfig,"ax",%progbits
 5352              		.align	1
ARM GAS  /var/folders/9y/n02fl3g16gnf7ppy14xghdy80000gn/T//ccoB4Sfq.s 			page 127


 5353              		.global	MQTT_SetConnectionConfig
 5354              		.syntax unified
 5355              		.thumb
 5356              		.thumb_func
 5357              		.fpu fpv4-sp-d16
 5359              	MQTT_SetConnectionConfig:
 5360              	.LFB1203:
1135:Core/Src/esp32.c **** // ################################################################################################
1136:Core/Src/esp32.c **** bool MQTT_SetConnectionConfig(void)
1137:Core/Src/esp32.c **** {
 5361              		.loc 1 1137 1 is_stmt 1 view -0
 5362              		.cfi_startproc
 5363              		@ args = 0, pretend = 0, frame = 8
 5364              		@ frame_needed = 0, uses_anonymous_args = 0
 5365 0000 10B5     		push	{r4, lr}
 5366              		.cfi_def_cfa_offset 8
 5367              		.cfi_offset 4, -8
 5368              		.cfi_offset 14, -4
 5369 0002 84B0     		sub	sp, sp, #16
 5370              		.cfi_def_cfa_offset 24
1138:Core/Src/esp32.c ****     uint8_t result;
 5371              		.loc 1 1138 5 view .LVU1193
1139:Core/Src/esp32.c ****     bool returnVal = false;
 5372              		.loc 1 1139 5 view .LVU1194
 5373              	.LVL419:
1140:Core/Src/esp32.c ****     do
 5374              		.loc 1 1140 5 view .LVU1195
1141:Core/Src/esp32.c ****     {
1142:Core/Src/esp32.c ****         Wifi_RxClear();
 5375              		.loc 1 1142 9 view .LVU1196
 5376 0004 FFF7FEFF 		bl	Wifi_RxClear
 5377              	.LVL420:
1143:Core/Src/esp32.c ****         sprintf((char *)Wifi.TxBuffer, "AT+MQTTPASSWORD=%u,\"%s\"\r\n", MQTT.link_id, MQTT.password
 5378              		.loc 1 1143 9 view .LVU1197
 5379              		.loc 1 1143 77 is_stmt 0 view .LVU1198
 5380 0008 104A     		ldr	r2, .L378
 5381              		.loc 1 1143 9 view .LVU1199
 5382 000a 114C     		ldr	r4, .L378+4
 5383 000c 02F5A073 		add	r3, r2, #320
 5384 0010 92F82422 		ldrb	r2, [r2, #548]	@ zero_extendqisi2
 5385 0014 0F49     		ldr	r1, .L378+8
 5386 0016 2046     		mov	r0, r4
 5387 0018 FFF7FEFF 		bl	sprintf
 5388              	.LVL421:
1144:Core/Src/esp32.c ****         if (Wifi_SendString((char *)Wifi.TxBuffer) == false)
 5389              		.loc 1 1144 9 is_stmt 1 view .LVU1200
 5390              		.loc 1 1144 13 is_stmt 0 view .LVU1201
 5391 001c 2046     		mov	r0, r4
 5392 001e FFF7FEFF 		bl	Wifi_SendString
 5393              	.LVL422:
 5394              		.loc 1 1144 12 view .LVU1202
 5395 0022 08B9     		cbnz	r0, .L377
 5396              	.L375:
 5397              	.LVL423:
1145:Core/Src/esp32.c ****             break;
1146:Core/Src/esp32.c ****         if (Wifi_WaitForString(_WIFI_WAIT_TIME_LOW, &result, 2, "OK", "ERROR") == false)
1147:Core/Src/esp32.c ****             break;       // The timeout was completed and the string was not there
ARM GAS  /var/folders/9y/n02fl3g16gnf7ppy14xghdy80000gn/T//ccoB4Sfq.s 			page 128


1148:Core/Src/esp32.c ****         if (result == 2) // It was find the "ERROR" String in the receiving information
1149:Core/Src/esp32.c ****             break;
1150:Core/Src/esp32.c ****         returnVal = true;
1151:Core/Src/esp32.c ****     } while (0);
 5398              		.loc 1 1151 13 is_stmt 1 view .LVU1203
1152:Core/Src/esp32.c ****     return returnVal;
 5399              		.loc 1 1152 5 view .LVU1204
1153:Core/Src/esp32.c **** }
 5400              		.loc 1 1153 1 is_stmt 0 view .LVU1205
 5401 0024 04B0     		add	sp, sp, #16
 5402              		.cfi_remember_state
 5403              		.cfi_def_cfa_offset 8
 5404              		@ sp needed
 5405 0026 10BD     		pop	{r4, pc}
 5406              	.LVL424:
 5407              	.L377:
 5408              		.cfi_restore_state
1146:Core/Src/esp32.c ****             break;       // The timeout was completed and the string was not there
 5409              		.loc 1 1146 9 is_stmt 1 view .LVU1206
1146:Core/Src/esp32.c ****             break;       // The timeout was completed and the string was not there
 5410              		.loc 1 1146 13 is_stmt 0 view .LVU1207
 5411 0028 0B4B     		ldr	r3, .L378+12
 5412 002a 0093     		str	r3, [sp]
 5413 002c 0B4B     		ldr	r3, .L378+16
 5414 002e 0222     		movs	r2, #2
 5415 0030 0DF10F01 		add	r1, sp, #15
 5416 0034 4FF47A70 		mov	r0, #1000
 5417 0038 FFF7FEFF 		bl	Wifi_WaitForString
 5418              	.LVL425:
1146:Core/Src/esp32.c ****             break;       // The timeout was completed and the string was not there
 5419              		.loc 1 1146 12 view .LVU1208
 5420 003c 0028     		cmp	r0, #0
 5421 003e F1D0     		beq	.L375
1148:Core/Src/esp32.c ****             break;
 5422              		.loc 1 1148 9 is_stmt 1 view .LVU1209
1148:Core/Src/esp32.c ****             break;
 5423              		.loc 1 1148 20 is_stmt 0 view .LVU1210
 5424 0040 9DF80F30 		ldrb	r3, [sp, #15]	@ zero_extendqisi2
1148:Core/Src/esp32.c ****             break;
 5425              		.loc 1 1148 12 view .LVU1211
 5426 0044 022B     		cmp	r3, #2
 5427 0046 EDD1     		bne	.L375
1139:Core/Src/esp32.c ****     do
 5428              		.loc 1 1139 10 view .LVU1212
 5429 0048 0020     		movs	r0, #0
 5430 004a EBE7     		b	.L375
 5431              	.L379:
 5432              		.align	2
 5433              	.L378:
 5434 004c 00000000 		.word	.LANCHOR2
 5435 0050 01020000 		.word	.LANCHOR0+513
 5436 0054 00000000 		.word	.LC65
 5437 0058 0C000000 		.word	.LC2
 5438 005c 08000000 		.word	.LC1
 5439              		.cfi_endproc
 5440              	.LFE1203:
 5442              		.section	.rodata.MQTT_Connect.str1.4,"aMS",%progbits,1
ARM GAS  /var/folders/9y/n02fl3g16gnf7ppy14xghdy80000gn/T//ccoB4Sfq.s 			page 129


 5443              		.align	2
 5444              	.LC66:
 5445 0000 41542B4D 		.ascii	"AT+MQTTCONN=%u,\"%s\",%u,%d\015\012\000"
 5445      51545443 
 5445      4F4E4E3D 
 5445      25752C22 
 5445      2573222C 
 5446              		.align	2
 5447              	.LC67:
 5448 001c 2B4D5154 		.ascii	"+MQTTCONNECTED\000"
 5448      54434F4E 
 5448      4E454354 
 5448      454400
 5449              		.section	.text.MQTT_Connect,"ax",%progbits
 5450              		.align	1
 5451              		.global	MQTT_Connect
 5452              		.syntax unified
 5453              		.thumb
 5454              		.thumb_func
 5455              		.fpu fpv4-sp-d16
 5457              	MQTT_Connect:
 5458              	.LFB1204:
1154:Core/Src/esp32.c **** // ################################################################################################
1155:Core/Src/esp32.c **** bool MQTT_Connect(void)
1156:Core/Src/esp32.c **** {
 5459              		.loc 1 1156 1 is_stmt 1 view -0
 5460              		.cfi_startproc
 5461              		@ args = 0, pretend = 0, frame = 8
 5462              		@ frame_needed = 0, uses_anonymous_args = 0
 5463 0000 30B5     		push	{r4, r5, lr}
 5464              		.cfi_def_cfa_offset 12
 5465              		.cfi_offset 4, -12
 5466              		.cfi_offset 5, -8
 5467              		.cfi_offset 14, -4
 5468 0002 85B0     		sub	sp, sp, #20
 5469              		.cfi_def_cfa_offset 32
1157:Core/Src/esp32.c ****     uint8_t result;
 5470              		.loc 1 1157 5 view .LVU1214
1158:Core/Src/esp32.c ****     bool returnVal = false;
 5471              		.loc 1 1158 5 view .LVU1215
 5472              	.LVL426:
1159:Core/Src/esp32.c ****     MQTT.connected = false;
 5473              		.loc 1 1159 5 view .LVU1216
 5474              		.loc 1 1159 20 is_stmt 0 view .LVU1217
 5475 0004 1D4C     		ldr	r4, .L386
 5476 0006 0023     		movs	r3, #0
 5477 0008 84F82632 		strb	r3, [r4, #550]
1160:Core/Src/esp32.c ****     do
 5478              		.loc 1 1160 5 is_stmt 1 view .LVU1218
1161:Core/Src/esp32.c ****     {
1162:Core/Src/esp32.c ****         Wifi_RxClear();
 5479              		.loc 1 1162 9 view .LVU1219
 5480 000c FFF7FEFF 		bl	Wifi_RxClear
 5481              	.LVL427:
1163:Core/Src/esp32.c ****         sprintf((char *)Wifi.TxBuffer, "AT+MQTTCONN=%u,\"%s\",%u,%d\r\n", MQTT.link_id, MQTT.host, 
 5482              		.loc 1 1163 9 view .LVU1220
 5483              		.loc 1 1163 104 is_stmt 0 view .LVU1221
ARM GAS  /var/folders/9y/n02fl3g16gnf7ppy14xghdy80000gn/T//ccoB4Sfq.s 			page 130


 5484 0010 B4F82232 		ldrh	r3, [r4, #546]
 5485              		.loc 1 1163 115 view .LVU1222
 5486 0014 94F82522 		ldrb	r2, [r4, #549]	@ zero_extendqisi2
 5487              		.loc 1 1163 9 view .LVU1223
 5488 0018 194D     		ldr	r5, .L386+4
 5489 001a 0192     		str	r2, [sp, #4]
 5490 001c 0093     		str	r3, [sp]
 5491 001e 04F5C073 		add	r3, r4, #384
 5492 0022 94F82422 		ldrb	r2, [r4, #548]	@ zero_extendqisi2
 5493 0026 1749     		ldr	r1, .L386+8
 5494 0028 2846     		mov	r0, r5
 5495 002a FFF7FEFF 		bl	sprintf
 5496              	.LVL428:
1164:Core/Src/esp32.c ****         if (Wifi_SendString((char *)Wifi.TxBuffer) == false)
 5497              		.loc 1 1164 9 is_stmt 1 view .LVU1224
 5498              		.loc 1 1164 13 is_stmt 0 view .LVU1225
 5499 002e 2846     		mov	r0, r5
 5500 0030 FFF7FEFF 		bl	Wifi_SendString
 5501              	.LVL429:
 5502              		.loc 1 1164 12 view .LVU1226
 5503 0034 08B9     		cbnz	r0, .L384
 5504              	.LVL430:
 5505              	.L381:
1165:Core/Src/esp32.c ****             break;
1166:Core/Src/esp32.c ****         if (Wifi_WaitForString(_WIFI_WAIT_TIME_LOW, &result, 2, "OK", "ERROR") == false)
1167:Core/Src/esp32.c ****             break;       // The timeout was completed and the string was not there
1168:Core/Src/esp32.c ****         if (result == 2) // It was find the "ERROR" String in the receiving information
1169:Core/Src/esp32.c ****             break;
1170:Core/Src/esp32.c ****         /* Wait for connection */
1171:Core/Src/esp32.c ****         if (Wifi_WaitForString(_WIFI_WAIT_TIME_VERYHIGH, &result, 1, "+MQTTCONNECTED") == false)
1172:Core/Src/esp32.c ****             break; // The timeout was completed and the string was not there
1173:Core/Src/esp32.c ****         MQTT.connected = true;
1174:Core/Src/esp32.c ****         returnVal = true;
1175:Core/Src/esp32.c ****     } while (0);
 5506              		.loc 1 1175 13 is_stmt 1 view .LVU1227
1176:Core/Src/esp32.c ****     return returnVal;
 5507              		.loc 1 1176 5 view .LVU1228
1177:Core/Src/esp32.c **** }
 5508              		.loc 1 1177 1 is_stmt 0 view .LVU1229
 5509 0036 05B0     		add	sp, sp, #20
 5510              		.cfi_remember_state
 5511              		.cfi_def_cfa_offset 12
 5512              		@ sp needed
 5513 0038 30BD     		pop	{r4, r5, pc}
 5514              	.LVL431:
 5515              	.L384:
 5516              		.cfi_restore_state
1166:Core/Src/esp32.c ****             break;       // The timeout was completed and the string was not there
 5517              		.loc 1 1166 9 is_stmt 1 view .LVU1230
1166:Core/Src/esp32.c ****             break;       // The timeout was completed and the string was not there
 5518              		.loc 1 1166 13 is_stmt 0 view .LVU1231
 5519 003a 134B     		ldr	r3, .L386+12
 5520 003c 0093     		str	r3, [sp]
 5521 003e 134B     		ldr	r3, .L386+16
 5522 0040 0222     		movs	r2, #2
 5523 0042 0DF10F01 		add	r1, sp, #15
 5524 0046 4FF47A70 		mov	r0, #1000
ARM GAS  /var/folders/9y/n02fl3g16gnf7ppy14xghdy80000gn/T//ccoB4Sfq.s 			page 131


 5525 004a FFF7FEFF 		bl	Wifi_WaitForString
 5526              	.LVL432:
1166:Core/Src/esp32.c ****             break;       // The timeout was completed and the string was not there
 5527              		.loc 1 1166 12 view .LVU1232
 5528 004e 0028     		cmp	r0, #0
 5529 0050 F1D0     		beq	.L381
1168:Core/Src/esp32.c ****             break;
 5530              		.loc 1 1168 9 is_stmt 1 view .LVU1233
1168:Core/Src/esp32.c ****             break;
 5531              		.loc 1 1168 20 is_stmt 0 view .LVU1234
 5532 0052 9DF80F30 		ldrb	r3, [sp, #15]	@ zero_extendqisi2
1168:Core/Src/esp32.c ****             break;
 5533              		.loc 1 1168 12 view .LVU1235
 5534 0056 022B     		cmp	r3, #2
 5535 0058 01D1     		bne	.L385
1158:Core/Src/esp32.c ****     MQTT.connected = false;
 5536              		.loc 1 1158 10 view .LVU1236
 5537 005a 0020     		movs	r0, #0
 5538 005c EBE7     		b	.L381
 5539              	.L385:
1171:Core/Src/esp32.c ****             break; // The timeout was completed and the string was not there
 5540              		.loc 1 1171 9 is_stmt 1 view .LVU1237
1171:Core/Src/esp32.c ****             break; // The timeout was completed and the string was not there
 5541              		.loc 1 1171 13 is_stmt 0 view .LVU1238
 5542 005e 0C4B     		ldr	r3, .L386+20
 5543 0060 0122     		movs	r2, #1
 5544 0062 0DF10F01 		add	r1, sp, #15
 5545 0066 46F2A810 		movw	r0, #25000
 5546 006a FFF7FEFF 		bl	Wifi_WaitForString
 5547              	.LVL433:
1171:Core/Src/esp32.c ****             break; // The timeout was completed and the string was not there
 5548              		.loc 1 1171 12 view .LVU1239
 5549 006e 0028     		cmp	r0, #0
 5550 0070 E1D0     		beq	.L381
1173:Core/Src/esp32.c ****         returnVal = true;
 5551              		.loc 1 1173 9 is_stmt 1 view .LVU1240
1173:Core/Src/esp32.c ****         returnVal = true;
 5552              		.loc 1 1173 24 is_stmt 0 view .LVU1241
 5553 0072 0122     		movs	r2, #1
 5554 0074 84F82622 		strb	r2, [r4, #550]
1174:Core/Src/esp32.c ****     } while (0);
 5555              		.loc 1 1174 9 is_stmt 1 view .LVU1242
 5556              	.LVL434:
1174:Core/Src/esp32.c ****     } while (0);
 5557              		.loc 1 1174 9 is_stmt 0 view .LVU1243
 5558 0078 DDE7     		b	.L381
 5559              	.L387:
 5560 007a 00BF     		.align	2
 5561              	.L386:
 5562 007c 00000000 		.word	.LANCHOR2
 5563 0080 01020000 		.word	.LANCHOR0+513
 5564 0084 00000000 		.word	.LC66
 5565 0088 0C000000 		.word	.LC2
 5566 008c 08000000 		.word	.LC1
 5567 0090 1C000000 		.word	.LC67
 5568              		.cfi_endproc
 5569              	.LFE1204:
ARM GAS  /var/folders/9y/n02fl3g16gnf7ppy14xghdy80000gn/T//ccoB4Sfq.s 			page 132


 5571              		.section	.rodata.MQTT_GetConnection.str1.4,"aMS",%progbits,1
 5572              		.align	2
 5573              	.LC68:
 5574 0000 41542B4D 		.ascii	"AT+MQTTCONN?\015\012\000"
 5574      51545443 
 5574      4F4E4E3F 
 5574      0D0A00
 5575 000f 00       		.align	2
 5576              	.LC69:
 5577 0010 2B4D5154 		.ascii	"+MQTTCONN:\000"
 5577      54434F4E 
 5577      4E3A00
 5578 001b 00       		.align	2
 5579              	.LC70:
 5580 001c 2B4D5154 		.ascii	"+MQTTCONN:0,%d,%d,\"%[^\"]\",\"%u\",\"\",%d\000"
 5580      54434F4E 
 5580      4E3A302C 
 5580      25642C25 
 5580      642C2225 
 5581              		.section	.text.MQTT_GetConnection,"ax",%progbits
 5582              		.align	1
 5583              		.global	MQTT_GetConnection
 5584              		.syntax unified
 5585              		.thumb
 5586              		.thumb_func
 5587              		.fpu fpv4-sp-d16
 5589              	MQTT_GetConnection:
 5590              	.LFB1205:
1178:Core/Src/esp32.c **** // ################################################################################################
1179:Core/Src/esp32.c **** bool MQTT_GetConnection(void)
1180:Core/Src/esp32.c **** {
 5591              		.loc 1 1180 1 is_stmt 1 view -0
 5592              		.cfi_startproc
 5593              		@ args = 0, pretend = 0, frame = 8
 5594              		@ frame_needed = 0, uses_anonymous_args = 0
 5595 0000 10B5     		push	{r4, lr}
 5596              		.cfi_def_cfa_offset 8
 5597              		.cfi_offset 4, -8
 5598              		.cfi_offset 14, -4
 5599 0002 86B0     		sub	sp, sp, #24
 5600              		.cfi_def_cfa_offset 32
1181:Core/Src/esp32.c ****     uint8_t result;
 5601              		.loc 1 1181 5 view .LVU1245
1182:Core/Src/esp32.c ****     bool returnVal = false;
 5602              		.loc 1 1182 5 view .LVU1246
 5603              	.LVL435:
1183:Core/Src/esp32.c ****     do
 5604              		.loc 1 1183 5 view .LVU1247
 5605              	.LBB18:
1184:Core/Src/esp32.c ****     {
1185:Core/Src/esp32.c ****         Wifi_RxClear();
 5606              		.loc 1 1185 9 view .LVU1248
 5607 0004 FFF7FEFF 		bl	Wifi_RxClear
 5608              	.LVL436:
1186:Core/Src/esp32.c ****         sprintf((char *)Wifi.TxBuffer, "AT+MQTTCONN?\r\n");
 5609              		.loc 1 1186 9 view .LVU1249
 5610 0008 294C     		ldr	r4, .L396
ARM GAS  /var/folders/9y/n02fl3g16gnf7ppy14xghdy80000gn/T//ccoB4Sfq.s 			page 133


 5611 000a 04F2012C 		addw	ip, r4, #513
 5612 000e 294B     		ldr	r3, .L396+4
 5613 0010 07CB     		ldmia	r3!, {r0, r1, r2}
 5614 0012 C4F80102 		str	r0, [r4, #513]	@ unaligned
 5615 0016 C4F80512 		str	r1, [r4, #517]	@ unaligned
 5616 001a C4F80922 		str	r2, [r4, #521]	@ unaligned
 5617 001e 1A88     		ldrh	r2, [r3]	@ unaligned
 5618 0020 9B78     		ldrb	r3, [r3, #2]	@ zero_extendqisi2
 5619 0022 A4F80D22 		strh	r2, [r4, #525]	@ unaligned
 5620 0026 84F80F32 		strb	r3, [r4, #527]
1187:Core/Src/esp32.c ****         if (Wifi_SendString((char *)Wifi.TxBuffer) == false)
 5621              		.loc 1 1187 9 view .LVU1250
 5622              		.loc 1 1187 13 is_stmt 0 view .LVU1251
 5623 002a 6046     		mov	r0, ip
 5624 002c FFF7FEFF 		bl	Wifi_SendString
 5625              	.LVL437:
 5626              		.loc 1 1187 12 view .LVU1252
 5627 0030 0446     		mov	r4, r0
 5628 0032 10B9     		cbnz	r0, .L394
 5629              	.L389:
 5630              	.LVL438:
 5631              		.loc 1 1187 12 view .LVU1253
 5632              	.LBE18:
1188:Core/Src/esp32.c ****             break;
1189:Core/Src/esp32.c ****         if (Wifi_WaitForString(_WIFI_WAIT_TIME_LOW, &result, 2, "OK", "ERROR") == false)
1190:Core/Src/esp32.c ****             break;       // The timeout was completed and the string was not there
1191:Core/Src/esp32.c ****         if (result == 2) // It was find the "ERROR" String in the receiving information
1192:Core/Src/esp32.c ****             break;
1193:Core/Src/esp32.c **** 
1194:Core/Src/esp32.c ****         char *str = strstr((char *)Wifi.RxBuffer, "+MQTTCONN:");
1195:Core/Src/esp32.c ****         if (sscanf(str, "+MQTTCONN:0,%d,%d,\"%[^\"]\",\"%u\",\"\",%d", &MQTT.state, &MQTT.scheme, M
1196:Core/Src/esp32.c ****             break;
1197:Core/Src/esp32.c **** 
1198:Core/Src/esp32.c ****         // strcpy(MQTT.host, MQTT.host + 4); // offset by 4 bytes. unknown reason
1199:Core/Src/esp32.c **** 
1200:Core/Src/esp32.c ****         if (MQTT.state >= MQTTStates_Established)
1201:Core/Src/esp32.c ****             MQTT.connected = true;
1202:Core/Src/esp32.c ****         else
1203:Core/Src/esp32.c ****             MQTT.connected = false;
1204:Core/Src/esp32.c ****         returnVal = true;
1205:Core/Src/esp32.c ****     } while (0);
 5633              		.loc 1 1205 13 is_stmt 1 view .LVU1254
1206:Core/Src/esp32.c ****     return returnVal;
 5634              		.loc 1 1206 5 view .LVU1255
1207:Core/Src/esp32.c **** }
 5635              		.loc 1 1207 1 is_stmt 0 view .LVU1256
 5636 0034 2046     		mov	r0, r4
 5637 0036 06B0     		add	sp, sp, #24
 5638              		.cfi_remember_state
 5639              		.cfi_def_cfa_offset 8
 5640              		@ sp needed
 5641 0038 10BD     		pop	{r4, pc}
 5642              	.LVL439:
 5643              	.L394:
 5644              		.cfi_restore_state
 5645              	.LBB19:
1189:Core/Src/esp32.c ****             break;       // The timeout was completed and the string was not there
ARM GAS  /var/folders/9y/n02fl3g16gnf7ppy14xghdy80000gn/T//ccoB4Sfq.s 			page 134


 5646              		.loc 1 1189 9 is_stmt 1 view .LVU1257
1189:Core/Src/esp32.c ****             break;       // The timeout was completed and the string was not there
 5647              		.loc 1 1189 13 is_stmt 0 view .LVU1258
 5648 003a 1F4B     		ldr	r3, .L396+8
 5649 003c 0093     		str	r3, [sp]
 5650 003e 1F4B     		ldr	r3, .L396+12
 5651 0040 0222     		movs	r2, #2
 5652 0042 0DF11701 		add	r1, sp, #23
 5653 0046 4FF47A70 		mov	r0, #1000
 5654 004a FFF7FEFF 		bl	Wifi_WaitForString
 5655              	.LVL440:
1189:Core/Src/esp32.c ****             break;       // The timeout was completed and the string was not there
 5656              		.loc 1 1189 12 view .LVU1259
 5657 004e 0446     		mov	r4, r0
 5658 0050 0028     		cmp	r0, #0
 5659 0052 EFD0     		beq	.L389
1191:Core/Src/esp32.c ****             break;
 5660              		.loc 1 1191 9 is_stmt 1 view .LVU1260
1191:Core/Src/esp32.c ****             break;
 5661              		.loc 1 1191 20 is_stmt 0 view .LVU1261
 5662 0054 9DF81730 		ldrb	r3, [sp, #23]	@ zero_extendqisi2
1191:Core/Src/esp32.c ****             break;
 5663              		.loc 1 1191 12 view .LVU1262
 5664 0058 022B     		cmp	r3, #2
 5665 005a 01D1     		bne	.L395
 5666              	.LBE19:
1182:Core/Src/esp32.c ****     do
 5667              		.loc 1 1182 10 view .LVU1263
 5668 005c 0024     		movs	r4, #0
 5669 005e E9E7     		b	.L389
 5670              	.L395:
 5671              	.LBB20:
1194:Core/Src/esp32.c ****         if (sscanf(str, "+MQTTCONN:0,%d,%d,\"%[^\"]\",\"%u\",\"\",%d", &MQTT.state, &MQTT.scheme, M
 5672              		.loc 1 1194 9 is_stmt 1 view .LVU1264
1194:Core/Src/esp32.c ****         if (sscanf(str, "+MQTTCONN:0,%d,%d,\"%[^\"]\",\"%u\",\"\",%d", &MQTT.state, &MQTT.scheme, M
 5673              		.loc 1 1194 21 is_stmt 0 view .LVU1265
 5674 0060 1749     		ldr	r1, .L396+16
 5675 0062 1848     		ldr	r0, .L396+20
 5676 0064 FFF7FEFF 		bl	strstr
 5677              	.LVL441:
1195:Core/Src/esp32.c ****             break;
 5678              		.loc 1 1195 9 is_stmt 1 view .LVU1266
1195:Core/Src/esp32.c ****             break;
 5679              		.loc 1 1195 13 is_stmt 0 view .LVU1267
 5680 0068 174A     		ldr	r2, .L396+24
 5681 006a 02F22523 		addw	r3, r2, #549
 5682 006e 0293     		str	r3, [sp, #8]
 5683 0070 02F22223 		addw	r3, r2, #546
 5684 0074 0193     		str	r3, [sp, #4]
 5685 0076 02F5C073 		add	r3, r2, #384
 5686 007a 0093     		str	r3, [sp]
 5687 007c 02F22123 		addw	r3, r2, #545
 5688 0080 02F50872 		add	r2, r2, #544
 5689 0084 1149     		ldr	r1, .L396+28
 5690 0086 FFF7FEFF 		bl	sscanf
 5691              	.LVL442:
1195:Core/Src/esp32.c ****             break;
ARM GAS  /var/folders/9y/n02fl3g16gnf7ppy14xghdy80000gn/T//ccoB4Sfq.s 			page 135


 5692              		.loc 1 1195 12 view .LVU1268
 5693 008a 70B1     		cbz	r0, .L392
1200:Core/Src/esp32.c ****             MQTT.connected = true;
 5694              		.loc 1 1200 9 is_stmt 1 view .LVU1269
1200:Core/Src/esp32.c ****             MQTT.connected = true;
 5695              		.loc 1 1200 17 is_stmt 0 view .LVU1270
 5696 008c 0E4B     		ldr	r3, .L396+24
 5697 008e 93F82032 		ldrb	r3, [r3, #544]	@ zero_extendqisi2
1200:Core/Src/esp32.c ****             MQTT.connected = true;
 5698              		.loc 1 1200 12 view .LVU1271
 5699 0092 032B     		cmp	r3, #3
 5700 0094 04D9     		bls	.L390
1201:Core/Src/esp32.c ****         else
 5701              		.loc 1 1201 13 is_stmt 1 view .LVU1272
1201:Core/Src/esp32.c ****         else
 5702              		.loc 1 1201 28 is_stmt 0 view .LVU1273
 5703 0096 0C4B     		ldr	r3, .L396+24
 5704 0098 0122     		movs	r2, #1
 5705 009a 83F82622 		strb	r2, [r3, #550]
 5706 009e C9E7     		b	.L389
 5707              	.L390:
1203:Core/Src/esp32.c ****         returnVal = true;
 5708              		.loc 1 1203 13 is_stmt 1 view .LVU1274
1203:Core/Src/esp32.c ****         returnVal = true;
 5709              		.loc 1 1203 28 is_stmt 0 view .LVU1275
 5710 00a0 094B     		ldr	r3, .L396+24
 5711 00a2 0022     		movs	r2, #0
 5712 00a4 83F82622 		strb	r2, [r3, #550]
 5713 00a8 C4E7     		b	.L389
 5714              	.L392:
 5715              	.LBE20:
1182:Core/Src/esp32.c ****     do
 5716              		.loc 1 1182 10 view .LVU1276
 5717 00aa 0024     		movs	r4, #0
 5718 00ac C2E7     		b	.L389
 5719              	.L397:
 5720 00ae 00BF     		.align	2
 5721              	.L396:
 5722 00b0 00000000 		.word	.LANCHOR0
 5723 00b4 00000000 		.word	.LC68
 5724 00b8 0C000000 		.word	.LC2
 5725 00bc 08000000 		.word	.LC1
 5726 00c0 10000000 		.word	.LC69
 5727 00c4 01000000 		.word	.LANCHOR0+1
 5728 00c8 00000000 		.word	.LANCHOR2
 5729 00cc 1C000000 		.word	.LC70
 5730              		.cfi_endproc
 5731              	.LFE1205:
 5733              		.section	.rodata.MQTT_Init.str1.4,"aMS",%progbits,1
 5734              		.align	2
 5735              	.LC71:
 5736 0000 25702570 		.ascii	"%p%p%p\000"
 5736      257000
 5737 0007 00       		.align	2
 5738              	.LC72:
 5739 0008 4A70776F 		.ascii	"Jpwolfe\000"
 5739      6C666500 
ARM GAS  /var/folders/9y/n02fl3g16gnf7ppy14xghdy80000gn/T//ccoB4Sfq.s 			page 136


 5740              		.align	2
 5741              	.LC73:
 5742 0010 31323334 		.ascii	"1234567890\000"
 5742      35363738 
 5742      393000
 5743 001b 00       		.align	2
 5744              	.LC74:
 5745 001c 61316B37 		.ascii	"a1k7aswhvntcg-ats.iot.us-east-1.amazonaws.com\000"
 5745      61737768 
 5745      766E7463 
 5745      672D6174 
 5745      732E696F 
 5746              		.section	.text.MQTT_Init,"ax",%progbits
 5747              		.align	1
 5748              		.global	MQTT_Init
 5749              		.syntax unified
 5750              		.thumb
 5751              		.thumb_func
 5752              		.fpu fpv4-sp-d16
 5754              	MQTT_Init:
 5755              	.LFB1198:
1034:Core/Src/esp32.c ****     uint32_t(*unique_id_1) = (uint32_t *)(UID_BASE);      // BASE address
 5756              		.loc 1 1034 1 is_stmt 1 view -0
 5757              		.cfi_startproc
 5758              		@ args = 0, pretend = 0, frame = 0
 5759              		@ frame_needed = 0, uses_anonymous_args = 0
 5760 0000 70B5     		push	{r4, r5, r6, lr}
 5761              		.cfi_def_cfa_offset 16
 5762              		.cfi_offset 4, -16
 5763              		.cfi_offset 5, -12
 5764              		.cfi_offset 6, -8
 5765              		.cfi_offset 14, -4
 5766 0002 82B0     		sub	sp, sp, #8
 5767              		.cfi_def_cfa_offset 24
1035:Core/Src/esp32.c ****     uint32_t(*unique_id_2) = (uint32_t *)(UID_BASE + 4);  // BASE address + 0x04 offset
 5768              		.loc 1 1035 5 view .LVU1278
 5769              	.LVL443:
1036:Core/Src/esp32.c ****     uint32_t(*unique_id_3) = (uint32_t *)(UID_BASE + 14); // BASE address + 0x14 0ffset
 5770              		.loc 1 1036 5 view .LVU1279
1037:Core/Src/esp32.c **** 
 5771              		.loc 1 1037 5 view .LVU1280
1039:Core/Src/esp32.c ****     if (!MQTT.connected)
 5772              		.loc 1 1039 5 view .LVU1281
 5773 0004 FFF7FEFF 		bl	MQTT_GetConnection
 5774              	.LVL444:
1040:Core/Src/esp32.c ****     {
 5775              		.loc 1 1040 5 view .LVU1282
1040:Core/Src/esp32.c ****     {
 5776              		.loc 1 1040 14 is_stmt 0 view .LVU1283
 5777 0008 214B     		ldr	r3, .L402
 5778 000a 93F82632 		ldrb	r3, [r3, #550]	@ zero_extendqisi2
1040:Core/Src/esp32.c ****     {
 5779              		.loc 1 1040 8 view .LVU1284
 5780 000e 0BB1     		cbz	r3, .L401
 5781              	.L399:
1056:Core/Src/esp32.c **** 
 5782              		.loc 1 1056 1 view .LVU1285
ARM GAS  /var/folders/9y/n02fl3g16gnf7ppy14xghdy80000gn/T//ccoB4Sfq.s 			page 137


 5783 0010 02B0     		add	sp, sp, #8
 5784              		.cfi_remember_state
 5785              		.cfi_def_cfa_offset 16
 5786              		@ sp needed
 5787 0012 70BD     		pop	{r4, r5, r6, pc}
 5788              	.L401:
 5789              		.cfi_restore_state
1042:Core/Src/esp32.c ****         MQTT.scheme = MQTTSchemes_TlsBothCert;
 5790              		.loc 1 1042 9 is_stmt 1 view .LVU1286
1042:Core/Src/esp32.c ****         MQTT.scheme = MQTTSchemes_TlsBothCert;
 5791              		.loc 1 1042 22 is_stmt 0 view .LVU1287
 5792 0014 1E4D     		ldr	r5, .L402
 5793 0016 0026     		movs	r6, #0
 5794 0018 85F82462 		strb	r6, [r5, #548]
1043:Core/Src/esp32.c ****         sprintf(MQTT.client_id, "%p%p%p", unique_id_1, unique_id_2, unique_id_3);
 5795              		.loc 1 1043 9 is_stmt 1 view .LVU1288
1043:Core/Src/esp32.c ****         sprintf(MQTT.client_id, "%p%p%p", unique_id_1, unique_id_2, unique_id_3);
 5796              		.loc 1 1043 21 is_stmt 0 view .LVU1289
 5797 001c 0523     		movs	r3, #5
 5798 001e 85F82132 		strb	r3, [r5, #545]
1044:Core/Src/esp32.c ****         strcpy(MQTT.username, "Jpwolfe");
 5799              		.loc 1 1044 9 is_stmt 1 view .LVU1290
 5800 0022 1C4B     		ldr	r3, .L402+4
 5801 0024 0093     		str	r3, [sp]
 5802 0026 0A3B     		subs	r3, r3, #10
 5803 0028 1B4A     		ldr	r2, .L402+8
 5804 002a 1C49     		ldr	r1, .L402+12
 5805 002c 2846     		mov	r0, r5
 5806 002e FFF7FEFF 		bl	sprintf
 5807              	.LVL445:
1045:Core/Src/esp32.c ****         strcpy(MQTT.password, "1234567890");
 5808              		.loc 1 1045 9 view .LVU1291
 5809 0032 05F58073 		add	r3, r5, #256
 5810 0036 1A4A     		ldr	r2, .L402+16
 5811 0038 92E80300 		ldm	r2, {r0, r1}
 5812 003c 83E80300 		stm	r3, {r0, r1}
1046:Core/Src/esp32.c ****         strcpy(MQTT.host, "a1k7aswhvntcg-ats.iot.us-east-1.amazonaws.com");
 5813              		.loc 1 1046 9 view .LVU1292
 5814 0040 184A     		ldr	r2, .L402+20
 5815 0042 05F5A073 		add	r3, r5, #320
 5816 0046 07CA     		ldm	r2, {r0, r1, r2}
 5817 0048 03C3     		stmia	r3!, {r0, r1}
 5818 004a 23F8022B 		strh	r2, [r3], #2	@ movhi
 5819 004e 120C     		lsrs	r2, r2, #16
 5820 0050 1A70     		strb	r2, [r3]
1047:Core/Src/esp32.c ****         MQTT.port = 8883;
 5821              		.loc 1 1047 9 view .LVU1293
 5822 0052 05F5C07C 		add	ip, r5, #384
 5823 0056 144C     		ldr	r4, .L402+24
 5824 0058 0FCC     		ldmia	r4!, {r0, r1, r2, r3}
 5825 005a ACE80F00 		stmia	ip!, {r0, r1, r2, r3}
 5826 005e 0FCC     		ldmia	r4!, {r0, r1, r2, r3}
 5827 0060 ACE80F00 		stmia	ip!, {r0, r1, r2, r3}
 5828 0064 94E80F00 		ldm	r4, {r0, r1, r2, r3}
 5829 0068 ACE80700 		stmia	ip!, {r0, r1, r2}
 5830 006c ACF80030 		strh	r3, [ip]	@ movhi
1048:Core/Src/esp32.c ****         MQTT.reconnect = 1;
ARM GAS  /var/folders/9y/n02fl3g16gnf7ppy14xghdy80000gn/T//ccoB4Sfq.s 			page 138


 5831              		.loc 1 1048 9 view .LVU1294
1048:Core/Src/esp32.c ****         MQTT.reconnect = 1;
 5832              		.loc 1 1048 19 is_stmt 0 view .LVU1295
 5833 0070 42F2B323 		movw	r3, #8883
 5834 0074 A5F82232 		strh	r3, [r5, #546]	@ movhi
1049:Core/Src/esp32.c ****         strcpy(MQTT.path, "");
 5835              		.loc 1 1049 9 is_stmt 1 view .LVU1296
1049:Core/Src/esp32.c ****         strcpy(MQTT.path, "");
 5836              		.loc 1 1049 24 is_stmt 0 view .LVU1297
 5837 0078 0123     		movs	r3, #1
 5838 007a 85F82532 		strb	r3, [r5, #549]
1050:Core/Src/esp32.c **** 
 5839              		.loc 1 1050 9 is_stmt 1 view .LVU1298
 5840 007e 85F80062 		strb	r6, [r5, #512]
1052:Core/Src/esp32.c ****         MQTT_Connect();
 5841              		.loc 1 1052 9 view .LVU1299
 5842 0082 FFF7FEFF 		bl	MQTT_SetUserConfig
 5843              	.LVL446:
1053:Core/Src/esp32.c ****         MQTT_GetConnection();
 5844              		.loc 1 1053 9 view .LVU1300
 5845 0086 FFF7FEFF 		bl	MQTT_Connect
 5846              	.LVL447:
1054:Core/Src/esp32.c ****     }
 5847              		.loc 1 1054 9 view .LVU1301
 5848 008a FFF7FEFF 		bl	MQTT_GetConnection
 5849              	.LVL448:
 5850 008e BFE7     		b	.L399
 5851              	.L403:
 5852              		.align	2
 5853              	.L402:
 5854 0090 00000000 		.word	.LANCHOR2
 5855 0094 9E75FF1F 		.word	536835486
 5856 0098 9075FF1F 		.word	536835472
 5857 009c 00000000 		.word	.LC71
 5858 00a0 08000000 		.word	.LC72
 5859 00a4 10000000 		.word	.LC73
 5860 00a8 1C000000 		.word	.LC74
 5861              		.cfi_endproc
 5862              	.LFE1198:
 5864              		.section	.rodata.MQTT_Publish.str1.4,"aMS",%progbits,1
 5865              		.align	2
 5866              	.LC75:
 5867 0000 41542B4D 		.ascii	"AT+MQTTPUB=%u,\"%s\",\"%s\",0,0\015\012\000"
 5867      51545450 
 5867      55423D25 
 5867      752C2225 
 5867      73222C22 
 5868              		.section	.text.MQTT_Publish,"ax",%progbits
 5869              		.align	1
 5870              		.global	MQTT_Publish
 5871              		.syntax unified
 5872              		.thumb
 5873              		.thumb_func
 5874              		.fpu fpv4-sp-d16
 5876              	MQTT_Publish:
 5877              	.LFB1206:
1208:Core/Src/esp32.c **** // ################################################################################################
ARM GAS  /var/folders/9y/n02fl3g16gnf7ppy14xghdy80000gn/T//ccoB4Sfq.s 			page 139


1209:Core/Src/esp32.c **** bool MQTT_Publish(MQTT_Message_t Message)
1210:Core/Src/esp32.c **** {
 5878              		.loc 1 1210 1 view -0
 5879              		.cfi_startproc
 5880              		@ args = 1156, pretend = 16, frame = 8
 5881              		@ frame_needed = 0, uses_anonymous_args = 0
 5882 0000 84B0     		sub	sp, sp, #16
 5883              		.cfi_def_cfa_offset 16
 5884 0002 10B5     		push	{r4, lr}
 5885              		.cfi_def_cfa_offset 24
 5886              		.cfi_offset 4, -24
 5887              		.cfi_offset 14, -20
 5888 0004 84B0     		sub	sp, sp, #16
 5889              		.cfi_def_cfa_offset 40
 5890 0006 06AC     		add	r4, sp, #24
 5891 0008 84E80F00 		stm	r4, {r0, r1, r2, r3}
1211:Core/Src/esp32.c ****     uint8_t result;
 5892              		.loc 1 1211 5 view .LVU1303
1212:Core/Src/esp32.c ****     bool returnVal = false;
 5893              		.loc 1 1212 5 view .LVU1304
 5894              	.LVL449:
1213:Core/Src/esp32.c ****     do
 5895              		.loc 1 1213 5 view .LVU1305
1214:Core/Src/esp32.c ****     {
1215:Core/Src/esp32.c ****         Wifi_RxClear();
 5896              		.loc 1 1215 9 view .LVU1306
 5897 000c FFF7FEFF 		bl	Wifi_RxClear
 5898              	.LVL450:
1216:Core/Src/esp32.c ****         sprintf((char *)Wifi.TxBuffer, "AT+MQTTPUB=%u,\"%s\",\"%s\",0,0\r\n", MQTT.link_id, Message
 5899              		.loc 1 1216 9 view .LVU1307
 5900 0010 124C     		ldr	r4, .L408
 5901 0012 26AB     		add	r3, sp, #152
 5902 0014 0093     		str	r3, [sp]
 5903 0016 06AB     		add	r3, sp, #24
 5904 0018 114A     		ldr	r2, .L408+4
 5905 001a 92F82422 		ldrb	r2, [r2, #548]	@ zero_extendqisi2
 5906 001e 1149     		ldr	r1, .L408+8
 5907 0020 2046     		mov	r0, r4
 5908 0022 FFF7FEFF 		bl	sprintf
 5909              	.LVL451:
1217:Core/Src/esp32.c ****         if (Wifi_SendString((char *)Wifi.TxBuffer) == false)
 5910              		.loc 1 1217 9 view .LVU1308
 5911              		.loc 1 1217 13 is_stmt 0 view .LVU1309
 5912 0026 2046     		mov	r0, r4
 5913 0028 FFF7FEFF 		bl	Wifi_SendString
 5914              	.LVL452:
 5915              		.loc 1 1217 12 view .LVU1310
 5916 002c 20B9     		cbnz	r0, .L407
 5917              	.L405:
 5918              	.LVL453:
1218:Core/Src/esp32.c ****             break;
1219:Core/Src/esp32.c ****         if (Wifi_WaitForString(_WIFI_WAIT_TIME_LOW, &result, 2, "OK", "ERROR") == false)
1220:Core/Src/esp32.c ****             break;       // The timeout was completed and the string was not there
1221:Core/Src/esp32.c ****         if (result == 2) // It was find the "ERROR" String in the receiving information
1222:Core/Src/esp32.c ****             break;
1223:Core/Src/esp32.c ****         returnVal = true;
1224:Core/Src/esp32.c ****     } while (0);
ARM GAS  /var/folders/9y/n02fl3g16gnf7ppy14xghdy80000gn/T//ccoB4Sfq.s 			page 140


 5919              		.loc 1 1224 13 is_stmt 1 view .LVU1311
1225:Core/Src/esp32.c ****     return returnVal;
 5920              		.loc 1 1225 5 view .LVU1312
1226:Core/Src/esp32.c **** }
 5921              		.loc 1 1226 1 is_stmt 0 view .LVU1313
 5922 002e 04B0     		add	sp, sp, #16
 5923              		.cfi_remember_state
 5924              		.cfi_def_cfa_offset 24
 5925              		@ sp needed
 5926 0030 BDE81040 		pop	{r4, lr}
 5927              		.cfi_restore 14
 5928              		.cfi_restore 4
 5929              		.cfi_def_cfa_offset 16
 5930 0034 04B0     		add	sp, sp, #16
 5931              		.cfi_def_cfa_offset 0
 5932 0036 7047     		bx	lr
 5933              	.LVL454:
 5934              	.L407:
 5935              		.cfi_restore_state
1219:Core/Src/esp32.c ****             break;       // The timeout was completed and the string was not there
 5936              		.loc 1 1219 9 is_stmt 1 view .LVU1314
1219:Core/Src/esp32.c ****             break;       // The timeout was completed and the string was not there
 5937              		.loc 1 1219 13 is_stmt 0 view .LVU1315
 5938 0038 0B4B     		ldr	r3, .L408+12
 5939 003a 0093     		str	r3, [sp]
 5940 003c 0B4B     		ldr	r3, .L408+16
 5941 003e 0222     		movs	r2, #2
 5942 0040 0DF10F01 		add	r1, sp, #15
 5943 0044 4FF47A70 		mov	r0, #1000
 5944 0048 FFF7FEFF 		bl	Wifi_WaitForString
 5945              	.LVL455:
1219:Core/Src/esp32.c ****             break;       // The timeout was completed and the string was not there
 5946              		.loc 1 1219 12 view .LVU1316
 5947 004c 0028     		cmp	r0, #0
 5948 004e EED0     		beq	.L405
1221:Core/Src/esp32.c ****             break;
 5949              		.loc 1 1221 9 is_stmt 1 view .LVU1317
1221:Core/Src/esp32.c ****             break;
 5950              		.loc 1 1221 20 is_stmt 0 view .LVU1318
 5951 0050 9DF80F30 		ldrb	r3, [sp, #15]	@ zero_extendqisi2
1221:Core/Src/esp32.c ****             break;
 5952              		.loc 1 1221 12 view .LVU1319
 5953 0054 022B     		cmp	r3, #2
 5954 0056 EAD1     		bne	.L405
1212:Core/Src/esp32.c ****     do
 5955              		.loc 1 1212 10 view .LVU1320
 5956 0058 0020     		movs	r0, #0
 5957 005a E8E7     		b	.L405
 5958              	.L409:
 5959              		.align	2
 5960              	.L408:
 5961 005c 01020000 		.word	.LANCHOR0+513
 5962 0060 00000000 		.word	.LANCHOR2
 5963 0064 00000000 		.word	.LC75
 5964 0068 0C000000 		.word	.LC2
 5965 006c 08000000 		.word	.LC1
 5966              		.cfi_endproc
ARM GAS  /var/folders/9y/n02fl3g16gnf7ppy14xghdy80000gn/T//ccoB4Sfq.s 			page 141


 5967              	.LFE1206:
 5969              		.section	.rodata.MQTT_PublishRaw.str1.4,"aMS",%progbits,1
 5970              		.align	2
 5971              	.LC76:
 5972 0000 41542B4D 		.ascii	"AT+MQTTPUBRAW=%u,\"%s\",%u,0,0\015\012\000"
 5972      51545450 
 5972      55425241 
 5972      573D2575 
 5972      2C222573 
 5973 001f 00       		.align	2
 5974              	.LC77:
 5975 0020 4F4B0A3E 		.ascii	"OK\012>\000"
 5975      00
 5976 0025 000000   		.align	2
 5977              	.LC78:
 5978 0028 2B4D5154 		.ascii	"+MQTTPUB:OK\000"
 5978      54505542 
 5978      3A4F4B00 
 5979              		.align	2
 5980              	.LC79:
 5981 0034 2B4D5154 		.ascii	"+MQTTPUB:FAIL\000"
 5981      54505542 
 5981      3A464149 
 5981      4C00
 5982              		.section	.text.MQTT_PublishRaw,"ax",%progbits
 5983              		.align	1
 5984              		.global	MQTT_PublishRaw
 5985              		.syntax unified
 5986              		.thumb
 5987              		.thumb_func
 5988              		.fpu fpv4-sp-d16
 5990              	MQTT_PublishRaw:
 5991              	.LFB1207:
1227:Core/Src/esp32.c **** // ################################################################################################
1228:Core/Src/esp32.c **** bool MQTT_PublishRaw(MQTT_Message_t Message)
1229:Core/Src/esp32.c **** {
 5992              		.loc 1 1229 1 is_stmt 1 view -0
 5993              		.cfi_startproc
 5994              		@ args = 1156, pretend = 16, frame = 8
 5995              		@ frame_needed = 0, uses_anonymous_args = 0
 5996 0000 84B0     		sub	sp, sp, #16
 5997              		.cfi_def_cfa_offset 16
 5998 0002 10B5     		push	{r4, lr}
 5999              		.cfi_def_cfa_offset 24
 6000              		.cfi_offset 4, -24
 6001              		.cfi_offset 14, -20
 6002 0004 84B0     		sub	sp, sp, #16
 6003              		.cfi_def_cfa_offset 40
 6004 0006 06AC     		add	r4, sp, #24
 6005 0008 84E80F00 		stm	r4, {r0, r1, r2, r3}
1230:Core/Src/esp32.c ****     uint8_t result;
 6006              		.loc 1 1230 5 view .LVU1322
1231:Core/Src/esp32.c ****     bool returnVal = false;
 6007              		.loc 1 1231 5 view .LVU1323
 6008              	.LVL456:
1232:Core/Src/esp32.c ****     do
 6009              		.loc 1 1232 5 view .LVU1324
ARM GAS  /var/folders/9y/n02fl3g16gnf7ppy14xghdy80000gn/T//ccoB4Sfq.s 			page 142


1233:Core/Src/esp32.c ****     {
1234:Core/Src/esp32.c ****         Wifi_RxClear();
 6010              		.loc 1 1234 9 view .LVU1325
 6011 000c FFF7FEFF 		bl	Wifi_RxClear
 6012              	.LVL457:
1235:Core/Src/esp32.c ****         sprintf((char *)Wifi.TxBuffer, "AT+MQTTPUBRAW=%u,\"%s\",%u,0,0\r\n", MQTT.link_id, Message.
 6013              		.loc 1 1235 9 view .LVU1326
 6014              		.loc 1 1235 114 is_stmt 0 view .LVU1327
 6015 0010 BDF89834 		ldrh	r3, [sp, #1176]
 6016              		.loc 1 1235 9 view .LVU1328
 6017 0014 224C     		ldr	r4, .L417
 6018 0016 0093     		str	r3, [sp]
 6019 0018 06AB     		add	r3, sp, #24
 6020 001a 224A     		ldr	r2, .L417+4
 6021 001c 92F82422 		ldrb	r2, [r2, #548]	@ zero_extendqisi2
 6022 0020 2149     		ldr	r1, .L417+8
 6023 0022 2046     		mov	r0, r4
 6024 0024 FFF7FEFF 		bl	sprintf
 6025              	.LVL458:
1236:Core/Src/esp32.c ****         if (Wifi_SendString((char *)Wifi.TxBuffer) == false)
 6026              		.loc 1 1236 9 is_stmt 1 view .LVU1329
 6027              		.loc 1 1236 13 is_stmt 0 view .LVU1330
 6028 0028 2046     		mov	r0, r4
 6029 002a FFF7FEFF 		bl	Wifi_SendString
 6030              	.LVL459:
 6031              		.loc 1 1236 12 view .LVU1331
 6032 002e 20B9     		cbnz	r0, .L416
 6033              	.L411:
 6034              	.LVL460:
1237:Core/Src/esp32.c ****             break;
1238:Core/Src/esp32.c ****         if (Wifi_WaitForString(_WIFI_WAIT_TIME_LOW, &result, 2, "OK\n>", "ERROR") == false)
1239:Core/Src/esp32.c ****             break;       // The timeout was completed and the string was not there
1240:Core/Src/esp32.c ****         if (result == 2) // It was find the "ERROR" String in the receiving information
1241:Core/Src/esp32.c ****             break;
1242:Core/Src/esp32.c ****         /* Send all data byte by byte */
1243:Core/Src/esp32.c ****         for (uint16_t idx = 0; idx < Message.length; idx++)
1244:Core/Src/esp32.c ****             usart1TransmitDma((uint8_t *)&Message.TxData[idx], 1);
1245:Core/Src/esp32.c ****         /* Wait for response */
1246:Core/Src/esp32.c ****         if (Wifi_WaitForString(_WIFI_WAIT_TIME_LOW, &result, 2, "+MQTTPUB:OK", "+MQTTPUB:FAIL") == 
1247:Core/Src/esp32.c ****             break;       // The timeout was completed and the string was not there
1248:Core/Src/esp32.c ****         if (result == 2) // It was find the "FAIL" String in the receiving information
1249:Core/Src/esp32.c ****             break;
1250:Core/Src/esp32.c ****         returnVal = true;
1251:Core/Src/esp32.c ****     } while (0);
 6035              		.loc 1 1251 13 is_stmt 1 view .LVU1332
1252:Core/Src/esp32.c ****     return returnVal;
 6036              		.loc 1 1252 5 view .LVU1333
1253:Core/Src/esp32.c **** }
 6037              		.loc 1 1253 1 is_stmt 0 view .LVU1334
 6038 0030 04B0     		add	sp, sp, #16
 6039              		.cfi_remember_state
 6040              		.cfi_def_cfa_offset 24
 6041              		@ sp needed
 6042 0032 BDE81040 		pop	{r4, lr}
 6043              		.cfi_restore 14
 6044              		.cfi_restore 4
 6045              		.cfi_def_cfa_offset 16
ARM GAS  /var/folders/9y/n02fl3g16gnf7ppy14xghdy80000gn/T//ccoB4Sfq.s 			page 143


 6046 0036 04B0     		add	sp, sp, #16
 6047              		.cfi_def_cfa_offset 0
 6048 0038 7047     		bx	lr
 6049              	.LVL461:
 6050              	.L416:
 6051              		.cfi_restore_state
1238:Core/Src/esp32.c ****             break;       // The timeout was completed and the string was not there
 6052              		.loc 1 1238 9 is_stmt 1 view .LVU1335
1238:Core/Src/esp32.c ****             break;       // The timeout was completed and the string was not there
 6053              		.loc 1 1238 13 is_stmt 0 view .LVU1336
 6054 003a 1C4B     		ldr	r3, .L417+12
 6055 003c 0093     		str	r3, [sp]
 6056 003e 1C4B     		ldr	r3, .L417+16
 6057 0040 0222     		movs	r2, #2
 6058 0042 0DF10F01 		add	r1, sp, #15
 6059 0046 4FF47A70 		mov	r0, #1000
 6060 004a FFF7FEFF 		bl	Wifi_WaitForString
 6061              	.LVL462:
1238:Core/Src/esp32.c ****             break;       // The timeout was completed and the string was not there
 6062              		.loc 1 1238 12 view .LVU1337
 6063 004e 0028     		cmp	r0, #0
 6064 0050 EED0     		beq	.L411
1240:Core/Src/esp32.c ****             break;
 6065              		.loc 1 1240 9 is_stmt 1 view .LVU1338
1240:Core/Src/esp32.c ****             break;
 6066              		.loc 1 1240 20 is_stmt 0 view .LVU1339
 6067 0052 9DF80F30 		ldrb	r3, [sp, #15]	@ zero_extendqisi2
1240:Core/Src/esp32.c ****             break;
 6068              		.loc 1 1240 12 view .LVU1340
 6069 0056 022B     		cmp	r3, #2
 6070 0058 20D0     		beq	.L414
 6071              	.LBB21:
1243:Core/Src/esp32.c ****             usart1TransmitDma((uint8_t *)&Message.TxData[idx], 1);
 6072              		.loc 1 1243 23 view .LVU1341
 6073 005a 0024     		movs	r4, #0
 6074 005c 08E0     		b	.L412
 6075              	.LVL463:
 6076              	.L413:
1244:Core/Src/esp32.c ****         /* Wait for response */
 6077              		.loc 1 1244 13 is_stmt 1 discriminator 3 view .LVU1342
 6078 005e 0121     		movs	r1, #1
 6079 0060 04F19803 		add	r3, r4, #152
 6080 0064 0DEB0300 		add	r0, sp, r3
 6081 0068 FFF7FEFF 		bl	usart1TransmitDma
 6082              	.LVL464:
1243:Core/Src/esp32.c ****             usart1TransmitDma((uint8_t *)&Message.TxData[idx], 1);
 6083              		.loc 1 1243 54 discriminator 3 view .LVU1343
1243:Core/Src/esp32.c ****             usart1TransmitDma((uint8_t *)&Message.TxData[idx], 1);
 6084              		.loc 1 1243 57 is_stmt 0 discriminator 3 view .LVU1344
 6085 006c 0134     		adds	r4, r4, #1
 6086              	.LVL465:
1243:Core/Src/esp32.c ****             usart1TransmitDma((uint8_t *)&Message.TxData[idx], 1);
 6087              		.loc 1 1243 57 discriminator 3 view .LVU1345
 6088 006e A4B2     		uxth	r4, r4
 6089              	.LVL466:
 6090              	.L412:
1243:Core/Src/esp32.c ****             usart1TransmitDma((uint8_t *)&Message.TxData[idx], 1);
ARM GAS  /var/folders/9y/n02fl3g16gnf7ppy14xghdy80000gn/T//ccoB4Sfq.s 			page 144


 6091              		.loc 1 1243 32 is_stmt 1 discriminator 1 view .LVU1346
1243:Core/Src/esp32.c ****             usart1TransmitDma((uint8_t *)&Message.TxData[idx], 1);
 6092              		.loc 1 1243 45 is_stmt 0 discriminator 1 view .LVU1347
 6093 0070 BDF89834 		ldrh	r3, [sp, #1176]
1243:Core/Src/esp32.c ****             usart1TransmitDma((uint8_t *)&Message.TxData[idx], 1);
 6094              		.loc 1 1243 9 discriminator 1 view .LVU1348
 6095 0074 A342     		cmp	r3, r4
 6096 0076 F2D8     		bhi	.L413
 6097              	.LBE21:
1246:Core/Src/esp32.c ****             break;       // The timeout was completed and the string was not there
 6098              		.loc 1 1246 9 is_stmt 1 view .LVU1349
1246:Core/Src/esp32.c ****             break;       // The timeout was completed and the string was not there
 6099              		.loc 1 1246 13 is_stmt 0 view .LVU1350
 6100 0078 0E4B     		ldr	r3, .L417+20
 6101 007a 0093     		str	r3, [sp]
 6102 007c 0E4B     		ldr	r3, .L417+24
 6103 007e 0222     		movs	r2, #2
 6104 0080 0DF10F01 		add	r1, sp, #15
 6105 0084 4FF47A70 		mov	r0, #1000
 6106 0088 FFF7FEFF 		bl	Wifi_WaitForString
 6107              	.LVL467:
1246:Core/Src/esp32.c ****             break;       // The timeout was completed and the string was not there
 6108              		.loc 1 1246 12 view .LVU1351
 6109 008c 0028     		cmp	r0, #0
 6110 008e CFD0     		beq	.L411
1248:Core/Src/esp32.c ****             break;
 6111              		.loc 1 1248 9 is_stmt 1 view .LVU1352
1248:Core/Src/esp32.c ****             break;
 6112              		.loc 1 1248 20 is_stmt 0 view .LVU1353
 6113 0090 9DF80F30 		ldrb	r3, [sp, #15]	@ zero_extendqisi2
1248:Core/Src/esp32.c ****             break;
 6114              		.loc 1 1248 12 view .LVU1354
 6115 0094 022B     		cmp	r3, #2
 6116 0096 CBD1     		bne	.L411
1231:Core/Src/esp32.c ****     do
 6117              		.loc 1 1231 10 view .LVU1355
 6118 0098 0020     		movs	r0, #0
 6119 009a C9E7     		b	.L411
 6120              	.LVL468:
 6121              	.L414:
1231:Core/Src/esp32.c ****     do
 6122              		.loc 1 1231 10 view .LVU1356
 6123 009c 0020     		movs	r0, #0
 6124 009e C7E7     		b	.L411
 6125              	.L418:
 6126              		.align	2
 6127              	.L417:
 6128 00a0 01020000 		.word	.LANCHOR0+513
 6129 00a4 00000000 		.word	.LANCHOR2
 6130 00a8 00000000 		.word	.LC76
 6131 00ac 0C000000 		.word	.LC2
 6132 00b0 20000000 		.word	.LC77
 6133 00b4 34000000 		.word	.LC79
 6134 00b8 28000000 		.word	.LC78
 6135              		.cfi_endproc
 6136              	.LFE1207:
 6138              		.section	.rodata.MQTT_Subscribe.str1.4,"aMS",%progbits,1
ARM GAS  /var/folders/9y/n02fl3g16gnf7ppy14xghdy80000gn/T//ccoB4Sfq.s 			page 145


 6139              		.align	2
 6140              	.LC80:
 6141 0000 41542B4D 		.ascii	"AT+MQTTSUB=%u,\"%s\",0\015\012\000"
 6141      51545453 
 6141      55423D25 
 6141      752C2225 
 6141      73222C30 
 6142              		.section	.text.MQTT_Subscribe,"ax",%progbits
 6143              		.align	1
 6144              		.global	MQTT_Subscribe
 6145              		.syntax unified
 6146              		.thumb
 6147              		.thumb_func
 6148              		.fpu fpv4-sp-d16
 6150              	MQTT_Subscribe:
 6151              	.LFB1208:
1254:Core/Src/esp32.c **** // ################################################################################################
1255:Core/Src/esp32.c **** bool MQTT_Subscribe(MQTT_Message_t Message)
1256:Core/Src/esp32.c **** {
 6152              		.loc 1 1256 1 is_stmt 1 view -0
 6153              		.cfi_startproc
 6154              		@ args = 1156, pretend = 16, frame = 8
 6155              		@ frame_needed = 0, uses_anonymous_args = 0
 6156 0000 84B0     		sub	sp, sp, #16
 6157              		.cfi_def_cfa_offset 16
 6158 0002 10B5     		push	{r4, lr}
 6159              		.cfi_def_cfa_offset 24
 6160              		.cfi_offset 4, -24
 6161              		.cfi_offset 14, -20
 6162 0004 84B0     		sub	sp, sp, #16
 6163              		.cfi_def_cfa_offset 40
 6164 0006 06AC     		add	r4, sp, #24
 6165 0008 84E80F00 		stm	r4, {r0, r1, r2, r3}
1257:Core/Src/esp32.c ****     uint8_t result;
 6166              		.loc 1 1257 5 view .LVU1358
1258:Core/Src/esp32.c ****     bool returnVal = false;
 6167              		.loc 1 1258 5 view .LVU1359
 6168              	.LVL469:
1259:Core/Src/esp32.c ****     do
 6169              		.loc 1 1259 5 view .LVU1360
1260:Core/Src/esp32.c ****     {
1261:Core/Src/esp32.c ****         Wifi_RxClear();
 6170              		.loc 1 1261 9 view .LVU1361
 6171 000c FFF7FEFF 		bl	Wifi_RxClear
 6172              	.LVL470:
1262:Core/Src/esp32.c ****         sprintf((char *)Wifi.TxBuffer, "AT+MQTTSUB=%u,\"%s\",0\r\n", MQTT.link_id, Message.topic);
 6173              		.loc 1 1262 9 view .LVU1362
 6174 0010 114C     		ldr	r4, .L423
 6175 0012 06AB     		add	r3, sp, #24
 6176 0014 114A     		ldr	r2, .L423+4
 6177 0016 92F82422 		ldrb	r2, [r2, #548]	@ zero_extendqisi2
 6178 001a 1149     		ldr	r1, .L423+8
 6179 001c 2046     		mov	r0, r4
 6180 001e FFF7FEFF 		bl	sprintf
 6181              	.LVL471:
1263:Core/Src/esp32.c ****         if (Wifi_SendString((char *)Wifi.TxBuffer) == false)
 6182              		.loc 1 1263 9 view .LVU1363
ARM GAS  /var/folders/9y/n02fl3g16gnf7ppy14xghdy80000gn/T//ccoB4Sfq.s 			page 146


 6183              		.loc 1 1263 13 is_stmt 0 view .LVU1364
 6184 0022 2046     		mov	r0, r4
 6185 0024 FFF7FEFF 		bl	Wifi_SendString
 6186              	.LVL472:
 6187              		.loc 1 1263 12 view .LVU1365
 6188 0028 20B9     		cbnz	r0, .L422
 6189              	.L420:
 6190              	.LVL473:
1264:Core/Src/esp32.c ****             break;
1265:Core/Src/esp32.c ****         if (Wifi_WaitForString(_WIFI_WAIT_TIME_LOW, &result, 2, "OK", "ERROR") == false)
1266:Core/Src/esp32.c ****             break;       // The timeout was completed and the string was not there
1267:Core/Src/esp32.c ****         if (result == 2) // It was find the "ERROR" String in the receiving information
1268:Core/Src/esp32.c ****             break;
1269:Core/Src/esp32.c ****         returnVal = true;
1270:Core/Src/esp32.c ****     } while (0);
 6191              		.loc 1 1270 13 is_stmt 1 view .LVU1366
1271:Core/Src/esp32.c ****     return returnVal;
 6192              		.loc 1 1271 5 view .LVU1367
1272:Core/Src/esp32.c **** }
 6193              		.loc 1 1272 1 is_stmt 0 view .LVU1368
 6194 002a 04B0     		add	sp, sp, #16
 6195              		.cfi_remember_state
 6196              		.cfi_def_cfa_offset 24
 6197              		@ sp needed
 6198 002c BDE81040 		pop	{r4, lr}
 6199              		.cfi_restore 14
 6200              		.cfi_restore 4
 6201              		.cfi_def_cfa_offset 16
 6202 0030 04B0     		add	sp, sp, #16
 6203              		.cfi_def_cfa_offset 0
 6204 0032 7047     		bx	lr
 6205              	.LVL474:
 6206              	.L422:
 6207              		.cfi_restore_state
1265:Core/Src/esp32.c ****             break;       // The timeout was completed and the string was not there
 6208              		.loc 1 1265 9 is_stmt 1 view .LVU1369
1265:Core/Src/esp32.c ****             break;       // The timeout was completed and the string was not there
 6209              		.loc 1 1265 13 is_stmt 0 view .LVU1370
 6210 0034 0B4B     		ldr	r3, .L423+12
 6211 0036 0093     		str	r3, [sp]
 6212 0038 0B4B     		ldr	r3, .L423+16
 6213 003a 0222     		movs	r2, #2
 6214 003c 0DF10F01 		add	r1, sp, #15
 6215 0040 4FF47A70 		mov	r0, #1000
 6216 0044 FFF7FEFF 		bl	Wifi_WaitForString
 6217              	.LVL475:
1265:Core/Src/esp32.c ****             break;       // The timeout was completed and the string was not there
 6218              		.loc 1 1265 12 view .LVU1371
 6219 0048 0028     		cmp	r0, #0
 6220 004a EED0     		beq	.L420
1267:Core/Src/esp32.c ****             break;
 6221              		.loc 1 1267 9 is_stmt 1 view .LVU1372
1267:Core/Src/esp32.c ****             break;
 6222              		.loc 1 1267 20 is_stmt 0 view .LVU1373
 6223 004c 9DF80F30 		ldrb	r3, [sp, #15]	@ zero_extendqisi2
1267:Core/Src/esp32.c ****             break;
 6224              		.loc 1 1267 12 view .LVU1374
ARM GAS  /var/folders/9y/n02fl3g16gnf7ppy14xghdy80000gn/T//ccoB4Sfq.s 			page 147


 6225 0050 022B     		cmp	r3, #2
 6226 0052 EAD1     		bne	.L420
1258:Core/Src/esp32.c ****     do
 6227              		.loc 1 1258 10 view .LVU1375
 6228 0054 0020     		movs	r0, #0
 6229 0056 E8E7     		b	.L420
 6230              	.L424:
 6231              		.align	2
 6232              	.L423:
 6233 0058 01020000 		.word	.LANCHOR0+513
 6234 005c 00000000 		.word	.LANCHOR2
 6235 0060 00000000 		.word	.LC80
 6236 0064 0C000000 		.word	.LC2
 6237 0068 08000000 		.word	.LC1
 6238              		.cfi_endproc
 6239              	.LFE1208:
 6241              		.section	.rodata.MQTT_Unsubscribe.str1.4,"aMS",%progbits,1
 6242              		.align	2
 6243              	.LC81:
 6244 0000 41542B4D 		.ascii	"AT+MQTTUNSUB=%u,\"%s\"\015\012\000"
 6244      51545455 
 6244      4E535542 
 6244      3D25752C 
 6244      22257322 
 6245              		.section	.text.MQTT_Unsubscribe,"ax",%progbits
 6246              		.align	1
 6247              		.global	MQTT_Unsubscribe
 6248              		.syntax unified
 6249              		.thumb
 6250              		.thumb_func
 6251              		.fpu fpv4-sp-d16
 6253              	MQTT_Unsubscribe:
 6254              	.LFB1209:
1273:Core/Src/esp32.c **** // ################################################################################################
1274:Core/Src/esp32.c **** bool MQTT_Unsubscribe(MQTT_Message_t Message)
1275:Core/Src/esp32.c **** {
 6255              		.loc 1 1275 1 is_stmt 1 view -0
 6256              		.cfi_startproc
 6257              		@ args = 1156, pretend = 16, frame = 8
 6258              		@ frame_needed = 0, uses_anonymous_args = 0
 6259 0000 84B0     		sub	sp, sp, #16
 6260              		.cfi_def_cfa_offset 16
 6261 0002 10B5     		push	{r4, lr}
 6262              		.cfi_def_cfa_offset 24
 6263              		.cfi_offset 4, -24
 6264              		.cfi_offset 14, -20
 6265 0004 84B0     		sub	sp, sp, #16
 6266              		.cfi_def_cfa_offset 40
 6267 0006 06AC     		add	r4, sp, #24
 6268 0008 84E80F00 		stm	r4, {r0, r1, r2, r3}
1276:Core/Src/esp32.c ****     uint8_t result;
 6269              		.loc 1 1276 5 view .LVU1377
1277:Core/Src/esp32.c ****     bool returnVal = false;
 6270              		.loc 1 1277 5 view .LVU1378
 6271              	.LVL476:
1278:Core/Src/esp32.c ****     do
 6272              		.loc 1 1278 5 view .LVU1379
ARM GAS  /var/folders/9y/n02fl3g16gnf7ppy14xghdy80000gn/T//ccoB4Sfq.s 			page 148


1279:Core/Src/esp32.c ****     {
1280:Core/Src/esp32.c ****         Wifi_RxClear();
 6273              		.loc 1 1280 9 view .LVU1380
 6274 000c FFF7FEFF 		bl	Wifi_RxClear
 6275              	.LVL477:
1281:Core/Src/esp32.c ****         sprintf((char *)Wifi.TxBuffer, "AT+MQTTUNSUB=%u,\"%s\"\r\n", MQTT.link_id, Message.topic);
 6276              		.loc 1 1281 9 view .LVU1381
 6277 0010 114C     		ldr	r4, .L429
 6278 0012 06AB     		add	r3, sp, #24
 6279 0014 114A     		ldr	r2, .L429+4
 6280 0016 92F82422 		ldrb	r2, [r2, #548]	@ zero_extendqisi2
 6281 001a 1149     		ldr	r1, .L429+8
 6282 001c 2046     		mov	r0, r4
 6283 001e FFF7FEFF 		bl	sprintf
 6284              	.LVL478:
1282:Core/Src/esp32.c ****         if (Wifi_SendString((char *)Wifi.TxBuffer) == false)
 6285              		.loc 1 1282 9 view .LVU1382
 6286              		.loc 1 1282 13 is_stmt 0 view .LVU1383
 6287 0022 2046     		mov	r0, r4
 6288 0024 FFF7FEFF 		bl	Wifi_SendString
 6289              	.LVL479:
 6290              		.loc 1 1282 12 view .LVU1384
 6291 0028 20B9     		cbnz	r0, .L428
 6292              	.L426:
 6293              	.LVL480:
1283:Core/Src/esp32.c ****             break;
1284:Core/Src/esp32.c ****         if (Wifi_WaitForString(_WIFI_WAIT_TIME_LOW, &result, 2, "OK", "ERROR") == false)
1285:Core/Src/esp32.c ****             break;       // The timeout was completed and the string was not there
1286:Core/Src/esp32.c ****         if (result == 2) // It was find the "ERROR" String in the receiving information
1287:Core/Src/esp32.c ****             break;
1288:Core/Src/esp32.c ****         returnVal = true;
1289:Core/Src/esp32.c ****     } while (0);
 6294              		.loc 1 1289 13 is_stmt 1 view .LVU1385
1290:Core/Src/esp32.c ****     return returnVal;
 6295              		.loc 1 1290 5 view .LVU1386
1291:Core/Src/esp32.c **** }
 6296              		.loc 1 1291 1 is_stmt 0 view .LVU1387
 6297 002a 04B0     		add	sp, sp, #16
 6298              		.cfi_remember_state
 6299              		.cfi_def_cfa_offset 24
 6300              		@ sp needed
 6301 002c BDE81040 		pop	{r4, lr}
 6302              		.cfi_restore 14
 6303              		.cfi_restore 4
 6304              		.cfi_def_cfa_offset 16
 6305 0030 04B0     		add	sp, sp, #16
 6306              		.cfi_def_cfa_offset 0
 6307 0032 7047     		bx	lr
 6308              	.LVL481:
 6309              	.L428:
 6310              		.cfi_restore_state
1284:Core/Src/esp32.c ****             break;       // The timeout was completed and the string was not there
 6311              		.loc 1 1284 9 is_stmt 1 view .LVU1388
1284:Core/Src/esp32.c ****             break;       // The timeout was completed and the string was not there
 6312              		.loc 1 1284 13 is_stmt 0 view .LVU1389
 6313 0034 0B4B     		ldr	r3, .L429+12
 6314 0036 0093     		str	r3, [sp]
ARM GAS  /var/folders/9y/n02fl3g16gnf7ppy14xghdy80000gn/T//ccoB4Sfq.s 			page 149


 6315 0038 0B4B     		ldr	r3, .L429+16
 6316 003a 0222     		movs	r2, #2
 6317 003c 0DF10F01 		add	r1, sp, #15
 6318 0040 4FF47A70 		mov	r0, #1000
 6319 0044 FFF7FEFF 		bl	Wifi_WaitForString
 6320              	.LVL482:
1284:Core/Src/esp32.c ****             break;       // The timeout was completed and the string was not there
 6321              		.loc 1 1284 12 view .LVU1390
 6322 0048 0028     		cmp	r0, #0
 6323 004a EED0     		beq	.L426
1286:Core/Src/esp32.c ****             break;
 6324              		.loc 1 1286 9 is_stmt 1 view .LVU1391
1286:Core/Src/esp32.c ****             break;
 6325              		.loc 1 1286 20 is_stmt 0 view .LVU1392
 6326 004c 9DF80F30 		ldrb	r3, [sp, #15]	@ zero_extendqisi2
1286:Core/Src/esp32.c ****             break;
 6327              		.loc 1 1286 12 view .LVU1393
 6328 0050 022B     		cmp	r3, #2
 6329 0052 EAD1     		bne	.L426
1277:Core/Src/esp32.c ****     do
 6330              		.loc 1 1277 10 view .LVU1394
 6331 0054 0020     		movs	r0, #0
 6332 0056 E8E7     		b	.L426
 6333              	.L430:
 6334              		.align	2
 6335              	.L429:
 6336 0058 01020000 		.word	.LANCHOR0+513
 6337 005c 00000000 		.word	.LANCHOR2
 6338 0060 00000000 		.word	.LC81
 6339 0064 0C000000 		.word	.LC2
 6340 0068 08000000 		.word	.LC1
 6341              		.cfi_endproc
 6342              	.LFE1209:
 6344              		.section	.rodata.MQTT_CheckSubscription.str1.4,"aMS",%progbits,1
 6345              		.align	2
 6346              	.LC82:
 6347 0000 41542B4D 		.ascii	"AT+MQTTSUB?\015\012\000"
 6347      51545453 
 6347      55423F0D 
 6347      0A00
 6348 000e 0000     		.align	2
 6349              	.LC83:
 6350 0010 2B4D5154 		.ascii	"+MQTTSUB\000"
 6350      54535542 
 6350      00
 6351 0019 000000   		.align	2
 6352              	.LC84:
 6353 001c 2B4D5154 		.ascii	"+MQTTSUB:0,\"%[^\"]\",%d,0\000"
 6353      54535542 
 6353      3A302C22 
 6353      255B5E22 
 6353      5D222C25 
 6354              		.section	.text.MQTT_CheckSubscription,"ax",%progbits
 6355              		.align	1
 6356              		.global	MQTT_CheckSubscription
 6357              		.syntax unified
 6358              		.thumb
ARM GAS  /var/folders/9y/n02fl3g16gnf7ppy14xghdy80000gn/T//ccoB4Sfq.s 			page 150


 6359              		.thumb_func
 6360              		.fpu fpv4-sp-d16
 6362              	MQTT_CheckSubscription:
 6363              	.LVL483:
 6364              	.LFB1210:
1292:Core/Src/esp32.c **** // ################################################################################################
1293:Core/Src/esp32.c **** bool MQTT_CheckSubscription(MQTT_Message_t *Message)
1294:Core/Src/esp32.c **** {
 6365              		.loc 1 1294 1 is_stmt 1 view -0
 6366              		.cfi_startproc
 6367              		@ args = 0, pretend = 0, frame = 8
 6368              		@ frame_needed = 0, uses_anonymous_args = 0
 6369              		.loc 1 1294 1 is_stmt 0 view .LVU1396
 6370 0000 30B5     		push	{r4, r5, lr}
 6371              		.cfi_def_cfa_offset 12
 6372              		.cfi_offset 4, -12
 6373              		.cfi_offset 5, -8
 6374              		.cfi_offset 14, -4
 6375 0002 85B0     		sub	sp, sp, #20
 6376              		.cfi_def_cfa_offset 32
 6377 0004 0546     		mov	r5, r0
1295:Core/Src/esp32.c ****     uint8_t result;
 6378              		.loc 1 1295 5 is_stmt 1 view .LVU1397
1296:Core/Src/esp32.c ****     bool returnVal = false;
 6379              		.loc 1 1296 5 view .LVU1398
 6380              	.LVL484:
1297:Core/Src/esp32.c ****     do
 6381              		.loc 1 1297 5 view .LVU1399
 6382              	.LBB22:
1298:Core/Src/esp32.c ****     {
1299:Core/Src/esp32.c ****         Wifi_RxClear();
 6383              		.loc 1 1299 9 view .LVU1400
 6384 0006 FFF7FEFF 		bl	Wifi_RxClear
 6385              	.LVL485:
1300:Core/Src/esp32.c ****         sprintf((char *)Wifi.TxBuffer, "AT+MQTTSUB?\r\n");
 6386              		.loc 1 1300 9 view .LVU1401
 6387 000a 1A4C     		ldr	r4, .L437
 6388 000c 1A4B     		ldr	r3, .L437+4
 6389 000e 07CB     		ldmia	r3!, {r0, r1, r2}
 6390 0010 C4F80102 		str	r0, [r4, #513]	@ unaligned
 6391 0014 C4F80512 		str	r1, [r4, #517]	@ unaligned
 6392 0018 C4F80922 		str	r2, [r4, #521]	@ unaligned
 6393 001c 1B88     		ldrh	r3, [r3]	@ unaligned
 6394 001e A4F80D32 		strh	r3, [r4, #525]	@ unaligned
1301:Core/Src/esp32.c ****         if (Wifi_SendString((char *)Wifi.TxBuffer) == false)
 6395              		.loc 1 1301 9 view .LVU1402
 6396              		.loc 1 1301 13 is_stmt 0 view .LVU1403
 6397 0022 04F20120 		addw	r0, r4, #513
 6398 0026 FFF7FEFF 		bl	Wifi_SendString
 6399              	.LVL486:
 6400              		.loc 1 1301 12 view .LVU1404
 6401 002a 0446     		mov	r4, r0
 6402 002c 10B9     		cbnz	r0, .L435
 6403              	.L432:
 6404              	.LVL487:
 6405              		.loc 1 1301 12 view .LVU1405
 6406              	.LBE22:
ARM GAS  /var/folders/9y/n02fl3g16gnf7ppy14xghdy80000gn/T//ccoB4Sfq.s 			page 151


1302:Core/Src/esp32.c ****             break;
1303:Core/Src/esp32.c ****         if (Wifi_WaitForString(_WIFI_WAIT_TIME_LOW, &result, 2, "OK", "ERROR") == false)
1304:Core/Src/esp32.c ****             break;       // The timeout was completed and the string was not there
1305:Core/Src/esp32.c ****         if (result == 2) // It was find the "ERROR" String in the receiving information
1306:Core/Src/esp32.c ****             break;
1307:Core/Src/esp32.c **** 
1308:Core/Src/esp32.c ****         char *str = strstr((char *)Wifi.RxBuffer, "+MQTTSUB");
1309:Core/Src/esp32.c ****         if (sscanf(str, "+MQTTSUB:0,\"%[^\"]\",%d,0", Message->topic, (int *)&MQTT.state) == false)
1310:Core/Src/esp32.c ****             break;
1311:Core/Src/esp32.c **** 
1312:Core/Src/esp32.c ****         returnVal = true;
1313:Core/Src/esp32.c ****     } while (0);
 6407              		.loc 1 1313 13 is_stmt 1 view .LVU1406
1314:Core/Src/esp32.c ****     return returnVal;
 6408              		.loc 1 1314 5 view .LVU1407
1315:Core/Src/esp32.c **** }
 6409              		.loc 1 1315 1 is_stmt 0 view .LVU1408
 6410 002e 2046     		mov	r0, r4
 6411 0030 05B0     		add	sp, sp, #20
 6412              		.cfi_remember_state
 6413              		.cfi_def_cfa_offset 12
 6414              		@ sp needed
 6415 0032 30BD     		pop	{r4, r5, pc}
 6416              	.LVL488:
 6417              	.L435:
 6418              		.cfi_restore_state
 6419              	.LBB23:
1303:Core/Src/esp32.c ****             break;       // The timeout was completed and the string was not there
 6420              		.loc 1 1303 9 is_stmt 1 view .LVU1409
1303:Core/Src/esp32.c ****             break;       // The timeout was completed and the string was not there
 6421              		.loc 1 1303 13 is_stmt 0 view .LVU1410
 6422 0034 114B     		ldr	r3, .L437+8
 6423 0036 0093     		str	r3, [sp]
 6424 0038 114B     		ldr	r3, .L437+12
 6425 003a 0222     		movs	r2, #2
 6426 003c 0DF10F01 		add	r1, sp, #15
 6427 0040 4FF47A70 		mov	r0, #1000
 6428 0044 FFF7FEFF 		bl	Wifi_WaitForString
 6429              	.LVL489:
1303:Core/Src/esp32.c ****             break;       // The timeout was completed and the string was not there
 6430              		.loc 1 1303 12 view .LVU1411
 6431 0048 0446     		mov	r4, r0
 6432 004a 0028     		cmp	r0, #0
 6433 004c EFD0     		beq	.L432
1305:Core/Src/esp32.c ****             break;
 6434              		.loc 1 1305 9 is_stmt 1 view .LVU1412
1305:Core/Src/esp32.c ****             break;
 6435              		.loc 1 1305 20 is_stmt 0 view .LVU1413
 6436 004e 9DF80F30 		ldrb	r3, [sp, #15]	@ zero_extendqisi2
1305:Core/Src/esp32.c ****             break;
 6437              		.loc 1 1305 12 view .LVU1414
 6438 0052 022B     		cmp	r3, #2
 6439 0054 01D1     		bne	.L436
 6440              	.LBE23:
1296:Core/Src/esp32.c ****     do
 6441              		.loc 1 1296 10 view .LVU1415
 6442 0056 0024     		movs	r4, #0
ARM GAS  /var/folders/9y/n02fl3g16gnf7ppy14xghdy80000gn/T//ccoB4Sfq.s 			page 152


 6443 0058 E9E7     		b	.L432
 6444              	.L436:
 6445              	.LBB24:
1308:Core/Src/esp32.c ****         if (sscanf(str, "+MQTTSUB:0,\"%[^\"]\",%d,0", Message->topic, (int *)&MQTT.state) == false)
 6446              		.loc 1 1308 9 is_stmt 1 view .LVU1416
1308:Core/Src/esp32.c ****         if (sscanf(str, "+MQTTSUB:0,\"%[^\"]\",%d,0", Message->topic, (int *)&MQTT.state) == false)
 6447              		.loc 1 1308 21 is_stmt 0 view .LVU1417
 6448 005a 0A49     		ldr	r1, .L437+16
 6449 005c 0A48     		ldr	r0, .L437+20
 6450 005e FFF7FEFF 		bl	strstr
 6451              	.LVL490:
1309:Core/Src/esp32.c ****             break;
 6452              		.loc 1 1309 9 is_stmt 1 view .LVU1418
1309:Core/Src/esp32.c ****             break;
 6453              		.loc 1 1309 13 is_stmt 0 view .LVU1419
 6454 0062 0A4B     		ldr	r3, .L437+24
 6455 0064 2A46     		mov	r2, r5
 6456 0066 0A49     		ldr	r1, .L437+28
 6457 0068 FFF7FEFF 		bl	sscanf
 6458              	.LVL491:
1309:Core/Src/esp32.c ****             break;
 6459              		.loc 1 1309 12 view .LVU1420
 6460 006c 0028     		cmp	r0, #0
 6461 006e DED1     		bne	.L432
 6462              	.LBE24:
1296:Core/Src/esp32.c ****     do
 6463              		.loc 1 1296 10 view .LVU1421
 6464 0070 0024     		movs	r4, #0
 6465 0072 DCE7     		b	.L432
 6466              	.L438:
 6467              		.align	2
 6468              	.L437:
 6469 0074 00000000 		.word	.LANCHOR0
 6470 0078 00000000 		.word	.LC82
 6471 007c 0C000000 		.word	.LC2
 6472 0080 08000000 		.word	.LC1
 6473 0084 10000000 		.word	.LC83
 6474 0088 01000000 		.word	.LANCHOR0+1
 6475 008c 20020000 		.word	.LANCHOR2+544
 6476 0090 1C000000 		.word	.LC84
 6477              		.cfi_endproc
 6478              	.LFE1210:
 6480              		.section	.rodata.MQTT_Disconnect.str1.4,"aMS",%progbits,1
 6481              		.align	2
 6482              	.LC85:
 6483 0000 41542B4D 		.ascii	"AT+MQTTCLEAN=%u\015\012\000"
 6483      51545443 
 6483      4C45414E 
 6483      3D25750D 
 6483      0A00
 6484              		.section	.text.MQTT_Disconnect,"ax",%progbits
 6485              		.align	1
 6486              		.global	MQTT_Disconnect
 6487              		.syntax unified
 6488              		.thumb
 6489              		.thumb_func
 6490              		.fpu fpv4-sp-d16
ARM GAS  /var/folders/9y/n02fl3g16gnf7ppy14xghdy80000gn/T//ccoB4Sfq.s 			page 153


 6492              	MQTT_Disconnect:
 6493              	.LFB1211:
1316:Core/Src/esp32.c **** // ################################################################################################
1317:Core/Src/esp32.c **** bool MQTT_Disconnect(void)
1318:Core/Src/esp32.c **** {
 6494              		.loc 1 1318 1 is_stmt 1 view -0
 6495              		.cfi_startproc
 6496              		@ args = 0, pretend = 0, frame = 8
 6497              		@ frame_needed = 0, uses_anonymous_args = 0
 6498 0000 10B5     		push	{r4, lr}
 6499              		.cfi_def_cfa_offset 8
 6500              		.cfi_offset 4, -8
 6501              		.cfi_offset 14, -4
 6502 0002 84B0     		sub	sp, sp, #16
 6503              		.cfi_def_cfa_offset 24
1319:Core/Src/esp32.c ****     uint8_t result;
 6504              		.loc 1 1319 5 view .LVU1423
1320:Core/Src/esp32.c ****     bool returnVal = false;
 6505              		.loc 1 1320 5 view .LVU1424
 6506              	.LVL492:
1321:Core/Src/esp32.c ****     do
 6507              		.loc 1 1321 5 view .LVU1425
1322:Core/Src/esp32.c ****     {
1323:Core/Src/esp32.c ****         Wifi_RxClear();
 6508              		.loc 1 1323 9 view .LVU1426
 6509 0004 FFF7FEFF 		bl	Wifi_RxClear
 6510              	.LVL493:
1324:Core/Src/esp32.c ****         sprintf((char *)Wifi.TxBuffer, "AT+MQTTCLEAN=%u\r\n", MQTT.link_id);
 6511              		.loc 1 1324 9 view .LVU1427
 6512 0008 0F4C     		ldr	r4, .L443
 6513 000a 104B     		ldr	r3, .L443+4
 6514 000c 93F82422 		ldrb	r2, [r3, #548]	@ zero_extendqisi2
 6515 0010 0F49     		ldr	r1, .L443+8
 6516 0012 2046     		mov	r0, r4
 6517 0014 FFF7FEFF 		bl	sprintf
 6518              	.LVL494:
1325:Core/Src/esp32.c ****         if (Wifi_SendString((char *)Wifi.TxBuffer) == false)
 6519              		.loc 1 1325 9 view .LVU1428
 6520              		.loc 1 1325 13 is_stmt 0 view .LVU1429
 6521 0018 2046     		mov	r0, r4
 6522 001a FFF7FEFF 		bl	Wifi_SendString
 6523              	.LVL495:
 6524              		.loc 1 1325 12 view .LVU1430
 6525 001e 08B9     		cbnz	r0, .L442
 6526              	.L440:
 6527              	.LVL496:
1326:Core/Src/esp32.c ****             break;
1327:Core/Src/esp32.c ****         if (Wifi_WaitForString(_WIFI_WAIT_TIME_LOW, &result, 2, "OK", "ERROR") == false)
1328:Core/Src/esp32.c ****             break;       // The timeout was completed and the string was not there
1329:Core/Src/esp32.c ****         if (result == 2) // It was find the "ERROR" String in the receiving information
1330:Core/Src/esp32.c ****             break;
1331:Core/Src/esp32.c ****         returnVal = true;
1332:Core/Src/esp32.c ****     } while (0);
 6528              		.loc 1 1332 13 is_stmt 1 view .LVU1431
1333:Core/Src/esp32.c ****     return returnVal;
 6529              		.loc 1 1333 5 view .LVU1432
1334:Core/Src/esp32.c **** }
ARM GAS  /var/folders/9y/n02fl3g16gnf7ppy14xghdy80000gn/T//ccoB4Sfq.s 			page 154


 6530              		.loc 1 1334 1 is_stmt 0 view .LVU1433
 6531 0020 04B0     		add	sp, sp, #16
 6532              		.cfi_remember_state
 6533              		.cfi_def_cfa_offset 8
 6534              		@ sp needed
 6535 0022 10BD     		pop	{r4, pc}
 6536              	.LVL497:
 6537              	.L442:
 6538              		.cfi_restore_state
1327:Core/Src/esp32.c ****             break;       // The timeout was completed and the string was not there
 6539              		.loc 1 1327 9 is_stmt 1 view .LVU1434
1327:Core/Src/esp32.c ****             break;       // The timeout was completed and the string was not there
 6540              		.loc 1 1327 13 is_stmt 0 view .LVU1435
 6541 0024 0B4B     		ldr	r3, .L443+12
 6542 0026 0093     		str	r3, [sp]
 6543 0028 0B4B     		ldr	r3, .L443+16
 6544 002a 0222     		movs	r2, #2
 6545 002c 0DF10F01 		add	r1, sp, #15
 6546 0030 4FF47A70 		mov	r0, #1000
 6547 0034 FFF7FEFF 		bl	Wifi_WaitForString
 6548              	.LVL498:
1327:Core/Src/esp32.c ****             break;       // The timeout was completed and the string was not there
 6549              		.loc 1 1327 12 view .LVU1436
 6550 0038 0028     		cmp	r0, #0
 6551 003a F1D0     		beq	.L440
1329:Core/Src/esp32.c ****             break;
 6552              		.loc 1 1329 9 is_stmt 1 view .LVU1437
1329:Core/Src/esp32.c ****             break;
 6553              		.loc 1 1329 20 is_stmt 0 view .LVU1438
 6554 003c 9DF80F30 		ldrb	r3, [sp, #15]	@ zero_extendqisi2
1329:Core/Src/esp32.c ****             break;
 6555              		.loc 1 1329 12 view .LVU1439
 6556 0040 022B     		cmp	r3, #2
 6557 0042 EDD1     		bne	.L440
1320:Core/Src/esp32.c ****     do
 6558              		.loc 1 1320 10 view .LVU1440
 6559 0044 0020     		movs	r0, #0
 6560 0046 EBE7     		b	.L440
 6561              	.L444:
 6562              		.align	2
 6563              	.L443:
 6564 0048 01020000 		.word	.LANCHOR0+513
 6565 004c 00000000 		.word	.LANCHOR2
 6566 0050 00000000 		.word	.LC85
 6567 0054 0C000000 		.word	.LC2
 6568 0058 08000000 		.word	.LC1
 6569              		.cfi_endproc
 6570              	.LFE1211:
 6572              		.section	.rodata.MQTT_WaitForMessage.str1.4,"aMS",%progbits,1
 6573              		.align	2
 6574              	.LC86:
 6575 0000 2B4D5154 		.ascii	"+MQTTSUBRECV\000"
 6575      54535542 
 6575      52454356 
 6575      00
 6576 000d 000000   		.align	2
 6577              	.LC87:
ARM GAS  /var/folders/9y/n02fl3g16gnf7ppy14xghdy80000gn/T//ccoB4Sfq.s 			page 155


 6578 0010 2B4D5154 		.ascii	"+MQTTSUBRECV:0,\"%[^\"]\",%u,%[^\015]\000"
 6578      54535542 
 6578      52454356 
 6578      3A302C22 
 6578      255B5E22 
 6579              		.section	.text.MQTT_WaitForMessage,"ax",%progbits
 6580              		.align	1
 6581              		.global	MQTT_WaitForMessage
 6582              		.syntax unified
 6583              		.thumb
 6584              		.thumb_func
 6585              		.fpu fpv4-sp-d16
 6587              	MQTT_WaitForMessage:
 6588              	.LVL499:
 6589              	.LFB1212:
1335:Core/Src/esp32.c **** // ################################################################################################
1336:Core/Src/esp32.c **** bool MQTT_WaitForMessage(MQTT_Message_t *Message, uint32_t waitTime)
1337:Core/Src/esp32.c **** {
 6590              		.loc 1 1337 1 is_stmt 1 view -0
 6591              		.cfi_startproc
 6592              		@ args = 0, pretend = 0, frame = 8
 6593              		@ frame_needed = 0, uses_anonymous_args = 0
 6594              		.loc 1 1337 1 is_stmt 0 view .LVU1442
 6595 0000 70B5     		push	{r4, r5, r6, lr}
 6596              		.cfi_def_cfa_offset 16
 6597              		.cfi_offset 4, -16
 6598              		.cfi_offset 5, -12
 6599              		.cfi_offset 6, -8
 6600              		.cfi_offset 14, -4
 6601 0002 84B0     		sub	sp, sp, #16
 6602              		.cfi_def_cfa_offset 32
 6603 0004 0446     		mov	r4, r0
 6604 0006 0D46     		mov	r5, r1
1338:Core/Src/esp32.c ****     uint8_t result;
 6605              		.loc 1 1338 5 is_stmt 1 view .LVU1443
1339:Core/Src/esp32.c ****     bool returnVal = false;
 6606              		.loc 1 1339 5 view .LVU1444
 6607              	.LVL500:
1340:Core/Src/esp32.c ****     do
 6608              		.loc 1 1340 5 view .LVU1445
 6609              	.LBB25:
1341:Core/Src/esp32.c ****     {
1342:Core/Src/esp32.c ****         Wifi_RxClear();
 6610              		.loc 1 1342 9 view .LVU1446
 6611 0008 FFF7FEFF 		bl	Wifi_RxClear
 6612              	.LVL501:
1343:Core/Src/esp32.c ****         memset(Message->RxData, '\0', sizeof(Message->RxData));
 6613              		.loc 1 1343 9 view .LVU1447
 6614              		.loc 1 1343 23 is_stmt 0 view .LVU1448
 6615 000c 04F52076 		add	r6, r4, #640
 6616              		.loc 1 1343 9 view .LVU1449
 6617 0010 4FF40072 		mov	r2, #512
 6618 0014 0021     		movs	r1, #0
 6619 0016 3046     		mov	r0, r6
 6620 0018 FFF7FEFF 		bl	memset
 6621              	.LVL502:
1344:Core/Src/esp32.c ****         if (Wifi_WaitForString(waitTime, &result, 1, "+MQTTSUBRECV") == false)
ARM GAS  /var/folders/9y/n02fl3g16gnf7ppy14xghdy80000gn/T//ccoB4Sfq.s 			page 156


 6622              		.loc 1 1344 9 is_stmt 1 view .LVU1450
 6623              		.loc 1 1344 13 is_stmt 0 view .LVU1451
 6624 001c 0D4B     		ldr	r3, .L449
 6625 001e 0122     		movs	r2, #1
 6626 0020 0DF10F01 		add	r1, sp, #15
 6627 0024 2846     		mov	r0, r5
 6628 0026 FFF7FEFF 		bl	Wifi_WaitForString
 6629              	.LVL503:
 6630              		.loc 1 1344 12 view .LVU1452
 6631 002a 0546     		mov	r5, r0
 6632              	.LVL504:
 6633              		.loc 1 1344 12 view .LVU1453
 6634 002c 10B9     		cbnz	r0, .L448
 6635              	.L446:
 6636              	.LVL505:
 6637              		.loc 1 1344 12 view .LVU1454
 6638              	.LBE25:
1345:Core/Src/esp32.c ****             break; // The timeout was completed and the string was not there
1346:Core/Src/esp32.c **** 
1347:Core/Src/esp32.c ****         char *str = strstr((char *)Wifi.RxBuffer, "+MQTTSUBRECV");
1348:Core/Src/esp32.c ****         if (sscanf(str, "+MQTTSUBRECV:0,\"%[^\"]\",%u,%[^\r]", Message->topic, &Message->length, Me
1349:Core/Src/esp32.c ****             break;
1350:Core/Src/esp32.c **** 
1351:Core/Src/esp32.c ****         returnVal = true;
1352:Core/Src/esp32.c ****     } while (0);
 6639              		.loc 1 1352 13 is_stmt 1 view .LVU1455
1353:Core/Src/esp32.c ****     return returnVal;
 6640              		.loc 1 1353 5 view .LVU1456
1354:Core/Src/esp32.c **** }
 6641              		.loc 1 1354 1 is_stmt 0 view .LVU1457
 6642 002e 2846     		mov	r0, r5
 6643 0030 04B0     		add	sp, sp, #16
 6644              		.cfi_remember_state
 6645              		.cfi_def_cfa_offset 16
 6646              		@ sp needed
 6647 0032 70BD     		pop	{r4, r5, r6, pc}
 6648              	.LVL506:
 6649              	.L448:
 6650              		.cfi_restore_state
 6651              	.LBB26:
1347:Core/Src/esp32.c ****         if (sscanf(str, "+MQTTSUBRECV:0,\"%[^\"]\",%u,%[^\r]", Message->topic, &Message->length, Me
 6652              		.loc 1 1347 9 is_stmt 1 view .LVU1458
1347:Core/Src/esp32.c ****         if (sscanf(str, "+MQTTSUBRECV:0,\"%[^\"]\",%u,%[^\r]", Message->topic, &Message->length, Me
 6653              		.loc 1 1347 21 is_stmt 0 view .LVU1459
 6654 0034 0749     		ldr	r1, .L449
 6655 0036 0848     		ldr	r0, .L449+4
 6656 0038 FFF7FEFF 		bl	strstr
 6657              	.LVL507:
1348:Core/Src/esp32.c ****             break;
 6658              		.loc 1 1348 9 is_stmt 1 view .LVU1460
1348:Core/Src/esp32.c ****             break;
 6659              		.loc 1 1348 13 is_stmt 0 view .LVU1461
 6660 003c 0096     		str	r6, [sp]
 6661 003e 04F59063 		add	r3, r4, #1152
 6662 0042 2246     		mov	r2, r4
 6663 0044 0549     		ldr	r1, .L449+8
 6664 0046 FFF7FEFF 		bl	sscanf
ARM GAS  /var/folders/9y/n02fl3g16gnf7ppy14xghdy80000gn/T//ccoB4Sfq.s 			page 157


 6665              	.LVL508:
1348:Core/Src/esp32.c ****             break;
 6666              		.loc 1 1348 12 view .LVU1462
 6667 004a 0028     		cmp	r0, #0
 6668 004c EFD1     		bne	.L446
 6669              	.LBE26:
1339:Core/Src/esp32.c ****     do
 6670              		.loc 1 1339 10 view .LVU1463
 6671 004e 0025     		movs	r5, #0
 6672 0050 EDE7     		b	.L446
 6673              	.L450:
 6674 0052 00BF     		.align	2
 6675              	.L449:
 6676 0054 00000000 		.word	.LC86
 6677 0058 01000000 		.word	.LANCHOR0+1
 6678 005c 10000000 		.word	.LC87
 6679              		.cfi_endproc
 6680              	.LFE1212:
 6682              		.section	.text.MQTT_ListenForMessage,"ax",%progbits
 6683              		.align	1
 6684              		.global	MQTT_ListenForMessage
 6685              		.syntax unified
 6686              		.thumb
 6687              		.thumb_func
 6688              		.fpu fpv4-sp-d16
 6690              	MQTT_ListenForMessage:
 6691              	.LVL509:
 6692              	.LFB1213:
1355:Core/Src/esp32.c **** // ################################################################################################
1356:Core/Src/esp32.c **** bool MQTT_ListenForMessage(MQTT_Message_t *Message)
1357:Core/Src/esp32.c **** {
 6693              		.loc 1 1357 1 is_stmt 1 view -0
 6694              		.cfi_startproc
 6695              		@ args = 0, pretend = 0, frame = 8
 6696              		@ frame_needed = 0, uses_anonymous_args = 0
 6697              		.loc 1 1357 1 is_stmt 0 view .LVU1465
 6698 0000 70B5     		push	{r4, r5, r6, lr}
 6699              		.cfi_def_cfa_offset 16
 6700              		.cfi_offset 4, -16
 6701              		.cfi_offset 5, -12
 6702              		.cfi_offset 6, -8
 6703              		.cfi_offset 14, -4
 6704 0002 84B0     		sub	sp, sp, #16
 6705              		.cfi_def_cfa_offset 32
 6706 0004 0446     		mov	r4, r0
1358:Core/Src/esp32.c ****     uint8_t result;
 6707              		.loc 1 1358 5 is_stmt 1 view .LVU1466
1359:Core/Src/esp32.c ****     bool returnVal = false;
 6708              		.loc 1 1359 5 view .LVU1467
 6709              	.LVL510:
1360:Core/Src/esp32.c ****     do
 6710              		.loc 1 1360 5 view .LVU1468
1361:Core/Src/esp32.c ****     {
1362:Core/Src/esp32.c ****         Wifi_RxClear();
 6711              		.loc 1 1362 9 view .LVU1469
 6712 0006 FFF7FEFF 		bl	Wifi_RxClear
 6713              	.LVL511:
ARM GAS  /var/folders/9y/n02fl3g16gnf7ppy14xghdy80000gn/T//ccoB4Sfq.s 			page 158


1363:Core/Src/esp32.c ****         memset(Message->RxData, '\0', sizeof(Message->RxData));
 6714              		.loc 1 1363 9 view .LVU1470
 6715              		.loc 1 1363 23 is_stmt 0 view .LVU1471
 6716 000a 04F52076 		add	r6, r4, #640
 6717              		.loc 1 1363 9 view .LVU1472
 6718 000e 4FF40072 		mov	r2, #512
 6719 0012 0021     		movs	r1, #0
 6720 0014 3046     		mov	r0, r6
 6721 0016 FFF7FEFF 		bl	memset
 6722              	.LVL512:
1364:Core/Src/esp32.c **** 
1365:Core/Src/esp32.c ****         if (char_irq_recv)
 6723              		.loc 1 1365 9 is_stmt 1 view .LVU1473
 6724              		.loc 1 1365 13 is_stmt 0 view .LVU1474
 6725 001a 124B     		ldr	r3, .L455
 6726 001c 1B78     		ldrb	r3, [r3]	@ zero_extendqisi2
 6727              		.loc 1 1365 12 view .LVU1475
 6728 001e 03F0FF05 		and	r5, r3, #255
 6729 0022 13B9     		cbnz	r3, .L454
 6730              	.L452:
 6731              	.LVL513:
1366:Core/Src/esp32.c ****         {
1367:Core/Src/esp32.c ****             char_irq_recv = false;
1368:Core/Src/esp32.c **** 
1369:Core/Src/esp32.c ****             if (Wifi_WaitForString(1000, &result, 1, "+MQTTSUBRECV") == false)
1370:Core/Src/esp32.c ****                 break; // The timeout was completed and the string was not there
1371:Core/Src/esp32.c **** 
1372:Core/Src/esp32.c ****             char *str = strstr((char *)Wifi.RxBuffer, "+MQTTSUBRECV");
1373:Core/Src/esp32.c ****             if (sscanf(str, "+MQTTSUBRECV:0,\"%[^\"]\",%u,%[^\r]", Message->topic, &Message->length
1374:Core/Src/esp32.c ****                 break;
1375:Core/Src/esp32.c **** 
1376:Core/Src/esp32.c ****             returnVal = true;
1377:Core/Src/esp32.c ****         }
1378:Core/Src/esp32.c **** 
1379:Core/Src/esp32.c ****     } while (0);
 6732              		.loc 1 1379 13 is_stmt 1 view .LVU1476
1380:Core/Src/esp32.c ****     return returnVal;
 6733              		.loc 1 1380 5 view .LVU1477
1381:Core/Src/esp32.c **** }...
 6734              		.loc 1 1381 1 is_stmt 0 view .LVU1478
 6735 0024 2846     		mov	r0, r5
 6736 0026 04B0     		add	sp, sp, #16
 6737              		.cfi_remember_state
 6738              		.cfi_def_cfa_offset 16
 6739              		@ sp needed
 6740 0028 70BD     		pop	{r4, r5, r6, pc}
 6741              	.LVL514:
 6742              	.L454:
 6743              		.cfi_restore_state
 6744              	.LBB27:
1367:Core/Src/esp32.c ****             char_irq_recv = false;
 6745              		.loc 1 1367 13 is_stmt 1 view .LVU1479
1367:Core/Src/esp32.c ****             char_irq_recv = false;
 6746              		.loc 1 1367 27 is_stmt 0 view .LVU1480
 6747 002a 0E4B     		ldr	r3, .L455
 6748 002c 0022     		movs	r2, #0
 6749 002e 1A70     		strb	r2, [r3]
ARM GAS  /var/folders/9y/n02fl3g16gnf7ppy14xghdy80000gn/T//ccoB4Sfq.s 			page 159


1369:Core/Src/esp32.c ****             if (Wifi_WaitForString(1000, &result, 1, "+MQTTSUBRECV") == false)
 6750              		.loc 1 1369 13 is_stmt 1 view .LVU1481
1369:Core/Src/esp32.c ****             if (Wifi_WaitForString(1000, &result, 1, "+MQTTSUBRECV") == false)
 6751              		.loc 1 1369 17 is_stmt 0 view .LVU1482
 6752 0030 0D4B     		ldr	r3, .L455+4
 6753 0032 0122     		movs	r2, #1
 6754 0034 0DF10F01 		add	r1, sp, #15
 6755 0038 4FF47A70 		mov	r0, #1000
 6756 003c FFF7FEFF 		bl	Wifi_WaitForString
 6757              	.LVL515:
1369:Core/Src/esp32.c ****             if (Wifi_WaitForString(1000, &result, 1, "+MQTTSUBRECV") == false)
 6758              		.loc 1 1369 16 view .LVU1483
 6759 0040 0546     		mov	r5, r0
 6760 0042 0028     		cmp	r0, #0
 6761 0044 EED0     		beq	.L452
1372:Core/Src/esp32.c ****             char *str = strstr((char *)Wifi.RxBuffer, "+MQTTSUBRECV");
 6762              		.loc 1 1372 13 is_stmt 1 view .LVU1484
1372:Core/Src/esp32.c ****             char *str = strstr((char *)Wifi.RxBuffer, "+MQTTSUBRECV");
 6763              		.loc 1 1372 25 is_stmt 0 view .LVU1485
 6764 0046 0849     		ldr	r1, .L455+4
 6765 0048 0848     		ldr	r0, .L455+8
 6766 004a FFF7FEFF 		bl	strstr
 6767              	.LVL516:
1373:Core/Src/esp32.c ****             if (sscanf(str, "+MQTTSUBRECV:0,\"%[^\"]\",%u,%[^\r]", Message->topic, &Message->length
 6768              		.loc 1 1373 13 is_stmt 1 view .LVU1486
1373:Core/Src/esp32.c ****             if (sscanf(str, "+MQTTSUBRECV:0,\"%[^\"]\",%u,%[^\r]", Message->topic, &Message->length
 6769              		.loc 1 1373 17 is_stmt 0 view .LVU1487
 6770 004e 0096     		str	r6, [sp]
 6771 0050 04F59063 		add	r3, r4, #1152
 6772 0054 2246     		mov	r2, r4
 6773 0056 0649     		ldr	r1, .L455+12
 6774 0058 FFF7FEFF 		bl	sscanf
 6775              	.LVL517:
1373:Core/Src/esp32.c ****             if (sscanf(str, "+MQTTSUBRECV:0,\"%[^\"]\",%u,%[^\r]", Message->topic, &Message->length
 6776              		.loc 1 1373 16 view .LVU1488
 6777 005c 0028     		cmp	r0, #0
 6778 005e E1D1     		bne	.L452
 6779              	.LBE27:
1359:Core/Src/esp32.c ****     bool returnVal = false;
 6780              		.loc 1 1359 10 view .LVU1489
 6781 0060 0025     		movs	r5, #0
 6782 0062 DFE7     		b	.L452
 6783              	.L456:
 6784              		.align	2
 6785              	.L455:
 6786 0064 00000000 		.word	char_irq_recv
 6787 0068 00000000 		.word	.LC86
 6788 006c 01000000 		.word	.LANCHOR0+1
 6789 0070 10000000 		.word	.LC87
 6790              		.cfi_endproc
 6791              	.LFE1213:
 6793              		.global	SNTP
 6794              		.global	MQTT
 6795              		.global	Wifi
 6796              		.section	.bss.MQTT,"aw",%nobits
 6797              		.align	2
 6798              		.set	.LANCHOR2,. + 0
ARM GAS  /var/folders/9y/n02fl3g16gnf7ppy14xghdy80000gn/T//ccoB4Sfq.s 			page 160


 6801              	MQTT:
 6802 0000 00000000 		.space	552
 6802      00000000 
 6802      00000000 
 6802      00000000 
 6802      00000000 
 6803              		.section	.bss.SNTP,"aw",%nobits
 6804              		.align	2
 6805              		.set	.LANCHOR1,. + 0
 6808              	SNTP:
 6809 0000 00000000 		.space	32
 6809      00000000 
 6809      00000000 
 6809      00000000 
 6809      00000000 
 6810              		.section	.bss.Wifi,"aw",%nobits
 6811              		.align	2
 6812              		.set	.LANCHOR0,. + 0
 6815              	Wifi:
 6816 0000 00000000 		.space	1970
 6816      00000000 
 6816      00000000 
 6816      00000000 
 6816      00000000 
 6817              		.text
 6818              	.Letext0:
 6819              		.file 2 "/opt/homebrew/Cellar/arm-none-eabi-gcc/10.3-2021.07/gcc/arm-none-eabi/include/machine/_de
 6820              		.file 3 "/opt/homebrew/Cellar/arm-none-eabi-gcc/10.3-2021.07/gcc/arm-none-eabi/include/sys/_stdint
 6821              		.file 4 "/opt/homebrew/Cellar/arm-none-eabi-gcc/10.3-2021.07/gcc/lib/gcc/arm-none-eabi/10.3.1/incl
 6822              		.file 5 "/opt/homebrew/Cellar/arm-none-eabi-gcc/10.3-2021.07/gcc/lib/gcc/arm-none-eabi/10.3.1/incl
 6823              		.file 6 "/opt/homebrew/Cellar/arm-none-eabi-gcc/10.3-2021.07/gcc/arm-none-eabi/include/stdio.h"
 6824              		.file 7 "Core/Inc/esp32.h"
 6825              		.file 8 "Core/Inc/usart.h"
 6826              		.file 9 "Drivers/STM32L4xx_HAL_Driver/Inc/stm32l4xx_ll_dma.h"
 6827              		.file 10 "/opt/homebrew/Cellar/arm-none-eabi-gcc/10.3-2021.07/gcc/arm-none-eabi/include/string.h"
 6828              		.file 11 "/opt/homebrew/Cellar/arm-none-eabi-gcc/10.3-2021.07/gcc/arm-none-eabi/include/stdlib.h"
 6829              		.file 12 "<built-in>"
 6830              		.file 13 "Core/Inc/dwt_system.h"
ARM GAS  /var/folders/9y/n02fl3g16gnf7ppy14xghdy80000gn/T//ccoB4Sfq.s 			page 161


DEFINED SYMBOLS
                            *ABS*:0000000000000000 esp32.c
/var/folders/9y/n02fl3g16gnf7ppy14xghdy80000gn/T//ccoB4Sfq.s:18     .text.Wifi_SendRaw:0000000000000000 $t
/var/folders/9y/n02fl3g16gnf7ppy14xghdy80000gn/T//ccoB4Sfq.s:26     .text.Wifi_SendRaw:0000000000000000 Wifi_SendRaw
/var/folders/9y/n02fl3g16gnf7ppy14xghdy80000gn/T//ccoB4Sfq.s:79     .text.Wifi_SendRaw:0000000000000028 $d
/var/folders/9y/n02fl3g16gnf7ppy14xghdy80000gn/T//ccoB4Sfq.s:84     .text.Wifi_SendString:0000000000000000 $t
/var/folders/9y/n02fl3g16gnf7ppy14xghdy80000gn/T//ccoB4Sfq.s:91     .text.Wifi_SendString:0000000000000000 Wifi_SendString
/var/folders/9y/n02fl3g16gnf7ppy14xghdy80000gn/T//ccoB4Sfq.s:120    .text.Wifi_SendStringAndWait:0000000000000000 $t
/var/folders/9y/n02fl3g16gnf7ppy14xghdy80000gn/T//ccoB4Sfq.s:127    .text.Wifi_SendStringAndWait:0000000000000000 Wifi_SendStringAndWait
/var/folders/9y/n02fl3g16gnf7ppy14xghdy80000gn/T//ccoB4Sfq.s:173    .text.Wifi_WaitForString:0000000000000000 $t
/var/folders/9y/n02fl3g16gnf7ppy14xghdy80000gn/T//ccoB4Sfq.s:180    .text.Wifi_WaitForString:0000000000000000 Wifi_WaitForString
/var/folders/9y/n02fl3g16gnf7ppy14xghdy80000gn/T//ccoB4Sfq.s:372    .text.Wifi_WaitForString:0000000000000094 $d
/var/folders/9y/n02fl3g16gnf7ppy14xghdy80000gn/T//ccoB4Sfq.s:377    .text.Wifi_ReturnString:0000000000000000 $t
/var/folders/9y/n02fl3g16gnf7ppy14xghdy80000gn/T//ccoB4Sfq.s:384    .text.Wifi_ReturnString:0000000000000000 Wifi_ReturnString
/var/folders/9y/n02fl3g16gnf7ppy14xghdy80000gn/T//ccoB4Sfq.s:502    .text.Wifi_ReturnString:000000000000004c $d
/var/folders/9y/n02fl3g16gnf7ppy14xghdy80000gn/T//ccoB4Sfq.s:507    .text.Wifi_ReturnStrings:0000000000000000 $t
/var/folders/9y/n02fl3g16gnf7ppy14xghdy80000gn/T//ccoB4Sfq.s:514    .text.Wifi_ReturnStrings:0000000000000000 Wifi_ReturnStrings
/var/folders/9y/n02fl3g16gnf7ppy14xghdy80000gn/T//ccoB4Sfq.s:695    .text.Wifi_ReturnInteger:0000000000000000 $t
/var/folders/9y/n02fl3g16gnf7ppy14xghdy80000gn/T//ccoB4Sfq.s:702    .text.Wifi_ReturnInteger:0000000000000000 Wifi_ReturnInteger
/var/folders/9y/n02fl3g16gnf7ppy14xghdy80000gn/T//ccoB4Sfq.s:747    .text.Wifi_ReturnInteger:000000000000001c $d
/var/folders/9y/n02fl3g16gnf7ppy14xghdy80000gn/T//ccoB4Sfq.s:753    .text.Wifi_ReturnFloat:0000000000000000 $t
/var/folders/9y/n02fl3g16gnf7ppy14xghdy80000gn/T//ccoB4Sfq.s:760    .text.Wifi_ReturnFloat:0000000000000000 Wifi_ReturnFloat
/var/folders/9y/n02fl3g16gnf7ppy14xghdy80000gn/T//ccoB4Sfq.s:808    .text.Wifi_ReturnFloat:0000000000000024 $d
/var/folders/9y/n02fl3g16gnf7ppy14xghdy80000gn/T//ccoB4Sfq.s:813    .text.Wifi_RemoveChar:0000000000000000 $t
/var/folders/9y/n02fl3g16gnf7ppy14xghdy80000gn/T//ccoB4Sfq.s:820    .text.Wifi_RemoveChar:0000000000000000 Wifi_RemoveChar
/var/folders/9y/n02fl3g16gnf7ppy14xghdy80000gn/T//ccoB4Sfq.s:868    .text.Wifi_RxClear:0000000000000000 $t
/var/folders/9y/n02fl3g16gnf7ppy14xghdy80000gn/T//ccoB4Sfq.s:875    .text.Wifi_RxClear:0000000000000000 Wifi_RxClear
/var/folders/9y/n02fl3g16gnf7ppy14xghdy80000gn/T//ccoB4Sfq.s:904    .text.Wifi_RxClear:000000000000001c $d
/var/folders/9y/n02fl3g16gnf7ppy14xghdy80000gn/T//ccoB4Sfq.s:909    .text.Wifi_TxClear:0000000000000000 $t
/var/folders/9y/n02fl3g16gnf7ppy14xghdy80000gn/T//ccoB4Sfq.s:916    .text.Wifi_TxClear:0000000000000000 Wifi_TxClear
/var/folders/9y/n02fl3g16gnf7ppy14xghdy80000gn/T//ccoB4Sfq.s:937    .text.Wifi_TxClear:0000000000000010 $d
/var/folders/9y/n02fl3g16gnf7ppy14xghdy80000gn/T//ccoB4Sfq.s:942    .text.Wifi_RxCallBack:0000000000000000 $t
/var/folders/9y/n02fl3g16gnf7ppy14xghdy80000gn/T//ccoB4Sfq.s:949    .text.Wifi_RxCallBack:0000000000000000 Wifi_RxCallBack
/var/folders/9y/n02fl3g16gnf7ppy14xghdy80000gn/T//ccoB4Sfq.s:986    .text.Wifi_RxCallBack:0000000000000024 $d
/var/folders/9y/n02fl3g16gnf7ppy14xghdy80000gn/T//ccoB4Sfq.s:991    .rodata.Wifi_Init.str1.4:0000000000000000 $d
/var/folders/9y/n02fl3g16gnf7ppy14xghdy80000gn/T//ccoB4Sfq.s:1001   .text.Wifi_Init:0000000000000000 $t
/var/folders/9y/n02fl3g16gnf7ppy14xghdy80000gn/T//ccoB4Sfq.s:1008   .text.Wifi_Init:0000000000000000 Wifi_Init
/var/folders/9y/n02fl3g16gnf7ppy14xghdy80000gn/T//ccoB4Sfq.s:1088   .text.Wifi_Init:000000000000004c $d
/var/folders/9y/n02fl3g16gnf7ppy14xghdy80000gn/T//ccoB4Sfq.s:1095   .rodata.Wifi_Restart.str1.4:0000000000000000 $d
/var/folders/9y/n02fl3g16gnf7ppy14xghdy80000gn/T//ccoB4Sfq.s:1099   .text.Wifi_Restart:0000000000000000 $t
/var/folders/9y/n02fl3g16gnf7ppy14xghdy80000gn/T//ccoB4Sfq.s:1106   .text.Wifi_Restart:0000000000000000 Wifi_Restart
/var/folders/9y/n02fl3g16gnf7ppy14xghdy80000gn/T//ccoB4Sfq.s:1178   .text.Wifi_Restart:0000000000000054 $d
/var/folders/9y/n02fl3g16gnf7ppy14xghdy80000gn/T//ccoB4Sfq.s:1186   .rodata.Wifi_DeepSleep.str1.4:0000000000000000 $d
/var/folders/9y/n02fl3g16gnf7ppy14xghdy80000gn/T//ccoB4Sfq.s:1190   .text.Wifi_DeepSleep:0000000000000000 $t
/var/folders/9y/n02fl3g16gnf7ppy14xghdy80000gn/T//ccoB4Sfq.s:1197   .text.Wifi_DeepSleep:0000000000000000 Wifi_DeepSleep
/var/folders/9y/n02fl3g16gnf7ppy14xghdy80000gn/T//ccoB4Sfq.s:1272   .text.Wifi_DeepSleep:0000000000000048 $d
/var/folders/9y/n02fl3g16gnf7ppy14xghdy80000gn/T//ccoB4Sfq.s:1280   .rodata.Wifi_FactoryReset.str1.4:0000000000000000 $d
/var/folders/9y/n02fl3g16gnf7ppy14xghdy80000gn/T//ccoB4Sfq.s:1284   .text.Wifi_FactoryReset:0000000000000000 $t
/var/folders/9y/n02fl3g16gnf7ppy14xghdy80000gn/T//ccoB4Sfq.s:1291   .text.Wifi_FactoryReset:0000000000000000 Wifi_FactoryReset
/var/folders/9y/n02fl3g16gnf7ppy14xghdy80000gn/T//ccoB4Sfq.s:1365   .text.Wifi_FactoryReset:0000000000000054 $d
/var/folders/9y/n02fl3g16gnf7ppy14xghdy80000gn/T//ccoB4Sfq.s:1373   .rodata.Wifi_Update.str1.4:0000000000000000 $d
/var/folders/9y/n02fl3g16gnf7ppy14xghdy80000gn/T//ccoB4Sfq.s:1377   .text.Wifi_Update:0000000000000000 $t
/var/folders/9y/n02fl3g16gnf7ppy14xghdy80000gn/T//ccoB4Sfq.s:1384   .text.Wifi_Update:0000000000000000 Wifi_Update
/var/folders/9y/n02fl3g16gnf7ppy14xghdy80000gn/T//ccoB4Sfq.s:1457   .text.Wifi_Update:0000000000000050 $d
/var/folders/9y/n02fl3g16gnf7ppy14xghdy80000gn/T//ccoB4Sfq.s:1466   .rodata.Wifi_SetRfPower.str1.4:0000000000000000 $d
/var/folders/9y/n02fl3g16gnf7ppy14xghdy80000gn/T//ccoB4Sfq.s:1470   .text.Wifi_SetRfPower:0000000000000000 $t
/var/folders/9y/n02fl3g16gnf7ppy14xghdy80000gn/T//ccoB4Sfq.s:1477   .text.Wifi_SetRfPower:0000000000000000 Wifi_SetRfPower
ARM GAS  /var/folders/9y/n02fl3g16gnf7ppy14xghdy80000gn/T//ccoB4Sfq.s 			page 162


/var/folders/9y/n02fl3g16gnf7ppy14xghdy80000gn/T//ccoB4Sfq.s:1552   .text.Wifi_SetRfPower:0000000000000048 $d
/var/folders/9y/n02fl3g16gnf7ppy14xghdy80000gn/T//ccoB4Sfq.s:1560   .rodata.Wifi_SetMode.str1.4:0000000000000000 $d
/var/folders/9y/n02fl3g16gnf7ppy14xghdy80000gn/T//ccoB4Sfq.s:1564   .text.Wifi_SetMode:0000000000000000 $t
/var/folders/9y/n02fl3g16gnf7ppy14xghdy80000gn/T//ccoB4Sfq.s:1571   .text.Wifi_SetMode:0000000000000000 Wifi_SetMode
/var/folders/9y/n02fl3g16gnf7ppy14xghdy80000gn/T//ccoB4Sfq.s:1656   .text.Wifi_SetMode:0000000000000050 $d
/var/folders/9y/n02fl3g16gnf7ppy14xghdy80000gn/T//ccoB4Sfq.s:1664   .rodata.Wifi_GetMode.str1.4:0000000000000000 $d
/var/folders/9y/n02fl3g16gnf7ppy14xghdy80000gn/T//ccoB4Sfq.s:1671   .text.Wifi_GetMode:0000000000000000 $t
/var/folders/9y/n02fl3g16gnf7ppy14xghdy80000gn/T//ccoB4Sfq.s:1678   .text.Wifi_GetMode:0000000000000000 Wifi_GetMode
/var/folders/9y/n02fl3g16gnf7ppy14xghdy80000gn/T//ccoB4Sfq.s:1780   .text.Wifi_GetMode:0000000000000080 $d
/var/folders/9y/n02fl3g16gnf7ppy14xghdy80000gn/T//ccoB4Sfq.s:1789   .rodata.Wifi_GetMyIp.str1.4:0000000000000000 $d
/var/folders/9y/n02fl3g16gnf7ppy14xghdy80000gn/T//ccoB4Sfq.s:1799   .text.Wifi_GetMyIp:0000000000000000 $t
/var/folders/9y/n02fl3g16gnf7ppy14xghdy80000gn/T//ccoB4Sfq.s:1806   .text.Wifi_GetMyIp:0000000000000000 Wifi_GetMyIp
/var/folders/9y/n02fl3g16gnf7ppy14xghdy80000gn/T//ccoB4Sfq.s:1905   .text.Wifi_GetMyIp:000000000000007c $d
/var/folders/9y/n02fl3g16gnf7ppy14xghdy80000gn/T//ccoB4Sfq.s:1915   .rodata.Wifi_Station_ConnectToAp.str1.4:0000000000000000 $d
/var/folders/9y/n02fl3g16gnf7ppy14xghdy80000gn/T//ccoB4Sfq.s:1931   .text.Wifi_Station_ConnectToAp:0000000000000000 $t
/var/folders/9y/n02fl3g16gnf7ppy14xghdy80000gn/T//ccoB4Sfq.s:1938   .text.Wifi_Station_ConnectToAp:0000000000000000 Wifi_Station_ConnectToAp
/var/folders/9y/n02fl3g16gnf7ppy14xghdy80000gn/T//ccoB4Sfq.s:2032   .text.Wifi_Station_ConnectToAp:0000000000000060 $d
/var/folders/9y/n02fl3g16gnf7ppy14xghdy80000gn/T//ccoB4Sfq.s:2042   .rodata.Wifi_Station_Disconnect.str1.4:0000000000000000 $d
/var/folders/9y/n02fl3g16gnf7ppy14xghdy80000gn/T//ccoB4Sfq.s:2046   .text.Wifi_Station_Disconnect:0000000000000000 $t
/var/folders/9y/n02fl3g16gnf7ppy14xghdy80000gn/T//ccoB4Sfq.s:2053   .text.Wifi_Station_Disconnect:0000000000000000 Wifi_Station_Disconnect
/var/folders/9y/n02fl3g16gnf7ppy14xghdy80000gn/T//ccoB4Sfq.s:2127   .text.Wifi_Station_Disconnect:0000000000000058 $d
/var/folders/9y/n02fl3g16gnf7ppy14xghdy80000gn/T//ccoB4Sfq.s:2135   .rodata.Wifi_Station_SetIp.str1.4:0000000000000000 $d
/var/folders/9y/n02fl3g16gnf7ppy14xghdy80000gn/T//ccoB4Sfq.s:2139   .text.Wifi_Station_SetIp:0000000000000000 $t
/var/folders/9y/n02fl3g16gnf7ppy14xghdy80000gn/T//ccoB4Sfq.s:2146   .text.Wifi_Station_SetIp:0000000000000000 Wifi_Station_SetIp
/var/folders/9y/n02fl3g16gnf7ppy14xghdy80000gn/T//ccoB4Sfq.s:2238   .text.Wifi_Station_SetIp:000000000000005c $d
/var/folders/9y/n02fl3g16gnf7ppy14xghdy80000gn/T//ccoB4Sfq.s:2246   .rodata.Wifi_Station_DhcpEnable.str1.4:0000000000000000 $d
/var/folders/9y/n02fl3g16gnf7ppy14xghdy80000gn/T//ccoB4Sfq.s:2250   .text.Wifi_Station_DhcpEnable:0000000000000000 $t
/var/folders/9y/n02fl3g16gnf7ppy14xghdy80000gn/T//ccoB4Sfq.s:2257   .text.Wifi_Station_DhcpEnable:0000000000000000 Wifi_Station_DhcpEnable
/var/folders/9y/n02fl3g16gnf7ppy14xghdy80000gn/T//ccoB4Sfq.s:2342   .text.Wifi_Station_DhcpEnable:0000000000000050 $d
/var/folders/9y/n02fl3g16gnf7ppy14xghdy80000gn/T//ccoB4Sfq.s:2350   .rodata.Wifi_Station_DhcpIsEnable.str1.4:0000000000000000 $d
/var/folders/9y/n02fl3g16gnf7ppy14xghdy80000gn/T//ccoB4Sfq.s:2354   .text.Wifi_Station_DhcpIsEnable:0000000000000000 $t
/var/folders/9y/n02fl3g16gnf7ppy14xghdy80000gn/T//ccoB4Sfq.s:2361   .text.Wifi_Station_DhcpIsEnable:0000000000000000 Wifi_Station_DhcpIsEnable
/var/folders/9y/n02fl3g16gnf7ppy14xghdy80000gn/T//ccoB4Sfq.s:2449   .text.Wifi_Station_DhcpIsEnable:0000000000000070 $d
/var/folders/9y/n02fl3g16gnf7ppy14xghdy80000gn/T//ccoB4Sfq.s:2453   .text.Wifi_Station_DhcpIsEnable:0000000000000074 $t
/var/folders/9y/n02fl3g16gnf7ppy14xghdy80000gn/T//ccoB4Sfq.s:2503   .text.Wifi_Station_DhcpIsEnable:00000000000000b0 $d
/var/folders/9y/n02fl3g16gnf7ppy14xghdy80000gn/T//ccoB4Sfq.s:2512   .rodata.Wifi_SoftAp_Create.str1.4:0000000000000000 $d
/var/folders/9y/n02fl3g16gnf7ppy14xghdy80000gn/T//ccoB4Sfq.s:2516   .text.Wifi_SoftAp_Create:0000000000000000 $t
/var/folders/9y/n02fl3g16gnf7ppy14xghdy80000gn/T//ccoB4Sfq.s:2523   .text.Wifi_SoftAp_Create:0000000000000000 Wifi_SoftAp_Create
/var/folders/9y/n02fl3g16gnf7ppy14xghdy80000gn/T//ccoB4Sfq.s:2611   .text.Wifi_SoftAp_Create:0000000000000064 $d
/var/folders/9y/n02fl3g16gnf7ppy14xghdy80000gn/T//ccoB4Sfq.s:2619   .rodata.Wifi_GetApConnection.str1.4:0000000000000000 $d
/var/folders/9y/n02fl3g16gnf7ppy14xghdy80000gn/T//ccoB4Sfq.s:2629   .text.Wifi_GetApConnection:0000000000000000 $t
/var/folders/9y/n02fl3g16gnf7ppy14xghdy80000gn/T//ccoB4Sfq.s:2636   .text.Wifi_GetApConnection:0000000000000000 Wifi_GetApConnection
/var/folders/9y/n02fl3g16gnf7ppy14xghdy80000gn/T//ccoB4Sfq.s:2796   .text.Wifi_GetApConnection:00000000000000ac $d
/var/folders/9y/n02fl3g16gnf7ppy14xghdy80000gn/T//ccoB4Sfq.s:2807   .rodata.Wifi_SoftAp_GetConnectedDevices.str1.4:0000000000000000 $d
/var/folders/9y/n02fl3g16gnf7ppy14xghdy80000gn/T//ccoB4Sfq.s:2814   .text.Wifi_SoftAp_GetConnectedDevices:0000000000000000 $t
/var/folders/9y/n02fl3g16gnf7ppy14xghdy80000gn/T//ccoB4Sfq.s:2821   .text.Wifi_SoftAp_GetConnectedDevices:0000000000000000 Wifi_SoftAp_GetConnectedDevices
/var/folders/9y/n02fl3g16gnf7ppy14xghdy80000gn/T//ccoB4Sfq.s:2993   .text.Wifi_SoftAp_GetConnectedDevices:0000000000000100 $d
/var/folders/9y/n02fl3g16gnf7ppy14xghdy80000gn/T//ccoB4Sfq.s:3003   .rodata.Wifi_TcpIp_GetConnectionStatus.str1.4:0000000000000000 $d
/var/folders/9y/n02fl3g16gnf7ppy14xghdy80000gn/T//ccoB4Sfq.s:3016   .text.Wifi_TcpIp_GetConnectionStatus:0000000000000000 $t
/var/folders/9y/n02fl3g16gnf7ppy14xghdy80000gn/T//ccoB4Sfq.s:3023   .text.Wifi_TcpIp_GetConnectionStatus:0000000000000000 Wifi_TcpIp_GetConnectionStatus
/var/folders/9y/n02fl3g16gnf7ppy14xghdy80000gn/T//ccoB4Sfq.s:3248   .text.Wifi_TcpIp_GetConnectionStatus:0000000000000104 $d
/var/folders/9y/n02fl3g16gnf7ppy14xghdy80000gn/T//ccoB4Sfq.s:3260   .rodata.Wifi_TcpIp_Ping.str1.4:0000000000000000 $d
/var/folders/9y/n02fl3g16gnf7ppy14xghdy80000gn/T//ccoB4Sfq.s:3267   .text.Wifi_TcpIp_Ping:0000000000000000 $t
/var/folders/9y/n02fl3g16gnf7ppy14xghdy80000gn/T//ccoB4Sfq.s:3274   .text.Wifi_TcpIp_Ping:0000000000000000 Wifi_TcpIp_Ping
/var/folders/9y/n02fl3g16gnf7ppy14xghdy80000gn/T//ccoB4Sfq.s:3358   .text.Wifi_TcpIp_Ping:0000000000000054 $d
/var/folders/9y/n02fl3g16gnf7ppy14xghdy80000gn/T//ccoB4Sfq.s:3367   .rodata.Wifi_TcpIp_SetMultiConnection.str1.4:0000000000000000 $d
/var/folders/9y/n02fl3g16gnf7ppy14xghdy80000gn/T//ccoB4Sfq.s:3371   .text.Wifi_TcpIp_SetMultiConnection:0000000000000000 $t
ARM GAS  /var/folders/9y/n02fl3g16gnf7ppy14xghdy80000gn/T//ccoB4Sfq.s 			page 163


/var/folders/9y/n02fl3g16gnf7ppy14xghdy80000gn/T//ccoB4Sfq.s:3378   .text.Wifi_TcpIp_SetMultiConnection:0000000000000000 Wifi_TcpIp_SetMultiConnection
/var/folders/9y/n02fl3g16gnf7ppy14xghdy80000gn/T//ccoB4Sfq.s:3463   .text.Wifi_TcpIp_SetMultiConnection:0000000000000050 $d
/var/folders/9y/n02fl3g16gnf7ppy14xghdy80000gn/T//ccoB4Sfq.s:3471   .rodata.Wifi_TcpIp_GetMultiConnection.str1.4:0000000000000000 $d
/var/folders/9y/n02fl3g16gnf7ppy14xghdy80000gn/T//ccoB4Sfq.s:3475   .text.Wifi_TcpIp_GetMultiConnection:0000000000000000 $t
/var/folders/9y/n02fl3g16gnf7ppy14xghdy80000gn/T//ccoB4Sfq.s:3482   .text.Wifi_TcpIp_GetMultiConnection:0000000000000000 Wifi_TcpIp_GetMultiConnection
/var/folders/9y/n02fl3g16gnf7ppy14xghdy80000gn/T//ccoB4Sfq.s:3579   .text.Wifi_TcpIp_GetMultiConnection:0000000000000074 $d
/var/folders/9y/n02fl3g16gnf7ppy14xghdy80000gn/T//ccoB4Sfq.s:3588   .rodata.Wifi_TcpIp_StartTcpConnection.str1.4:0000000000000000 $d
/var/folders/9y/n02fl3g16gnf7ppy14xghdy80000gn/T//ccoB4Sfq.s:3601   .text.Wifi_TcpIp_StartTcpConnection:0000000000000000 $t
/var/folders/9y/n02fl3g16gnf7ppy14xghdy80000gn/T//ccoB4Sfq.s:3608   .text.Wifi_TcpIp_StartTcpConnection:0000000000000000 Wifi_TcpIp_StartTcpConnection
/var/folders/9y/n02fl3g16gnf7ppy14xghdy80000gn/T//ccoB4Sfq.s:3760   .text.Wifi_TcpIp_StartTcpConnection:00000000000000c0 $d
/var/folders/9y/n02fl3g16gnf7ppy14xghdy80000gn/T//ccoB4Sfq.s:3772   .rodata.Wifi_TcpIp_StartUdpConnection.str1.4:0000000000000000 $d
/var/folders/9y/n02fl3g16gnf7ppy14xghdy80000gn/T//ccoB4Sfq.s:3782   .text.Wifi_TcpIp_StartUdpConnection:0000000000000000 $t
/var/folders/9y/n02fl3g16gnf7ppy14xghdy80000gn/T//ccoB4Sfq.s:3789   .text.Wifi_TcpIp_StartUdpConnection:0000000000000000 Wifi_TcpIp_StartUdpConnection
/var/folders/9y/n02fl3g16gnf7ppy14xghdy80000gn/T//ccoB4Sfq.s:3890   .text.Wifi_TcpIp_StartUdpConnection:000000000000006c $d
/var/folders/9y/n02fl3g16gnf7ppy14xghdy80000gn/T//ccoB4Sfq.s:3901   .rodata.Wifi_TcpIp_Close.str1.4:0000000000000000 $d
/var/folders/9y/n02fl3g16gnf7ppy14xghdy80000gn/T//ccoB4Sfq.s:3908   .text.Wifi_TcpIp_Close:0000000000000000 $t
/var/folders/9y/n02fl3g16gnf7ppy14xghdy80000gn/T//ccoB4Sfq.s:3915   .text.Wifi_TcpIp_Close:0000000000000000 Wifi_TcpIp_Close
/var/folders/9y/n02fl3g16gnf7ppy14xghdy80000gn/T//ccoB4Sfq.s:4006   .text.Wifi_TcpIp_Close:0000000000000068 $d
/var/folders/9y/n02fl3g16gnf7ppy14xghdy80000gn/T//ccoB4Sfq.s:4016   .rodata.Wifi_TcpIp_SetEnableTcpServer.str1.4:0000000000000000 $d
/var/folders/9y/n02fl3g16gnf7ppy14xghdy80000gn/T//ccoB4Sfq.s:4020   .text.Wifi_TcpIp_SetEnableTcpServer:0000000000000000 $t
/var/folders/9y/n02fl3g16gnf7ppy14xghdy80000gn/T//ccoB4Sfq.s:4027   .text.Wifi_TcpIp_SetEnableTcpServer:0000000000000000 Wifi_TcpIp_SetEnableTcpServer
/var/folders/9y/n02fl3g16gnf7ppy14xghdy80000gn/T//ccoB4Sfq.s:4160   .text.Wifi_TcpIp_SetEnableTcpServer:00000000000000a8 $d
/var/folders/9y/n02fl3g16gnf7ppy14xghdy80000gn/T//ccoB4Sfq.s:4170   .rodata.Wifi_TcpIp_SetDisableTcpServer.str1.4:0000000000000000 $d
/var/folders/9y/n02fl3g16gnf7ppy14xghdy80000gn/T//ccoB4Sfq.s:4174   .text.Wifi_TcpIp_SetDisableTcpServer:0000000000000000 $t
/var/folders/9y/n02fl3g16gnf7ppy14xghdy80000gn/T//ccoB4Sfq.s:4181   .text.Wifi_TcpIp_SetDisableTcpServer:0000000000000000 Wifi_TcpIp_SetDisableTcpServer
/var/folders/9y/n02fl3g16gnf7ppy14xghdy80000gn/T//ccoB4Sfq.s:4256   .text.Wifi_TcpIp_SetDisableTcpServer:0000000000000048 $d
/var/folders/9y/n02fl3g16gnf7ppy14xghdy80000gn/T//ccoB4Sfq.s:4264   .rodata.Wifi_TcpIp_SendDataUdp.str1.4:0000000000000000 $d
/var/folders/9y/n02fl3g16gnf7ppy14xghdy80000gn/T//ccoB4Sfq.s:4274   .text.Wifi_TcpIp_SendDataUdp:0000000000000000 $t
/var/folders/9y/n02fl3g16gnf7ppy14xghdy80000gn/T//ccoB4Sfq.s:4281   .text.Wifi_TcpIp_SendDataUdp:0000000000000000 Wifi_TcpIp_SendDataUdp
/var/folders/9y/n02fl3g16gnf7ppy14xghdy80000gn/T//ccoB4Sfq.s:4405   .text.Wifi_TcpIp_SendDataUdp:0000000000000090 $d
/var/folders/9y/n02fl3g16gnf7ppy14xghdy80000gn/T//ccoB4Sfq.s:4416   .rodata.Wifi_TcpIp_SendDataTcp.str1.4:0000000000000000 $d
/var/folders/9y/n02fl3g16gnf7ppy14xghdy80000gn/T//ccoB4Sfq.s:4426   .text.Wifi_TcpIp_SendDataTcp:0000000000000000 $t
/var/folders/9y/n02fl3g16gnf7ppy14xghdy80000gn/T//ccoB4Sfq.s:4433   .text.Wifi_TcpIp_SendDataTcp:0000000000000000 Wifi_TcpIp_SendDataTcp
/var/folders/9y/n02fl3g16gnf7ppy14xghdy80000gn/T//ccoB4Sfq.s:4561   .text.Wifi_TcpIp_SendDataTcp:000000000000009c $d
/var/folders/9y/n02fl3g16gnf7ppy14xghdy80000gn/T//ccoB4Sfq.s:4573   .rodata.SNTP_SetTimeZone.str1.4:0000000000000000 $d
/var/folders/9y/n02fl3g16gnf7ppy14xghdy80000gn/T//ccoB4Sfq.s:4586   .text.SNTP_SetTimeZone:0000000000000000 $t
/var/folders/9y/n02fl3g16gnf7ppy14xghdy80000gn/T//ccoB4Sfq.s:4593   .text.SNTP_SetTimeZone:0000000000000000 SNTP_SetTimeZone
/var/folders/9y/n02fl3g16gnf7ppy14xghdy80000gn/T//ccoB4Sfq.s:4743   .text.SNTP_SetTimeZone:00000000000000b0 $d
/var/folders/9y/n02fl3g16gnf7ppy14xghdy80000gn/T//ccoB4Sfq.s:4756   .rodata.SNTP_QueryTime.str1.4:0000000000000000 $d
/var/folders/9y/n02fl3g16gnf7ppy14xghdy80000gn/T//ccoB4Sfq.s:4766   .text.SNTP_QueryTime:0000000000000000 $t
/var/folders/9y/n02fl3g16gnf7ppy14xghdy80000gn/T//ccoB4Sfq.s:4773   .text.SNTP_QueryTime:0000000000000000 SNTP_QueryTime
/var/folders/9y/n02fl3g16gnf7ppy14xghdy80000gn/T//ccoB4Sfq.s:4884   .text.SNTP_QueryTime:0000000000000094 $d
/var/folders/9y/n02fl3g16gnf7ppy14xghdy80000gn/T//ccoB4Sfq.s:4896   .rodata.SNTP_Init.str1.4:0000000000000000 $d
/var/folders/9y/n02fl3g16gnf7ppy14xghdy80000gn/T//ccoB4Sfq.s:4900   .text.SNTP_Init:0000000000000000 $t
/var/folders/9y/n02fl3g16gnf7ppy14xghdy80000gn/T//ccoB4Sfq.s:4907   .text.SNTP_Init:0000000000000000 SNTP_Init
/var/folders/9y/n02fl3g16gnf7ppy14xghdy80000gn/T//ccoB4Sfq.s:4959   .text.SNTP_Init:0000000000000030 $d
/var/folders/9y/n02fl3g16gnf7ppy14xghdy80000gn/T//ccoB4Sfq.s:4965   .rodata.MQTT_SetUserConfig.str1.4:0000000000000000 $d
/var/folders/9y/n02fl3g16gnf7ppy14xghdy80000gn/T//ccoB4Sfq.s:4970   .text.MQTT_SetUserConfig:0000000000000000 $t
/var/folders/9y/n02fl3g16gnf7ppy14xghdy80000gn/T//ccoB4Sfq.s:4977   .text.MQTT_SetUserConfig:0000000000000000 MQTT_SetUserConfig
/var/folders/9y/n02fl3g16gnf7ppy14xghdy80000gn/T//ccoB4Sfq.s:5059   .text.MQTT_SetUserConfig:0000000000000060 $d
/var/folders/9y/n02fl3g16gnf7ppy14xghdy80000gn/T//ccoB4Sfq.s:5068   .rodata.MQTT_SetClientID.str1.4:0000000000000000 $d
/var/folders/9y/n02fl3g16gnf7ppy14xghdy80000gn/T//ccoB4Sfq.s:5072   .text.MQTT_SetClientID:0000000000000000 $t
/var/folders/9y/n02fl3g16gnf7ppy14xghdy80000gn/T//ccoB4Sfq.s:5079   .text.MQTT_SetClientID:0000000000000000 MQTT_SetClientID
/var/folders/9y/n02fl3g16gnf7ppy14xghdy80000gn/T//ccoB4Sfq.s:5153   .text.MQTT_SetClientID:0000000000000048 $d
/var/folders/9y/n02fl3g16gnf7ppy14xghdy80000gn/T//ccoB4Sfq.s:5162   .rodata.MQTT_SetUsername.str1.4:0000000000000000 $d
/var/folders/9y/n02fl3g16gnf7ppy14xghdy80000gn/T//ccoB4Sfq.s:5166   .text.MQTT_SetUsername:0000000000000000 $t
/var/folders/9y/n02fl3g16gnf7ppy14xghdy80000gn/T//ccoB4Sfq.s:5173   .text.MQTT_SetUsername:0000000000000000 MQTT_SetUsername
ARM GAS  /var/folders/9y/n02fl3g16gnf7ppy14xghdy80000gn/T//ccoB4Sfq.s 			page 164


/var/folders/9y/n02fl3g16gnf7ppy14xghdy80000gn/T//ccoB4Sfq.s:5248   .text.MQTT_SetUsername:000000000000004c $d
/var/folders/9y/n02fl3g16gnf7ppy14xghdy80000gn/T//ccoB4Sfq.s:5257   .rodata.MQTT_SetPassword.str1.4:0000000000000000 $d
/var/folders/9y/n02fl3g16gnf7ppy14xghdy80000gn/T//ccoB4Sfq.s:5261   .text.MQTT_SetPassword:0000000000000000 $t
/var/folders/9y/n02fl3g16gnf7ppy14xghdy80000gn/T//ccoB4Sfq.s:5268   .text.MQTT_SetPassword:0000000000000000 MQTT_SetPassword
/var/folders/9y/n02fl3g16gnf7ppy14xghdy80000gn/T//ccoB4Sfq.s:5343   .text.MQTT_SetPassword:000000000000004c $d
/var/folders/9y/n02fl3g16gnf7ppy14xghdy80000gn/T//ccoB4Sfq.s:5352   .text.MQTT_SetConnectionConfig:0000000000000000 $t
/var/folders/9y/n02fl3g16gnf7ppy14xghdy80000gn/T//ccoB4Sfq.s:5359   .text.MQTT_SetConnectionConfig:0000000000000000 MQTT_SetConnectionConfig
/var/folders/9y/n02fl3g16gnf7ppy14xghdy80000gn/T//ccoB4Sfq.s:5434   .text.MQTT_SetConnectionConfig:000000000000004c $d
/var/folders/9y/n02fl3g16gnf7ppy14xghdy80000gn/T//ccoB4Sfq.s:5443   .rodata.MQTT_Connect.str1.4:0000000000000000 $d
/var/folders/9y/n02fl3g16gnf7ppy14xghdy80000gn/T//ccoB4Sfq.s:5450   .text.MQTT_Connect:0000000000000000 $t
/var/folders/9y/n02fl3g16gnf7ppy14xghdy80000gn/T//ccoB4Sfq.s:5457   .text.MQTT_Connect:0000000000000000 MQTT_Connect
/var/folders/9y/n02fl3g16gnf7ppy14xghdy80000gn/T//ccoB4Sfq.s:5562   .text.MQTT_Connect:000000000000007c $d
/var/folders/9y/n02fl3g16gnf7ppy14xghdy80000gn/T//ccoB4Sfq.s:5572   .rodata.MQTT_GetConnection.str1.4:0000000000000000 $d
/var/folders/9y/n02fl3g16gnf7ppy14xghdy80000gn/T//ccoB4Sfq.s:5582   .text.MQTT_GetConnection:0000000000000000 $t
/var/folders/9y/n02fl3g16gnf7ppy14xghdy80000gn/T//ccoB4Sfq.s:5589   .text.MQTT_GetConnection:0000000000000000 MQTT_GetConnection
/var/folders/9y/n02fl3g16gnf7ppy14xghdy80000gn/T//ccoB4Sfq.s:5722   .text.MQTT_GetConnection:00000000000000b0 $d
/var/folders/9y/n02fl3g16gnf7ppy14xghdy80000gn/T//ccoB4Sfq.s:5734   .rodata.MQTT_Init.str1.4:0000000000000000 $d
/var/folders/9y/n02fl3g16gnf7ppy14xghdy80000gn/T//ccoB4Sfq.s:5747   .text.MQTT_Init:0000000000000000 $t
/var/folders/9y/n02fl3g16gnf7ppy14xghdy80000gn/T//ccoB4Sfq.s:5754   .text.MQTT_Init:0000000000000000 MQTT_Init
/var/folders/9y/n02fl3g16gnf7ppy14xghdy80000gn/T//ccoB4Sfq.s:5854   .text.MQTT_Init:0000000000000090 $d
/var/folders/9y/n02fl3g16gnf7ppy14xghdy80000gn/T//ccoB4Sfq.s:5865   .rodata.MQTT_Publish.str1.4:0000000000000000 $d
/var/folders/9y/n02fl3g16gnf7ppy14xghdy80000gn/T//ccoB4Sfq.s:5869   .text.MQTT_Publish:0000000000000000 $t
/var/folders/9y/n02fl3g16gnf7ppy14xghdy80000gn/T//ccoB4Sfq.s:5876   .text.MQTT_Publish:0000000000000000 MQTT_Publish
/var/folders/9y/n02fl3g16gnf7ppy14xghdy80000gn/T//ccoB4Sfq.s:5961   .text.MQTT_Publish:000000000000005c $d
/var/folders/9y/n02fl3g16gnf7ppy14xghdy80000gn/T//ccoB4Sfq.s:5970   .rodata.MQTT_PublishRaw.str1.4:0000000000000000 $d
/var/folders/9y/n02fl3g16gnf7ppy14xghdy80000gn/T//ccoB4Sfq.s:5983   .text.MQTT_PublishRaw:0000000000000000 $t
/var/folders/9y/n02fl3g16gnf7ppy14xghdy80000gn/T//ccoB4Sfq.s:5990   .text.MQTT_PublishRaw:0000000000000000 MQTT_PublishRaw
/var/folders/9y/n02fl3g16gnf7ppy14xghdy80000gn/T//ccoB4Sfq.s:6128   .text.MQTT_PublishRaw:00000000000000a0 $d
/var/folders/9y/n02fl3g16gnf7ppy14xghdy80000gn/T//ccoB4Sfq.s:6139   .rodata.MQTT_Subscribe.str1.4:0000000000000000 $d
/var/folders/9y/n02fl3g16gnf7ppy14xghdy80000gn/T//ccoB4Sfq.s:6143   .text.MQTT_Subscribe:0000000000000000 $t
/var/folders/9y/n02fl3g16gnf7ppy14xghdy80000gn/T//ccoB4Sfq.s:6150   .text.MQTT_Subscribe:0000000000000000 MQTT_Subscribe
/var/folders/9y/n02fl3g16gnf7ppy14xghdy80000gn/T//ccoB4Sfq.s:6233   .text.MQTT_Subscribe:0000000000000058 $d
/var/folders/9y/n02fl3g16gnf7ppy14xghdy80000gn/T//ccoB4Sfq.s:6242   .rodata.MQTT_Unsubscribe.str1.4:0000000000000000 $d
/var/folders/9y/n02fl3g16gnf7ppy14xghdy80000gn/T//ccoB4Sfq.s:6246   .text.MQTT_Unsubscribe:0000000000000000 $t
/var/folders/9y/n02fl3g16gnf7ppy14xghdy80000gn/T//ccoB4Sfq.s:6253   .text.MQTT_Unsubscribe:0000000000000000 MQTT_Unsubscribe
/var/folders/9y/n02fl3g16gnf7ppy14xghdy80000gn/T//ccoB4Sfq.s:6336   .text.MQTT_Unsubscribe:0000000000000058 $d
/var/folders/9y/n02fl3g16gnf7ppy14xghdy80000gn/T//ccoB4Sfq.s:6345   .rodata.MQTT_CheckSubscription.str1.4:0000000000000000 $d
/var/folders/9y/n02fl3g16gnf7ppy14xghdy80000gn/T//ccoB4Sfq.s:6355   .text.MQTT_CheckSubscription:0000000000000000 $t
/var/folders/9y/n02fl3g16gnf7ppy14xghdy80000gn/T//ccoB4Sfq.s:6362   .text.MQTT_CheckSubscription:0000000000000000 MQTT_CheckSubscription
/var/folders/9y/n02fl3g16gnf7ppy14xghdy80000gn/T//ccoB4Sfq.s:6469   .text.MQTT_CheckSubscription:0000000000000074 $d
/var/folders/9y/n02fl3g16gnf7ppy14xghdy80000gn/T//ccoB4Sfq.s:6481   .rodata.MQTT_Disconnect.str1.4:0000000000000000 $d
/var/folders/9y/n02fl3g16gnf7ppy14xghdy80000gn/T//ccoB4Sfq.s:6485   .text.MQTT_Disconnect:0000000000000000 $t
/var/folders/9y/n02fl3g16gnf7ppy14xghdy80000gn/T//ccoB4Sfq.s:6492   .text.MQTT_Disconnect:0000000000000000 MQTT_Disconnect
/var/folders/9y/n02fl3g16gnf7ppy14xghdy80000gn/T//ccoB4Sfq.s:6564   .text.MQTT_Disconnect:0000000000000048 $d
/var/folders/9y/n02fl3g16gnf7ppy14xghdy80000gn/T//ccoB4Sfq.s:6573   .rodata.MQTT_WaitForMessage.str1.4:0000000000000000 $d
/var/folders/9y/n02fl3g16gnf7ppy14xghdy80000gn/T//ccoB4Sfq.s:6580   .text.MQTT_WaitForMessage:0000000000000000 $t
/var/folders/9y/n02fl3g16gnf7ppy14xghdy80000gn/T//ccoB4Sfq.s:6587   .text.MQTT_WaitForMessage:0000000000000000 MQTT_WaitForMessage
/var/folders/9y/n02fl3g16gnf7ppy14xghdy80000gn/T//ccoB4Sfq.s:6676   .text.MQTT_WaitForMessage:0000000000000054 $d
/var/folders/9y/n02fl3g16gnf7ppy14xghdy80000gn/T//ccoB4Sfq.s:6683   .text.MQTT_ListenForMessage:0000000000000000 $t
/var/folders/9y/n02fl3g16gnf7ppy14xghdy80000gn/T//ccoB4Sfq.s:6690   .text.MQTT_ListenForMessage:0000000000000000 MQTT_ListenForMessage
/var/folders/9y/n02fl3g16gnf7ppy14xghdy80000gn/T//ccoB4Sfq.s:6786   .text.MQTT_ListenForMessage:0000000000000064 $d
/var/folders/9y/n02fl3g16gnf7ppy14xghdy80000gn/T//ccoB4Sfq.s:6808   .bss.SNTP:0000000000000000 SNTP
/var/folders/9y/n02fl3g16gnf7ppy14xghdy80000gn/T//ccoB4Sfq.s:6801   .bss.MQTT:0000000000000000 MQTT
/var/folders/9y/n02fl3g16gnf7ppy14xghdy80000gn/T//ccoB4Sfq.s:6815   .bss.Wifi:0000000000000000 Wifi
/var/folders/9y/n02fl3g16gnf7ppy14xghdy80000gn/T//ccoB4Sfq.s:6797   .bss.MQTT:0000000000000000 $d
/var/folders/9y/n02fl3g16gnf7ppy14xghdy80000gn/T//ccoB4Sfq.s:6804   .bss.SNTP:0000000000000000 $d
/var/folders/9y/n02fl3g16gnf7ppy14xghdy80000gn/T//ccoB4Sfq.s:6811   .bss.Wifi:0000000000000000 $d
ARM GAS  /var/folders/9y/n02fl3g16gnf7ppy14xghdy80000gn/T//ccoB4Sfq.s 			page 165



UNDEFINED SYMBOLS
memcpy
usart1TransmitDma
strlen
delayMicroseconds
strstr
strtok
strcpy
atoi
__aeabi_d2f
atof
memset
usart1StartRxIt
sprintf
sscanf
strchr
strncpy
char_irq_recv
