ARM GAS  /var/folders/9y/n02fl3g16gnf7ppy14xghdy80000gn/T//ccqd2uAD.s 			page 1


   1              		.cpu cortex-m4
   2              		.eabi_attribute 27, 1
   3              		.eabi_attribute 28, 1
   4              		.eabi_attribute 20, 1
   5              		.eabi_attribute 21, 1
   6              		.eabi_attribute 23, 3
   7              		.eabi_attribute 24, 1
   8              		.eabi_attribute 25, 1
   9              		.eabi_attribute 26, 1
  10              		.eabi_attribute 30, 1
  11              		.eabi_attribute 34, 1
  12              		.eabi_attribute 18, 4
  13              		.file	"ili9341.c"
  14              		.text
  15              	.Ltext0:
  16              		.cfi_sections	.debug_frame
  17              		.section	.text.ili9341WriteCommand,"ax",%progbits
  18              		.align	1
  19              		.global	ili9341WriteCommand
  20              		.arch armv7e-m
  21              		.syntax unified
  22              		.thumb
  23              		.thumb_func
  24              		.fpu fpv4-sp-d16
  26              	ili9341WriteCommand:
  27              	.LVL0:
  28              	.LFB1155:
  29              		.file 1 "Core/Src/ili9341.c"
   1:Core/Src/ili9341.c **** 
   2:Core/Src/ili9341.c **** #include "ili9341.h"
   3:Core/Src/ili9341.c **** 
   4:Core/Src/ili9341.c **** /* Global Variables ------------------------------------------------------------------*/
   5:Core/Src/ili9341.c **** volatile uint16_t _lcd_height = ILI9341_SCREEN_HEIGHT;
   6:Core/Src/ili9341.c **** volatile uint16_t _lcd_width = ILI9341_SCREEN_WIDTH;
   7:Core/Src/ili9341.c **** 
   8:Core/Src/ili9341.c **** uint8_t rxBuf;
   9:Core/Src/ili9341.c **** uint8_t txBuf;
  10:Core/Src/ili9341.c **** 
  11:Core/Src/ili9341.c **** /* Static Function Prototypes */
  12:Core/Src/ili9341.c **** static void ili9341WriteChar(uint16_t x, uint16_t y, char ch, FontDef font, uint16_t color, uint16_
  13:Core/Src/ili9341.c **** 
  14:Core/Src/ili9341.c **** /* Send command (char) to LCD */
  15:Core/Src/ili9341.c **** void ili9341WriteCommand(uint8_t command)
  16:Core/Src/ili9341.c **** {
  30              		.loc 1 16 1 view -0
  31              		.cfi_startproc
  32              		@ args = 0, pretend = 0, frame = 8
  33              		@ frame_needed = 0, uses_anonymous_args = 0
  34              		.loc 1 16 1 is_stmt 0 view .LVU1
  35 0000 10B5     		push	{r4, lr}
  36              		.cfi_def_cfa_offset 8
  37              		.cfi_offset 4, -8
  38              		.cfi_offset 14, -4
  39 0002 82B0     		sub	sp, sp, #8
  40              		.cfi_def_cfa_offset 16
  41 0004 8DF80700 		strb	r0, [sp, #7]
  17:Core/Src/ili9341.c ****     static uint8_t dummy __attribute__((unused));
ARM GAS  /var/folders/9y/n02fl3g16gnf7ppy14xghdy80000gn/T//ccqd2uAD.s 			page 2


  42              		.loc 1 17 5 is_stmt 1 view .LVU2
  18:Core/Src/ili9341.c **** 
  19:Core/Src/ili9341.c ****     ILI9341_COMMAND;
  43              		.loc 1 19 5 view .LVU3
  44 0008 4FF09044 		mov	r4, #1207959552
  45 000c A369     		ldr	r3, [r4, #24]
  46 000e 43F40023 		orr	r3, r3, #524288
  47 0012 A361     		str	r3, [r4, #24]
  20:Core/Src/ili9341.c ****     ILI9341_CS_RESET;
  48              		.loc 1 20 5 view .LVU4
  49 0014 A369     		ldr	r3, [r4, #24]
  50 0016 43F48013 		orr	r3, r3, #1048576
  51 001a A361     		str	r3, [r4, #24]
  21:Core/Src/ili9341.c ****     spi1Transfer(&command, &dummy, 1);
  52              		.loc 1 21 5 view .LVU5
  53 001c 0122     		movs	r2, #1
  54 001e 0549     		ldr	r1, .L3
  55 0020 0DF10700 		add	r0, sp, #7
  56              	.LVL1:
  57              		.loc 1 21 5 is_stmt 0 view .LVU6
  58 0024 FFF7FEFF 		bl	spi1Transfer
  59              	.LVL2:
  22:Core/Src/ili9341.c ****     ILI9341_CS_SET;
  60              		.loc 1 22 5 is_stmt 1 view .LVU7
  61 0028 A369     		ldr	r3, [r4, #24]
  62 002a 43F01003 		orr	r3, r3, #16
  63 002e A361     		str	r3, [r4, #24]
  23:Core/Src/ili9341.c **** }
  64              		.loc 1 23 1 is_stmt 0 view .LVU8
  65 0030 02B0     		add	sp, sp, #8
  66              		.cfi_def_cfa_offset 8
  67              		@ sp needed
  68 0032 10BD     		pop	{r4, pc}
  69              	.L4:
  70              		.align	2
  71              	.L3:
  72 0034 00000000 		.word	.LANCHOR0
  73              		.cfi_endproc
  74              	.LFE1155:
  76              		.section	.text.ili9341WriteData,"ax",%progbits
  77              		.align	1
  78              		.global	ili9341WriteData
  79              		.syntax unified
  80              		.thumb
  81              		.thumb_func
  82              		.fpu fpv4-sp-d16
  84              	ili9341WriteData:
  85              	.LVL3:
  86              	.LFB1156:
  24:Core/Src/ili9341.c **** 
  25:Core/Src/ili9341.c **** /* Send Data (char) to LCD */
  26:Core/Src/ili9341.c **** void ili9341WriteData(uint8_t *pData, size_t size)
  27:Core/Src/ili9341.c **** {
  87              		.loc 1 27 1 is_stmt 1 view -0
  88              		.cfi_startproc
  89              		@ args = 0, pretend = 0, frame = 0
  90              		@ frame_needed = 0, uses_anonymous_args = 0
ARM GAS  /var/folders/9y/n02fl3g16gnf7ppy14xghdy80000gn/T//ccqd2uAD.s 			page 3


  91              		.loc 1 27 1 is_stmt 0 view .LVU10
  92 0000 10B5     		push	{r4, lr}
  93              		.cfi_def_cfa_offset 8
  94              		.cfi_offset 4, -8
  95              		.cfi_offset 14, -4
  96 0002 0A46     		mov	r2, r1
  28:Core/Src/ili9341.c ****     static uint8_t dummy __attribute__((unused));
  97              		.loc 1 28 5 is_stmt 1 view .LVU11
  29:Core/Src/ili9341.c **** 
  30:Core/Src/ili9341.c ****     ILI9341_DATA;
  98              		.loc 1 30 5 view .LVU12
  99 0004 4FF09044 		mov	r4, #1207959552
 100 0008 A369     		ldr	r3, [r4, #24]
 101 000a 43F00803 		orr	r3, r3, #8
 102 000e A361     		str	r3, [r4, #24]
  31:Core/Src/ili9341.c ****     ILI9341_CS_RESET;
 103              		.loc 1 31 5 view .LVU13
 104 0010 A369     		ldr	r3, [r4, #24]
 105 0012 43F48013 		orr	r3, r3, #1048576
 106 0016 A361     		str	r3, [r4, #24]
  32:Core/Src/ili9341.c ****     spi1Transfer(pData, &dummy, size);
 107              		.loc 1 32 5 view .LVU14
 108 0018 0349     		ldr	r1, .L7
 109              	.LVL4:
 110              		.loc 1 32 5 is_stmt 0 view .LVU15
 111 001a FFF7FEFF 		bl	spi1Transfer
 112              	.LVL5:
  33:Core/Src/ili9341.c ****     ILI9341_CS_SET;
 113              		.loc 1 33 5 is_stmt 1 view .LVU16
 114 001e A369     		ldr	r3, [r4, #24]
 115 0020 43F01003 		orr	r3, r3, #16
 116 0024 A361     		str	r3, [r4, #24]
  34:Core/Src/ili9341.c **** }
 117              		.loc 1 34 1 is_stmt 0 view .LVU17
 118 0026 10BD     		pop	{r4, pc}
 119              	.L8:
 120              		.align	2
 121              	.L7:
 122 0028 00000000 		.word	.LANCHOR1
 123              		.cfi_endproc
 124              	.LFE1156:
 126              		.section	.text.ili9341Read8,"ax",%progbits
 127              		.align	1
 128              		.global	ili9341Read8
 129              		.syntax unified
 130              		.thumb
 131              		.thumb_func
 132              		.fpu fpv4-sp-d16
 134              	ili9341Read8:
 135              	.LVL6:
 136              	.LFB1157:
  35:Core/Src/ili9341.c **** 
  36:Core/Src/ili9341.c **** /* Read 8 Bits of Data from LCD */
  37:Core/Src/ili9341.c **** void ili9341Read8(uint8_t reg, uint8_t *pData)
  38:Core/Src/ili9341.c **** {
 137              		.loc 1 38 1 is_stmt 1 view -0
 138              		.cfi_startproc
ARM GAS  /var/folders/9y/n02fl3g16gnf7ppy14xghdy80000gn/T//ccqd2uAD.s 			page 4


 139              		@ args = 0, pretend = 0, frame = 8
 140              		@ frame_needed = 0, uses_anonymous_args = 0
 141              		.loc 1 38 1 is_stmt 0 view .LVU19
 142 0000 30B5     		push	{r4, r5, lr}
 143              		.cfi_def_cfa_offset 12
 144              		.cfi_offset 4, -12
 145              		.cfi_offset 5, -8
 146              		.cfi_offset 14, -4
 147 0002 83B0     		sub	sp, sp, #12
 148              		.cfi_def_cfa_offset 24
 149 0004 0D46     		mov	r5, r1
 150 0006 8DF80700 		strb	r0, [sp, #7]
  39:Core/Src/ili9341.c ****     // static uint8_t dummy __attribute__((unused));
  40:Core/Src/ili9341.c **** 
  41:Core/Src/ili9341.c ****     ILI9341_COMMAND;
 151              		.loc 1 41 5 is_stmt 1 view .LVU20
 152 000a 4FF09044 		mov	r4, #1207959552
 153 000e A369     		ldr	r3, [r4, #24]
 154 0010 43F40023 		orr	r3, r3, #524288
 155 0014 A361     		str	r3, [r4, #24]
  42:Core/Src/ili9341.c ****     ILI9341_CS_RESET;
 156              		.loc 1 42 5 view .LVU21
 157 0016 A369     		ldr	r3, [r4, #24]
 158 0018 43F48013 		orr	r3, r3, #1048576
 159 001c A361     		str	r3, [r4, #24]
  43:Core/Src/ili9341.c ****     spi1Transfer(&reg, &rxBuf, 1);
 160              		.loc 1 43 5 view .LVU22
 161 001e 0122     		movs	r2, #1
 162 0020 0949     		ldr	r1, .L11
 163              	.LVL7:
 164              		.loc 1 43 5 is_stmt 0 view .LVU23
 165 0022 0DF10700 		add	r0, sp, #7
 166              	.LVL8:
 167              		.loc 1 43 5 view .LVU24
 168 0026 FFF7FEFF 		bl	spi1Transfer
 169              	.LVL9:
  44:Core/Src/ili9341.c ****     ILI9341_DATA;
 170              		.loc 1 44 5 is_stmt 1 view .LVU25
 171 002a A369     		ldr	r3, [r4, #24]
 172 002c 43F00803 		orr	r3, r3, #8
 173 0030 A361     		str	r3, [r4, #24]
  45:Core/Src/ili9341.c ****     spi1Transfer(&txBuf, pData, 1);
 174              		.loc 1 45 5 view .LVU26
 175 0032 0122     		movs	r2, #1
 176 0034 2946     		mov	r1, r5
 177 0036 0548     		ldr	r0, .L11+4
 178 0038 FFF7FEFF 		bl	spi1Transfer
 179              	.LVL10:
  46:Core/Src/ili9341.c ****     ILI9341_CS_SET;
 180              		.loc 1 46 5 view .LVU27
 181 003c A369     		ldr	r3, [r4, #24]
 182 003e 43F01003 		orr	r3, r3, #16
 183 0042 A361     		str	r3, [r4, #24]
  47:Core/Src/ili9341.c **** }
 184              		.loc 1 47 1 is_stmt 0 view .LVU28
 185 0044 03B0     		add	sp, sp, #12
 186              		.cfi_def_cfa_offset 12
ARM GAS  /var/folders/9y/n02fl3g16gnf7ppy14xghdy80000gn/T//ccqd2uAD.s 			page 5


 187              		@ sp needed
 188 0046 30BD     		pop	{r4, r5, pc}
 189              	.LVL11:
 190              	.L12:
 191              		.loc 1 47 1 view .LVU29
 192              		.align	2
 193              	.L11:
 194 0048 00000000 		.word	.LANCHOR2
 195 004c 00000000 		.word	.LANCHOR3
 196              		.cfi_endproc
 197              	.LFE1157:
 199              		.section	.text.ili9341SetAddress,"ax",%progbits
 200              		.align	1
 201              		.global	ili9341SetAddress
 202              		.syntax unified
 203              		.thumb
 204              		.thumb_func
 205              		.fpu fpv4-sp-d16
 207              	ili9341SetAddress:
 208              	.LVL12:
 209              	.LFB1158:
  48:Core/Src/ili9341.c **** 
  49:Core/Src/ili9341.c **** /* Set Address - Location block - to draw into */
  50:Core/Src/ili9341.c **** void ili9341SetAddress(uint16_t x0, uint16_t y0, uint16_t x1, uint16_t y1)
  51:Core/Src/ili9341.c **** {
 210              		.loc 1 51 1 is_stmt 1 view -0
 211              		.cfi_startproc
 212              		@ args = 0, pretend = 0, frame = 8
 213              		@ frame_needed = 0, uses_anonymous_args = 0
 214              		.loc 1 51 1 is_stmt 0 view .LVU31
 215 0000 F0B5     		push	{r4, r5, r6, r7, lr}
 216              		.cfi_def_cfa_offset 20
 217              		.cfi_offset 4, -20
 218              		.cfi_offset 5, -16
 219              		.cfi_offset 6, -12
 220              		.cfi_offset 7, -8
 221              		.cfi_offset 14, -4
 222 0002 83B0     		sub	sp, sp, #12
 223              		.cfi_def_cfa_offset 32
 224 0004 0746     		mov	r7, r0
 225 0006 0D46     		mov	r5, r1
 226 0008 1646     		mov	r6, r2
 227 000a 1C46     		mov	r4, r3
  52:Core/Src/ili9341.c ****     // column address set
  53:Core/Src/ili9341.c ****     ili9341WriteCommand(ILI9341_COL_ADDR_SET); // CASET
 228              		.loc 1 53 5 is_stmt 1 view .LVU32
 229 000c 2A20     		movs	r0, #42
 230              	.LVL13:
 231              		.loc 1 53 5 is_stmt 0 view .LVU33
 232 000e FFF7FEFF 		bl	ili9341WriteCommand
 233              	.LVL14:
 234              	.LBB2:
  54:Core/Src/ili9341.c ****     {
  55:Core/Src/ili9341.c ****         uint8_t data[] = {(x0 >> 8) & 0xFF, x0 & 0xFF, (x1 >> 8) & 0xFF, x1 & 0xFF};
 235              		.loc 1 55 9 is_stmt 1 view .LVU34
 236              		.loc 1 55 17 is_stmt 0 view .LVU35
 237 0012 3B0A     		lsrs	r3, r7, #8
ARM GAS  /var/folders/9y/n02fl3g16gnf7ppy14xghdy80000gn/T//ccqd2uAD.s 			page 6


 238 0014 8DF80430 		strb	r3, [sp, #4]
 239 0018 8DF80570 		strb	r7, [sp, #5]
 240 001c 330A     		lsrs	r3, r6, #8
 241 001e 8DF80630 		strb	r3, [sp, #6]
 242 0022 8DF80760 		strb	r6, [sp, #7]
  56:Core/Src/ili9341.c ****         ili9341WriteData(data, sizeof(data));
 243              		.loc 1 56 9 is_stmt 1 view .LVU36
 244 0026 0421     		movs	r1, #4
 245 0028 0DEB0100 		add	r0, sp, r1
 246 002c FFF7FEFF 		bl	ili9341WriteData
 247              	.LVL15:
 248              	.LBE2:
  57:Core/Src/ili9341.c ****     }
  58:Core/Src/ili9341.c **** 
  59:Core/Src/ili9341.c ****     // row address set
  60:Core/Src/ili9341.c ****     ili9341WriteCommand(ILI9341_PAGE_ADDR_SET); // RASET
 249              		.loc 1 60 5 view .LVU37
 250 0030 2B20     		movs	r0, #43
 251 0032 FFF7FEFF 		bl	ili9341WriteCommand
 252              	.LVL16:
 253              	.LBB3:
  61:Core/Src/ili9341.c ****     {
  62:Core/Src/ili9341.c ****         uint8_t data[] = {(y0 >> 8) & 0xFF, y0 & 0xFF, (y1 >> 8) & 0xFF, y1 & 0xFF};
 254              		.loc 1 62 9 view .LVU38
 255              		.loc 1 62 17 is_stmt 0 view .LVU39
 256 0036 2B0A     		lsrs	r3, r5, #8
 257 0038 8DF80430 		strb	r3, [sp, #4]
 258 003c 8DF80550 		strb	r5, [sp, #5]
 259 0040 230A     		lsrs	r3, r4, #8
 260 0042 8DF80630 		strb	r3, [sp, #6]
 261 0046 8DF80740 		strb	r4, [sp, #7]
  63:Core/Src/ili9341.c ****         ili9341WriteData(data, sizeof(data));
 262              		.loc 1 63 9 is_stmt 1 view .LVU40
 263 004a 0421     		movs	r1, #4
 264 004c 0DEB0100 		add	r0, sp, r1
 265 0050 FFF7FEFF 		bl	ili9341WriteData
 266              	.LVL17:
 267              	.LBE3:
  64:Core/Src/ili9341.c ****     }
  65:Core/Src/ili9341.c **** 
  66:Core/Src/ili9341.c ****     // write to RAM
  67:Core/Src/ili9341.c ****     ili9341WriteCommand(ILI9341_MEM_WRITE); // RAMWR
 268              		.loc 1 67 5 view .LVU41
 269 0054 2C20     		movs	r0, #44
 270 0056 FFF7FEFF 		bl	ili9341WriteCommand
 271              	.LVL18:
  68:Core/Src/ili9341.c **** }
 272              		.loc 1 68 1 is_stmt 0 view .LVU42
 273 005a 03B0     		add	sp, sp, #12
 274              		.cfi_def_cfa_offset 20
 275              		@ sp needed
 276 005c F0BD     		pop	{r4, r5, r6, r7, pc}
 277              		.cfi_endproc
 278              	.LFE1158:
 280              		.section	.text.ili9341WriteChar,"ax",%progbits
 281              		.align	1
 282              		.syntax unified
ARM GAS  /var/folders/9y/n02fl3g16gnf7ppy14xghdy80000gn/T//ccqd2uAD.s 			page 7


 283              		.thumb
 284              		.thumb_func
 285              		.fpu fpv4-sp-d16
 287              	ili9341WriteChar:
 288              	.LVL19:
 289              	.LFB1167:
  69:Core/Src/ili9341.c **** 
  70:Core/Src/ili9341.c **** /*HARDWARE RESET*/
  71:Core/Src/ili9341.c **** void ili9341_Reset(void)
  72:Core/Src/ili9341.c **** {
  73:Core/Src/ili9341.c ****     GPIOB->BSRR |= GPIO_BSRR_BR1;
  74:Core/Src/ili9341.c ****     delay(200);
  75:Core/Src/ili9341.c ****     ILI9341_CS_RESET;
  76:Core/Src/ili9341.c ****     delay(200);
  77:Core/Src/ili9341.c ****     GPIOB->BSRR |= GPIO_BSRR_BS1;
  78:Core/Src/ili9341.c **** }
  79:Core/Src/ili9341.c **** 
  80:Core/Src/ili9341.c **** /*Ser rotation of the screen - changes x0 and y0*/
  81:Core/Src/ili9341.c **** void ili9341SetRotation(uint8_t rotation)
  82:Core/Src/ili9341.c **** {
  83:Core/Src/ili9341.c ****     uint8_t rot_code;
  84:Core/Src/ili9341.c ****     uint8_t screen_rotation = rotation;
  85:Core/Src/ili9341.c **** 
  86:Core/Src/ili9341.c ****     ili9341WriteCommand(ILI9341_MEM_ACCESS_CTRL);
  87:Core/Src/ili9341.c ****     delay(1);
  88:Core/Src/ili9341.c **** 
  89:Core/Src/ili9341.c ****     switch (screen_rotation)
  90:Core/Src/ili9341.c ****     {
  91:Core/Src/ili9341.c ****     case SCREEN_VERTICAL_1:
  92:Core/Src/ili9341.c ****         rot_code = (0x40 | 0x08);
  93:Core/Src/ili9341.c ****         ili9341WriteData(&rot_code, 1);
  94:Core/Src/ili9341.c ****         _lcd_width = 240;
  95:Core/Src/ili9341.c ****         _lcd_height = 320;
  96:Core/Src/ili9341.c ****         break;
  97:Core/Src/ili9341.c ****     case SCREEN_HORIZONTAL_1:
  98:Core/Src/ili9341.c ****         rot_code = (0x20 | 0x08);
  99:Core/Src/ili9341.c ****         ili9341WriteData(&rot_code, 1);
 100:Core/Src/ili9341.c ****         _lcd_width = 320;
 101:Core/Src/ili9341.c ****         _lcd_height = 240;
 102:Core/Src/ili9341.c ****         break;
 103:Core/Src/ili9341.c ****     case SCREEN_VERTICAL_2:
 104:Core/Src/ili9341.c ****         rot_code = (0x80 | 0x08);
 105:Core/Src/ili9341.c ****         ili9341WriteData(&rot_code, 1);
 106:Core/Src/ili9341.c ****         _lcd_width = 240;
 107:Core/Src/ili9341.c ****         _lcd_height = 320;
 108:Core/Src/ili9341.c ****         break;
 109:Core/Src/ili9341.c ****     case SCREEN_HORIZONTAL_2:
 110:Core/Src/ili9341.c ****         rot_code = (0x40 | 0x80 | 0x20 | 0x08);
 111:Core/Src/ili9341.c ****         ili9341WriteData(&rot_code, 1);
 112:Core/Src/ili9341.c ****         _lcd_width = 320;
 113:Core/Src/ili9341.c ****         _lcd_height = 240;
 114:Core/Src/ili9341.c ****         break;
 115:Core/Src/ili9341.c ****     default:
 116:Core/Src/ili9341.c ****         // EXIT IF SCREEN rotation NOT VALID!
 117:Core/Src/ili9341.c ****         break;
 118:Core/Src/ili9341.c ****     }
 119:Core/Src/ili9341.c **** }
ARM GAS  /var/folders/9y/n02fl3g16gnf7ppy14xghdy80000gn/T//ccqd2uAD.s 			page 8


 120:Core/Src/ili9341.c **** 
 121:Core/Src/ili9341.c **** /*Enable LCD display*/
 122:Core/Src/ili9341.c **** // void ili9341_Enable(void)
 123:Core/Src/ili9341.c **** // {
 124:Core/Src/ili9341.c **** //     HAL_GPIO_WritePin(LCD_RST_PORT, LCD_RST_PIN, GPIO_PIN_SET);
 125:Core/Src/ili9341.c **** // }
 126:Core/Src/ili9341.c **** 
 127:Core/Src/ili9341.c **** /*Initialize LCD display*/
 128:Core/Src/ili9341.c **** void ili9341Init(void)
 129:Core/Src/ili9341.c **** {
 130:Core/Src/ili9341.c ****     ili9341_Reset();
 131:Core/Src/ili9341.c ****     ILI9341_CS_SET;
 132:Core/Src/ili9341.c **** 
 133:Core/Src/ili9341.c ****     // SOFTWARE RESET
 134:Core/Src/ili9341.c ****     ili9341WriteCommand(ILI9341_SOFTWARE_RESET);
 135:Core/Src/ili9341.c ****     delay(1000);
 136:Core/Src/ili9341.c **** 
 137:Core/Src/ili9341.c ****     // POWER CONTROL A
 138:Core/Src/ili9341.c ****     ili9341WriteCommand(ILI9341_POWER_CTRL_A);
 139:Core/Src/ili9341.c ****     {
 140:Core/Src/ili9341.c ****         uint8_t data[] = {0x39, 0x2C, 0x00, 0x34, 0x02};
 141:Core/Src/ili9341.c ****         ili9341WriteData(data, sizeof(data));
 142:Core/Src/ili9341.c ****     }
 143:Core/Src/ili9341.c **** 
 144:Core/Src/ili9341.c ****     // POWER CONTROL B
 145:Core/Src/ili9341.c ****     ili9341WriteCommand(ILI9341_POWER_CTRL_B);
 146:Core/Src/ili9341.c ****     {
 147:Core/Src/ili9341.c ****         uint8_t data[] = {0x00, 0xC1, 0x30};
 148:Core/Src/ili9341.c ****         ili9341WriteData(data, sizeof(data));
 149:Core/Src/ili9341.c ****     }
 150:Core/Src/ili9341.c **** 
 151:Core/Src/ili9341.c ****     // DRIVER TIMING CONTROL A
 152:Core/Src/ili9341.c ****     ili9341WriteCommand(ILI9341_DRIVER_TIM_CTRL_A);
 153:Core/Src/ili9341.c ****     {
 154:Core/Src/ili9341.c ****         uint8_t data[] = {0x85, 0x00, 0x78};
 155:Core/Src/ili9341.c ****         ili9341WriteData(data, sizeof(data));
 156:Core/Src/ili9341.c ****     }
 157:Core/Src/ili9341.c **** 
 158:Core/Src/ili9341.c ****     // DRIVER TIMING CONTROL B
 159:Core/Src/ili9341.c ****     ili9341WriteCommand(ILI9341_DRIVER_TIM_CTRL_B);
 160:Core/Src/ili9341.c ****     {
 161:Core/Src/ili9341.c ****         uint8_t data[] = {0x00, 0x00};
 162:Core/Src/ili9341.c ****         ili9341WriteData(data, sizeof(data));
 163:Core/Src/ili9341.c ****     }
 164:Core/Src/ili9341.c **** 
 165:Core/Src/ili9341.c ****     // POWER ON SEQUENCE CONTROL
 166:Core/Src/ili9341.c ****     ili9341WriteCommand(ILI9341_POWER_ON_SEQ_CTRL);
 167:Core/Src/ili9341.c ****     {
 168:Core/Src/ili9341.c ****         uint8_t data[] = {0x64, 0x03, 0x12, 0x81};
 169:Core/Src/ili9341.c ****         ili9341WriteData(data, sizeof(data));
 170:Core/Src/ili9341.c ****     }
 171:Core/Src/ili9341.c **** 
 172:Core/Src/ili9341.c ****     // PUMP RATIO CONTROL
 173:Core/Src/ili9341.c ****     ili9341WriteCommand(ILI9341_PUMP_RATIO_CTRL);
 174:Core/Src/ili9341.c ****     {
 175:Core/Src/ili9341.c ****         uint8_t data[] = {0x20};
 176:Core/Src/ili9341.c ****         ili9341WriteData(data, sizeof(data));
ARM GAS  /var/folders/9y/n02fl3g16gnf7ppy14xghdy80000gn/T//ccqd2uAD.s 			page 9


 177:Core/Src/ili9341.c ****     }
 178:Core/Src/ili9341.c **** 
 179:Core/Src/ili9341.c ****     // POWER CONTROL,VRH[5:0]
 180:Core/Src/ili9341.c ****     ili9341WriteCommand(ILI9341_POWER_CTRL1);
 181:Core/Src/ili9341.c ****     {
 182:Core/Src/ili9341.c ****         uint8_t data[] = {0x23};
 183:Core/Src/ili9341.c ****         ili9341WriteData(data, sizeof(data));
 184:Core/Src/ili9341.c ****     }
 185:Core/Src/ili9341.c **** 
 186:Core/Src/ili9341.c ****     // POWER CONTROL,SAP[2:0];BT[3:0]
 187:Core/Src/ili9341.c ****     ili9341WriteCommand(ILI9341_POWER_CTRL2);
 188:Core/Src/ili9341.c ****     {
 189:Core/Src/ili9341.c ****         uint8_t data[] = {0x10};
 190:Core/Src/ili9341.c ****         ili9341WriteData(data, sizeof(data));
 191:Core/Src/ili9341.c ****     }
 192:Core/Src/ili9341.c **** 
 193:Core/Src/ili9341.c ****     // VCM CONTROL
 194:Core/Src/ili9341.c ****     ili9341WriteCommand(ILI9341_VCOM_CTRL1);
 195:Core/Src/ili9341.c ****     {
 196:Core/Src/ili9341.c ****         uint8_t data[] = {0x3E, 0x28};
 197:Core/Src/ili9341.c ****         ili9341WriteData(data, sizeof(data));
 198:Core/Src/ili9341.c ****     }
 199:Core/Src/ili9341.c **** 
 200:Core/Src/ili9341.c ****     // VCM CONTROL 2
 201:Core/Src/ili9341.c ****     ili9341WriteCommand(ILI9341_VCOM_CTRL2);
 202:Core/Src/ili9341.c ****     {
 203:Core/Src/ili9341.c ****         uint8_t data[] = {0x86};
 204:Core/Src/ili9341.c ****         ili9341WriteData(data, sizeof(data));
 205:Core/Src/ili9341.c ****     }
 206:Core/Src/ili9341.c **** 
 207:Core/Src/ili9341.c ****     // MEMORY ACCESS CONTROL
 208:Core/Src/ili9341.c ****     ili9341WriteCommand(ILI9341_MEM_ACCESS_CTRL);
 209:Core/Src/ili9341.c ****     {
 210:Core/Src/ili9341.c ****         uint8_t data[] = {0x48};
 211:Core/Src/ili9341.c ****         ili9341WriteData(data, sizeof(data));
 212:Core/Src/ili9341.c ****     }
 213:Core/Src/ili9341.c **** 
 214:Core/Src/ili9341.c ****     // PIXEL FORMAT
 215:Core/Src/ili9341.c ****     ili9341WriteCommand(ILI9341_PIXEL_FORMAT_SET);
 216:Core/Src/ili9341.c ****     {
 217:Core/Src/ili9341.c ****         uint8_t data[] = {0x55};
 218:Core/Src/ili9341.c ****         ili9341WriteData(data, sizeof(data));
 219:Core/Src/ili9341.c ****     }
 220:Core/Src/ili9341.c **** 
 221:Core/Src/ili9341.c ****     // FRAME RATIO CONTROL, STANDARD RGB COLOR
 222:Core/Src/ili9341.c ****     ili9341WriteCommand(ILI9341_FRAME_CTRL_NORM);
 223:Core/Src/ili9341.c ****     {
 224:Core/Src/ili9341.c ****         uint8_t data[] = {0x00, 0x18};
 225:Core/Src/ili9341.c ****         ili9341WriteData(data, sizeof(data));
 226:Core/Src/ili9341.c ****     }
 227:Core/Src/ili9341.c **** 
 228:Core/Src/ili9341.c ****     // DISPLAY FUNCTION CONTROL
 229:Core/Src/ili9341.c ****     ili9341WriteCommand(ILI9341_DISP_FUNC_CTRL);
 230:Core/Src/ili9341.c ****     {
 231:Core/Src/ili9341.c ****         uint8_t data[] = {0x08, 0x82, 0x27};
 232:Core/Src/ili9341.c ****         ili9341WriteData(data, sizeof(data));
 233:Core/Src/ili9341.c ****     }
ARM GAS  /var/folders/9y/n02fl3g16gnf7ppy14xghdy80000gn/T//ccqd2uAD.s 			page 10


 234:Core/Src/ili9341.c **** 
 235:Core/Src/ili9341.c ****     // 3GAMMA FUNCTION DISABLE
 236:Core/Src/ili9341.c ****     ili9341WriteCommand(ILI9341_ENABLE_3G);
 237:Core/Src/ili9341.c ****     {
 238:Core/Src/ili9341.c ****         uint8_t data[] = {0x00};
 239:Core/Src/ili9341.c ****         ili9341WriteData(data, sizeof(data));
 240:Core/Src/ili9341.c ****     }
 241:Core/Src/ili9341.c **** 
 242:Core/Src/ili9341.c ****     // GAMMA CURVE SELECTED
 243:Core/Src/ili9341.c ****     ili9341WriteCommand(ILI9341_GAMMA_SET);
 244:Core/Src/ili9341.c ****     {
 245:Core/Src/ili9341.c ****         uint8_t data[] = {0x01};
 246:Core/Src/ili9341.c ****         ili9341WriteData(data, sizeof(data));
 247:Core/Src/ili9341.c ****     }
 248:Core/Src/ili9341.c **** 
 249:Core/Src/ili9341.c ****     // POSITIVE GAMMA CORRECTION
 250:Core/Src/ili9341.c ****     ili9341WriteCommand(ILI9341_POS_GAMMA_CORRECTION);
 251:Core/Src/ili9341.c ****     {
 252:Core/Src/ili9341.c ****         uint8_t data[] = {0x0F, 0x31, 0x2B, 0x0C, 0x0E, 0x08, 0x4E, 0xF1,
 253:Core/Src/ili9341.c ****                           0x37, 0x07, 0x10, 0x03, 0x0E, 0x09, 0x00};
 254:Core/Src/ili9341.c ****         ili9341WriteData(data, sizeof(data));
 255:Core/Src/ili9341.c ****     }
 256:Core/Src/ili9341.c **** 
 257:Core/Src/ili9341.c ****     // NEGATIVE GAMMA CORRECTION
 258:Core/Src/ili9341.c ****     ili9341WriteCommand(ILI9341_NEG_GAMMA_CORRECTION);
 259:Core/Src/ili9341.c ****     {
 260:Core/Src/ili9341.c ****         uint8_t data[] = {0x00, 0x0E, 0x14, 0x03, 0x11, 0x07, 0x31, 0xC1,
 261:Core/Src/ili9341.c ****                           0x48, 0x08, 0x0F, 0x0C, 0x31, 0x36, 0x0F};
 262:Core/Src/ili9341.c ****         ili9341WriteData(data, sizeof(data));
 263:Core/Src/ili9341.c ****     }
 264:Core/Src/ili9341.c **** 
 265:Core/Src/ili9341.c ****     // EXIT SLEEP
 266:Core/Src/ili9341.c ****     ili9341WriteCommand(ILI9341_SLEEP_OUT);
 267:Core/Src/ili9341.c ****     delay(120);
 268:Core/Src/ili9341.c **** 
 269:Core/Src/ili9341.c ****     // TURN ON DISPLAY
 270:Core/Src/ili9341.c ****     ili9341WriteCommand(ILI9341_DISP_ON);
 271:Core/Src/ili9341.c **** 
 272:Core/Src/ili9341.c ****     // STARTING rotation
 273:Core/Src/ili9341.c ****     ili9341SetRotation(SCREEN_HORIZONTAL_2);
 274:Core/Src/ili9341.c **** }
 275:Core/Src/ili9341.c **** 
 276:Core/Src/ili9341.c **** // INTERNAL FUNCTION OF LIBRARy, USAGE NOT RECOMENDED, USE Draw_Pixel INSTEAD
 277:Core/Src/ili9341.c **** /*Sends single pixel color information to LCD*/
 278:Core/Src/ili9341.c **** void ili9341DrawColor(uint16_t color)
 279:Core/Src/ili9341.c **** {
 280:Core/Src/ili9341.c ****     // SENDS color
 281:Core/Src/ili9341.c ****     unsigned char tempBuffer[2] = {color >> 8, color};
 282:Core/Src/ili9341.c ****     ILI9341_DATA;
 283:Core/Src/ili9341.c ****     ILI9341_CS_RESET;
 284:Core/Src/ili9341.c ****     spi1Transfer((uint8_t *)tempBuffer, &rxBuf, 2);
 285:Core/Src/ili9341.c ****     ILI9341_CS_SET;
 286:Core/Src/ili9341.c **** }
 287:Core/Src/ili9341.c **** 
 288:Core/Src/ili9341.c **** // INTERNAL FUNCTION OF LIBRARy
 289:Core/Src/ili9341.c **** /*Sends block color information to LCD*/
 290:Core/Src/ili9341.c **** void ili9341DrawColorBurst(uint16_t color, uint32_t size)
ARM GAS  /var/folders/9y/n02fl3g16gnf7ppy14xghdy80000gn/T//ccqd2uAD.s 			page 11


 291:Core/Src/ili9341.c **** {
 292:Core/Src/ili9341.c ****     // SENDS color
 293:Core/Src/ili9341.c ****     uint32_t buffer_size = 0;
 294:Core/Src/ili9341.c ****     if ((size * 2) < BURST_MAX_SIZE)
 295:Core/Src/ili9341.c ****     {
 296:Core/Src/ili9341.c ****         buffer_size = size * 2;
 297:Core/Src/ili9341.c ****     }
 298:Core/Src/ili9341.c ****     else
 299:Core/Src/ili9341.c ****     {
 300:Core/Src/ili9341.c ****         buffer_size = BURST_MAX_SIZE;
 301:Core/Src/ili9341.c ****     }
 302:Core/Src/ili9341.c **** 
 303:Core/Src/ili9341.c ****     unsigned char chifted = color >> 8;
 304:Core/Src/ili9341.c **** 
 305:Core/Src/ili9341.c ****     unsigned char burst_buffer[buffer_size];
 306:Core/Src/ili9341.c ****     for (uint32_t j = 0; j < buffer_size; j += 2)
 307:Core/Src/ili9341.c ****     {
 308:Core/Src/ili9341.c ****         burst_buffer[j] = chifted;
 309:Core/Src/ili9341.c ****         burst_buffer[j + 1] = color;
 310:Core/Src/ili9341.c ****     }
 311:Core/Src/ili9341.c ****     uint32_t sending_size = size * 2;
 312:Core/Src/ili9341.c ****     uint32_t sending_in_block = sending_size / buffer_size;
 313:Core/Src/ili9341.c ****     uint32_t remainder_from_block = sending_size % buffer_size;
 314:Core/Src/ili9341.c **** 
 315:Core/Src/ili9341.c ****     ILI9341_DATA;
 316:Core/Src/ili9341.c ****     ILI9341_CS_RESET;
 317:Core/Src/ili9341.c **** 
 318:Core/Src/ili9341.c ****     if (sending_in_block != 0)
 319:Core/Src/ili9341.c ****     {
 320:Core/Src/ili9341.c ****         for (uint32_t j = 0; j < (sending_in_block); j++)
 321:Core/Src/ili9341.c ****         {
 322:Core/Src/ili9341.c ****             spi1Transfer((uint8_t *)burst_buffer, &rxBuf, buffer_size);
 323:Core/Src/ili9341.c ****         }
 324:Core/Src/ili9341.c ****     }
 325:Core/Src/ili9341.c **** 
 326:Core/Src/ili9341.c ****     // REMAINDER!
 327:Core/Src/ili9341.c ****     if (remainder_from_block)
 328:Core/Src/ili9341.c ****         spi1Transfer((uint8_t *)burst_buffer, &rxBuf, remainder_from_block);
 329:Core/Src/ili9341.c **** 
 330:Core/Src/ili9341.c ****     ILI9341_CS_SET;
 331:Core/Src/ili9341.c **** }
 332:Core/Src/ili9341.c **** 
 333:Core/Src/ili9341.c **** // FILL THE ENTIRE SCREEN WITH SELECTED color (either #define-d ones or custom 16bit)
 334:Core/Src/ili9341.c **** /*Sets address (entire screen) and Sends Height*Width ammount of color information to LCD*/
 335:Core/Src/ili9341.c **** void ili9341FillScreen(uint16_t color)
 336:Core/Src/ili9341.c **** {
 337:Core/Src/ili9341.c ****     ili9341SetAddress(0, 0, _lcd_width, _lcd_height);
 338:Core/Src/ili9341.c ****     ili9341DrawColorBurst(color, (_lcd_width * _lcd_height));
 339:Core/Src/ili9341.c **** }
 340:Core/Src/ili9341.c **** 
 341:Core/Src/ili9341.c **** // DRAW PIXEL AT XY POSITION WITH SELECTED color
 342:Core/Src/ili9341.c **** //
 343:Core/Src/ili9341.c **** // Location is dependant on screen orientation. x0 and y0 locations change with orientations.
 344:Core/Src/ili9341.c **** // Using pixels to draw big simple structures is not recommended as it is really slow
 345:Core/Src/ili9341.c **** // Try using either rectangles or lines if possible
 346:Core/Src/ili9341.c **** //
 347:Core/Src/ili9341.c **** void ili9341DrawPixel(uint16_t x, uint16_t y, uint16_t color)
ARM GAS  /var/folders/9y/n02fl3g16gnf7ppy14xghdy80000gn/T//ccqd2uAD.s 			page 12


 348:Core/Src/ili9341.c **** {
 349:Core/Src/ili9341.c ****     if ((x >= _lcd_width) || (y >= _lcd_height))
 350:Core/Src/ili9341.c ****         return; // OUT OF BOUNDS!
 351:Core/Src/ili9341.c **** 
 352:Core/Src/ili9341.c ****     // ADDRESS
 353:Core/Src/ili9341.c ****     ili9341WriteCommand(ILI9341_COL_ADDR_SET);
 354:Core/Src/ili9341.c **** 
 355:Core/Src/ili9341.c ****     // xDATA
 356:Core/Src/ili9341.c ****     uint8_t temp_buffer[4] = {x >> 8, x, (x + 1) >> 8, (x + 1)};
 357:Core/Src/ili9341.c ****     ili9341WriteData(temp_buffer, 4);
 358:Core/Src/ili9341.c **** 
 359:Core/Src/ili9341.c ****     // ADDRESS
 360:Core/Src/ili9341.c ****     ili9341WriteCommand(ILI9341_PAGE_ADDR_SET);
 361:Core/Src/ili9341.c **** 
 362:Core/Src/ili9341.c ****     // yDATA
 363:Core/Src/ili9341.c ****     uint8_t temp_buffer1[4] = {y >> 8, y, (y + 1) >> 8, (y + 1)};
 364:Core/Src/ili9341.c ****     ili9341WriteData(temp_buffer1, 4);
 365:Core/Src/ili9341.c **** 
 366:Core/Src/ili9341.c ****     // ADDRESS
 367:Core/Src/ili9341.c ****     ili9341WriteCommand(ILI9341_MEM_WRITE);
 368:Core/Src/ili9341.c **** 
 369:Core/Src/ili9341.c ****     // color
 370:Core/Src/ili9341.c ****     uint8_t temp_buffer2[2] = {color >> 8, color};
 371:Core/Src/ili9341.c ****     ili9341WriteData(temp_buffer2, 2);
 372:Core/Src/ili9341.c **** }
 373:Core/Src/ili9341.c **** 
 374:Core/Src/ili9341.c **** void ili9341DrawImage(uint16_t x, uint16_t y, uint16_t w, uint16_t h, const uint16_t image[240][320
 375:Core/Src/ili9341.c **** {
 376:Core/Src/ili9341.c ****     if ((x >= ILI9341_SCREEN_WIDTH) || (y >= ILI9341_SCREEN_HEIGHT))
 377:Core/Src/ili9341.c ****         return;
 378:Core/Src/ili9341.c ****     if ((x + w - 1) >= ILI9341_SCREEN_WIDTH)
 379:Core/Src/ili9341.c ****         return;
 380:Core/Src/ili9341.c ****     if ((y + h - 1) >= ILI9341_SCREEN_HEIGHT)
 381:Core/Src/ili9341.c ****         return;
 382:Core/Src/ili9341.c **** 
 383:Core/Src/ili9341.c ****     ili9341SetAddress(x, y, x + w - 1, y + h - 1);
 384:Core/Src/ili9341.c **** 
 385:Core/Src/ili9341.c ****     uint8_t burst_idx = 0;
 386:Core/Src/ili9341.c ****     uint8_t bursts_to_send;
 387:Core/Src/ili9341.c ****     uint16_t burst_remainder;
 388:Core/Src/ili9341.c **** 
 389:Core/Src/ili9341.c ****     if ((sizeof(uint16_t) * w * h) < BURST_MAX_SIZE)
 390:Core/Src/ili9341.c ****         ili9341WriteData((uint8_t *)image, sizeof(uint16_t) * w * h);
 391:Core/Src/ili9341.c ****     else
 392:Core/Src/ili9341.c ****     {
 393:Core/Src/ili9341.c ****         bursts_to_send = (sizeof(uint16_t) * w * h) / BURST_MAX_SIZE;
 394:Core/Src/ili9341.c ****         burst_remainder = (sizeof(uint16_t) * w * h) % BURST_MAX_SIZE;
 395:Core/Src/ili9341.c ****         for (; burst_idx < bursts_to_send; burst_idx++)
 396:Core/Src/ili9341.c ****             ili9341WriteData((uint8_t *)image + (BURST_MAX_SIZE * burst_idx), BURST_MAX_SIZE);
 397:Core/Src/ili9341.c ****         if (burst_remainder)
 398:Core/Src/ili9341.c ****             ili9341WriteData((uint8_t *)image + (BURST_MAX_SIZE * burst_idx), burst_remainder);
 399:Core/Src/ili9341.c ****     }
 400:Core/Src/ili9341.c **** }
 401:Core/Src/ili9341.c **** 
 402:Core/Src/ili9341.c **** static void ili9341WriteChar(uint16_t x, uint16_t y, char ch, FontDef font, uint16_t color, uint16_
 403:Core/Src/ili9341.c **** {
 290              		.loc 1 403 1 is_stmt 1 view -0
ARM GAS  /var/folders/9y/n02fl3g16gnf7ppy14xghdy80000gn/T//ccqd2uAD.s 			page 13


 291              		.cfi_startproc
 292              		@ args = 20, pretend = 8, frame = 8
 293              		@ frame_needed = 0, uses_anonymous_args = 0
 294              		.loc 1 403 1 is_stmt 0 view .LVU44
 295 0000 82B0     		sub	sp, sp, #8
 296              		.cfi_def_cfa_offset 8
 297 0002 2DE9F04F 		push	{r4, r5, r6, r7, r8, r9, r10, fp, lr}
 298              		.cfi_def_cfa_offset 44
 299              		.cfi_offset 4, -44
 300              		.cfi_offset 5, -40
 301              		.cfi_offset 6, -36
 302              		.cfi_offset 7, -32
 303              		.cfi_offset 8, -28
 304              		.cfi_offset 9, -24
 305              		.cfi_offset 10, -20
 306              		.cfi_offset 11, -16
 307              		.cfi_offset 14, -12
 308 0006 83B0     		sub	sp, sp, #12
 309              		.cfi_def_cfa_offset 56
 310 0008 9346     		mov	fp, r2
 311 000a 0D93     		str	r3, [sp, #52]
 312 000c BDF83C80 		ldrh	r8, [sp, #60]
 313 0010 BDF84070 		ldrh	r7, [sp, #64]
 404:Core/Src/ili9341.c ****     uint32_t i, b, j;
 314              		.loc 1 404 5 is_stmt 1 view .LVU45
 405:Core/Src/ili9341.c **** 
 406:Core/Src/ili9341.c ****     ili9341SetAddress(x, y, x + font.width - 1, y + font.height - 1);
 315              		.loc 1 406 5 view .LVU46
 316              		.loc 1 406 37 is_stmt 0 view .LVU47
 317 0014 9DF83450 		ldrb	r5, [sp, #52]	@ zero_extendqisi2
 318              		.loc 1 406 31 view .LVU48
 319 0018 2A18     		adds	r2, r5, r0
 320              	.LVL20:
 321              		.loc 1 406 31 view .LVU49
 322 001a 92B2     		uxth	r2, r2
 323              		.loc 1 406 57 view .LVU50
 324 001c 9DF835A0 		ldrb	r10, [sp, #53]	@ zero_extendqisi2
 325              		.loc 1 406 51 view .LVU51
 326 0020 0AEB0103 		add	r3, r10, r1
 327 0024 9BB2     		uxth	r3, r3
 328              		.loc 1 406 5 view .LVU52
 329 0026 013B     		subs	r3, r3, #1
 330 0028 013A     		subs	r2, r2, #1
 331 002a 9BB2     		uxth	r3, r3
 332 002c 92B2     		uxth	r2, r2
 333 002e FFF7FEFF 		bl	ili9341SetAddress
 334              	.LVL21:
 407:Core/Src/ili9341.c **** 
 408:Core/Src/ili9341.c ****     for (i = 0; i < font.height; i++)
 335              		.loc 1 408 5 is_stmt 1 view .LVU53
 336              		.loc 1 408 12 is_stmt 0 view .LVU54
 337 0032 4FF00009 		mov	r9, #0
 338              		.loc 1 408 5 view .LVU55
 339 0036 1DE0     		b	.L16
 340              	.LVL22:
 341              	.L18:
 342              	.LBB4:
ARM GAS  /var/folders/9y/n02fl3g16gnf7ppy14xghdy80000gn/T//ccqd2uAD.s 			page 14


 409:Core/Src/ili9341.c ****     {
 410:Core/Src/ili9341.c ****         b = font.data[(ch - 32) * font.height + i];
 411:Core/Src/ili9341.c ****         for (j = 0; j < font.width; j++)
 412:Core/Src/ili9341.c ****         {
 413:Core/Src/ili9341.c ****             if ((b << j) & 0x8000)
 414:Core/Src/ili9341.c ****             {
 415:Core/Src/ili9341.c ****                 uint8_t data[] = {color >> 8, color & 0xFF};
 416:Core/Src/ili9341.c ****                 ili9341WriteData(data, sizeof(data));
 417:Core/Src/ili9341.c ****             }
 418:Core/Src/ili9341.c ****             else
 419:Core/Src/ili9341.c ****             {
 420:Core/Src/ili9341.c ****                 uint8_t data[] = {bgcolor >> 8, bgcolor & 0xFF};
 343              		.loc 1 420 17 is_stmt 1 view .LVU56
 344              		.loc 1 420 25 is_stmt 0 view .LVU57
 345 0038 3B0A     		lsrs	r3, r7, #8
 346 003a 8DF80430 		strb	r3, [sp, #4]
 347 003e 8DF80570 		strb	r7, [sp, #5]
 421:Core/Src/ili9341.c ****                 ili9341WriteData(data, sizeof(data));
 348              		.loc 1 421 17 is_stmt 1 view .LVU58
 349 0042 0221     		movs	r1, #2
 350 0044 01A8     		add	r0, sp, #4
 351 0046 FFF7FEFF 		bl	ili9341WriteData
 352              	.LVL23:
 353              	.L19:
 354              		.loc 1 421 17 is_stmt 0 view .LVU59
 355              	.LBE4:
 411:Core/Src/ili9341.c ****         {
 356              		.loc 1 411 37 is_stmt 1 discriminator 2 view .LVU60
 411:Core/Src/ili9341.c ****         {
 357              		.loc 1 411 38 is_stmt 0 discriminator 2 view .LVU61
 358 004a 0134     		adds	r4, r4, #1
 359              	.LVL24:
 360              	.L17:
 411:Core/Src/ili9341.c ****         {
 361              		.loc 1 411 21 is_stmt 1 discriminator 1 view .LVU62
 411:Core/Src/ili9341.c ****         {
 362              		.loc 1 411 9 is_stmt 0 discriminator 1 view .LVU63
 363 004c A542     		cmp	r5, r4
 364 004e 0FD9     		bls	.L23
 413:Core/Src/ili9341.c ****             {
 365              		.loc 1 413 13 is_stmt 1 view .LVU64
 413:Core/Src/ili9341.c ****             {
 366              		.loc 1 413 20 is_stmt 0 view .LVU65
 367 0050 06FA04F3 		lsl	r3, r6, r4
 413:Core/Src/ili9341.c ****             {
 368              		.loc 1 413 16 view .LVU66
 369 0054 13F4004F 		tst	r3, #32768
 370 0058 EED0     		beq	.L18
 371              	.LBB5:
 415:Core/Src/ili9341.c ****                 ili9341WriteData(data, sizeof(data));
 372              		.loc 1 415 17 is_stmt 1 view .LVU67
 415:Core/Src/ili9341.c ****                 ili9341WriteData(data, sizeof(data));
 373              		.loc 1 415 25 is_stmt 0 view .LVU68
 374 005a 4FEA1823 		lsr	r3, r8, #8
 375 005e 8DF80430 		strb	r3, [sp, #4]
 376 0062 8DF80580 		strb	r8, [sp, #5]
 416:Core/Src/ili9341.c ****             }
ARM GAS  /var/folders/9y/n02fl3g16gnf7ppy14xghdy80000gn/T//ccqd2uAD.s 			page 15


 377              		.loc 1 416 17 is_stmt 1 view .LVU69
 378 0066 0221     		movs	r1, #2
 379 0068 01A8     		add	r0, sp, #4
 380 006a FFF7FEFF 		bl	ili9341WriteData
 381              	.LVL25:
 382              	.LBE5:
 383 006e ECE7     		b	.L19
 384              	.L23:
 408:Core/Src/ili9341.c ****     {
 385              		.loc 1 408 34 discriminator 2 view .LVU70
 408:Core/Src/ili9341.c ****     {
 386              		.loc 1 408 35 is_stmt 0 discriminator 2 view .LVU71
 387 0070 09F10109 		add	r9, r9, #1
 388              	.LVL26:
 389              	.L16:
 408:Core/Src/ili9341.c ****     {
 390              		.loc 1 408 17 is_stmt 1 discriminator 1 view .LVU72
 408:Core/Src/ili9341.c ****     {
 391              		.loc 1 408 5 is_stmt 0 discriminator 1 view .LVU73
 392 0074 CA45     		cmp	r10, r9
 393 0076 08D9     		bls	.L24
 410:Core/Src/ili9341.c ****         for (j = 0; j < font.width; j++)
 394              		.loc 1 410 9 is_stmt 1 view .LVU74
 410:Core/Src/ili9341.c ****         for (j = 0; j < font.width; j++)
 395              		.loc 1 410 27 is_stmt 0 view .LVU75
 396 0078 ABF12003 		sub	r3, fp, #32
 410:Core/Src/ili9341.c ****         for (j = 0; j < font.width; j++)
 397              		.loc 1 410 47 view .LVU76
 398 007c 0AFB0393 		mla	r3, r10, r3, r9
 410:Core/Src/ili9341.c ****         for (j = 0; j < font.width; j++)
 399              		.loc 1 410 22 view .LVU77
 400 0080 0E9A     		ldr	r2, [sp, #56]
 401 0082 32F81360 		ldrh	r6, [r2, r3, lsl #1]
 402              	.LVL27:
 411:Core/Src/ili9341.c ****         {
 403              		.loc 1 411 9 is_stmt 1 view .LVU78
 411:Core/Src/ili9341.c ****         {
 404              		.loc 1 411 16 is_stmt 0 view .LVU79
 405 0086 0024     		movs	r4, #0
 411:Core/Src/ili9341.c ****         {
 406              		.loc 1 411 9 view .LVU80
 407 0088 E0E7     		b	.L17
 408              	.LVL28:
 409              	.L24:
 422:Core/Src/ili9341.c ****             }
 423:Core/Src/ili9341.c ****         }
 424:Core/Src/ili9341.c ****     }
 425:Core/Src/ili9341.c **** }
 410              		.loc 1 425 1 view .LVU81
 411 008a 03B0     		add	sp, sp, #12
 412              		.cfi_def_cfa_offset 44
 413              		@ sp needed
 414 008c BDE8F04F 		pop	{r4, r5, r6, r7, r8, r9, r10, fp, lr}
 415              		.cfi_restore 14
 416              		.cfi_restore 11
 417              		.cfi_restore 10
 418              		.cfi_restore 9
ARM GAS  /var/folders/9y/n02fl3g16gnf7ppy14xghdy80000gn/T//ccqd2uAD.s 			page 16


 419              		.cfi_restore 8
 420              		.cfi_restore 7
 421              		.cfi_restore 6
 422              		.cfi_restore 5
 423              		.cfi_restore 4
 424              		.cfi_def_cfa_offset 8
 425              	.LVL29:
 426              		.loc 1 425 1 view .LVU82
 427 0090 02B0     		add	sp, sp, #8
 428              		.cfi_def_cfa_offset 0
 429 0092 7047     		bx	lr
 430              		.cfi_endproc
 431              	.LFE1167:
 433              		.section	.text.ili9341_Reset,"ax",%progbits
 434              		.align	1
 435              		.global	ili9341_Reset
 436              		.syntax unified
 437              		.thumb
 438              		.thumb_func
 439              		.fpu fpv4-sp-d16
 441              	ili9341_Reset:
 442              	.LFB1159:
  72:Core/Src/ili9341.c ****     GPIOB->BSRR |= GPIO_BSRR_BR1;
 443              		.loc 1 72 1 is_stmt 1 view -0
 444              		.cfi_startproc
 445              		@ args = 0, pretend = 0, frame = 0
 446              		@ frame_needed = 0, uses_anonymous_args = 0
 447 0000 10B5     		push	{r4, lr}
 448              		.cfi_def_cfa_offset 8
 449              		.cfi_offset 4, -8
 450              		.cfi_offset 14, -4
  73:Core/Src/ili9341.c ****     delay(200);
 451              		.loc 1 73 5 view .LVU84
  73:Core/Src/ili9341.c ****     delay(200);
 452              		.loc 1 73 17 is_stmt 0 view .LVU85
 453 0002 0B4C     		ldr	r4, .L27
 454 0004 A369     		ldr	r3, [r4, #24]
 455 0006 43F40033 		orr	r3, r3, #131072
 456 000a A361     		str	r3, [r4, #24]
  74:Core/Src/ili9341.c ****     ILI9341_CS_RESET;
 457              		.loc 1 74 5 is_stmt 1 view .LVU86
 458 000c C820     		movs	r0, #200
 459 000e FFF7FEFF 		bl	delay
 460              	.LVL30:
  75:Core/Src/ili9341.c ****     delay(200);
 461              		.loc 1 75 5 view .LVU87
 462 0012 4FF09042 		mov	r2, #1207959552
 463 0016 9369     		ldr	r3, [r2, #24]
 464 0018 43F48013 		orr	r3, r3, #1048576
 465 001c 9361     		str	r3, [r2, #24]
  76:Core/Src/ili9341.c ****     GPIOB->BSRR |= GPIO_BSRR_BS1;
 466              		.loc 1 76 5 view .LVU88
 467 001e C820     		movs	r0, #200
 468 0020 FFF7FEFF 		bl	delay
 469              	.LVL31:
  77:Core/Src/ili9341.c **** }
 470              		.loc 1 77 5 view .LVU89
ARM GAS  /var/folders/9y/n02fl3g16gnf7ppy14xghdy80000gn/T//ccqd2uAD.s 			page 17


  77:Core/Src/ili9341.c **** }
 471              		.loc 1 77 17 is_stmt 0 view .LVU90
 472 0024 A369     		ldr	r3, [r4, #24]
 473 0026 43F00203 		orr	r3, r3, #2
 474 002a A361     		str	r3, [r4, #24]
  78:Core/Src/ili9341.c **** 
 475              		.loc 1 78 1 view .LVU91
 476 002c 10BD     		pop	{r4, pc}
 477              	.L28:
 478 002e 00BF     		.align	2
 479              	.L27:
 480 0030 00040048 		.word	1207960576
 481              		.cfi_endproc
 482              	.LFE1159:
 484              		.section	.text.ili9341SetRotation,"ax",%progbits
 485              		.align	1
 486              		.global	ili9341SetRotation
 487              		.syntax unified
 488              		.thumb
 489              		.thumb_func
 490              		.fpu fpv4-sp-d16
 492              	ili9341SetRotation:
 493              	.LVL32:
 494              	.LFB1160:
  82:Core/Src/ili9341.c ****     uint8_t rot_code;
 495              		.loc 1 82 1 is_stmt 1 view -0
 496              		.cfi_startproc
 497              		@ args = 0, pretend = 0, frame = 8
 498              		@ frame_needed = 0, uses_anonymous_args = 0
  82:Core/Src/ili9341.c ****     uint8_t rot_code;
 499              		.loc 1 82 1 is_stmt 0 view .LVU93
 500 0000 10B5     		push	{r4, lr}
 501              		.cfi_def_cfa_offset 8
 502              		.cfi_offset 4, -8
 503              		.cfi_offset 14, -4
 504 0002 82B0     		sub	sp, sp, #8
 505              		.cfi_def_cfa_offset 16
 506 0004 0446     		mov	r4, r0
  83:Core/Src/ili9341.c ****     uint8_t screen_rotation = rotation;
 507              		.loc 1 83 5 is_stmt 1 view .LVU94
  84:Core/Src/ili9341.c **** 
 508              		.loc 1 84 5 view .LVU95
 509              	.LVL33:
  86:Core/Src/ili9341.c ****     delay(1);
 510              		.loc 1 86 5 view .LVU96
 511 0006 3620     		movs	r0, #54
 512              	.LVL34:
  86:Core/Src/ili9341.c ****     delay(1);
 513              		.loc 1 86 5 is_stmt 0 view .LVU97
 514 0008 FFF7FEFF 		bl	ili9341WriteCommand
 515              	.LVL35:
  87:Core/Src/ili9341.c **** 
 516              		.loc 1 87 5 is_stmt 1 view .LVU98
 517 000c 0120     		movs	r0, #1
 518 000e FFF7FEFF 		bl	delay
 519              	.LVL36:
  89:Core/Src/ili9341.c ****     {
ARM GAS  /var/folders/9y/n02fl3g16gnf7ppy14xghdy80000gn/T//ccqd2uAD.s 			page 18


 520              		.loc 1 89 5 view .LVU99
 521 0012 032C     		cmp	r4, #3
 522 0014 12D8     		bhi	.L29
 523 0016 DFE804F0 		tbb	[pc, r4]
 524              	.L32:
 525 001a 02       		.byte	(.L35-.L32)/2
 526 001b 13       		.byte	(.L34-.L32)/2
 527 001c 23       		.byte	(.L33-.L32)/2
 528 001d 33       		.byte	(.L31-.L32)/2
 529              		.p2align 1
 530              	.L35:
  92:Core/Src/ili9341.c ****         ili9341WriteData(&rot_code, 1);
 531              		.loc 1 92 9 view .LVU100
  92:Core/Src/ili9341.c ****         ili9341WriteData(&rot_code, 1);
 532              		.loc 1 92 18 is_stmt 0 view .LVU101
 533 001e 4823     		movs	r3, #72
 534 0020 8DF80730 		strb	r3, [sp, #7]
  93:Core/Src/ili9341.c ****         _lcd_width = 240;
 535              		.loc 1 93 9 is_stmt 1 view .LVU102
 536 0024 0121     		movs	r1, #1
 537 0026 0DF10700 		add	r0, sp, #7
 538 002a FFF7FEFF 		bl	ili9341WriteData
 539              	.LVL37:
  94:Core/Src/ili9341.c ****         _lcd_height = 320;
 540              		.loc 1 94 9 view .LVU103
  94:Core/Src/ili9341.c ****         _lcd_height = 320;
 541              		.loc 1 94 20 is_stmt 0 view .LVU104
 542 002e 1C4B     		ldr	r3, .L37
 543 0030 F022     		movs	r2, #240
 544 0032 1A80     		strh	r2, [r3]	@ movhi
  95:Core/Src/ili9341.c ****         break;
 545              		.loc 1 95 9 is_stmt 1 view .LVU105
  95:Core/Src/ili9341.c ****         break;
 546              		.loc 1 95 21 is_stmt 0 view .LVU106
 547 0034 1B4B     		ldr	r3, .L37+4
 548 0036 4FF4A072 		mov	r2, #320
 549 003a 1A80     		strh	r2, [r3]	@ movhi
  96:Core/Src/ili9341.c ****     case SCREEN_HORIZONTAL_1:
 550              		.loc 1 96 9 is_stmt 1 view .LVU107
 551              	.L29:
 119:Core/Src/ili9341.c **** 
 552              		.loc 1 119 1 is_stmt 0 view .LVU108
 553 003c 02B0     		add	sp, sp, #8
 554              		.cfi_remember_state
 555              		.cfi_def_cfa_offset 8
 556              		@ sp needed
 557 003e 10BD     		pop	{r4, pc}
 558              	.LVL38:
 559              	.L34:
 560              		.cfi_restore_state
  98:Core/Src/ili9341.c ****         ili9341WriteData(&rot_code, 1);
 561              		.loc 1 98 9 is_stmt 1 view .LVU109
  98:Core/Src/ili9341.c ****         ili9341WriteData(&rot_code, 1);
 562              		.loc 1 98 18 is_stmt 0 view .LVU110
 563 0040 2823     		movs	r3, #40
 564 0042 8DF80730 		strb	r3, [sp, #7]
  99:Core/Src/ili9341.c ****         _lcd_width = 320;
ARM GAS  /var/folders/9y/n02fl3g16gnf7ppy14xghdy80000gn/T//ccqd2uAD.s 			page 19


 565              		.loc 1 99 9 is_stmt 1 view .LVU111
 566 0046 0121     		movs	r1, #1
 567 0048 0DF10700 		add	r0, sp, #7
 568 004c FFF7FEFF 		bl	ili9341WriteData
 569              	.LVL39:
 100:Core/Src/ili9341.c ****         _lcd_height = 240;
 570              		.loc 1 100 9 view .LVU112
 100:Core/Src/ili9341.c ****         _lcd_height = 240;
 571              		.loc 1 100 20 is_stmt 0 view .LVU113
 572 0050 134B     		ldr	r3, .L37
 573 0052 4FF4A072 		mov	r2, #320
 574 0056 1A80     		strh	r2, [r3]	@ movhi
 101:Core/Src/ili9341.c ****         break;
 575              		.loc 1 101 9 is_stmt 1 view .LVU114
 101:Core/Src/ili9341.c ****         break;
 576              		.loc 1 101 21 is_stmt 0 view .LVU115
 577 0058 124B     		ldr	r3, .L37+4
 578 005a F022     		movs	r2, #240
 579 005c 1A80     		strh	r2, [r3]	@ movhi
 102:Core/Src/ili9341.c ****     case SCREEN_VERTICAL_2:
 580              		.loc 1 102 9 is_stmt 1 view .LVU116
 581 005e EDE7     		b	.L29
 582              	.L33:
 104:Core/Src/ili9341.c ****         ili9341WriteData(&rot_code, 1);
 583              		.loc 1 104 9 view .LVU117
 104:Core/Src/ili9341.c ****         ili9341WriteData(&rot_code, 1);
 584              		.loc 1 104 18 is_stmt 0 view .LVU118
 585 0060 8823     		movs	r3, #136
 586 0062 8DF80730 		strb	r3, [sp, #7]
 105:Core/Src/ili9341.c ****         _lcd_width = 240;
 587              		.loc 1 105 9 is_stmt 1 view .LVU119
 588 0066 0121     		movs	r1, #1
 589 0068 0DF10700 		add	r0, sp, #7
 590 006c FFF7FEFF 		bl	ili9341WriteData
 591              	.LVL40:
 106:Core/Src/ili9341.c ****         _lcd_height = 320;
 592              		.loc 1 106 9 view .LVU120
 106:Core/Src/ili9341.c ****         _lcd_height = 320;
 593              		.loc 1 106 20 is_stmt 0 view .LVU121
 594 0070 0B4B     		ldr	r3, .L37
 595 0072 F022     		movs	r2, #240
 596 0074 1A80     		strh	r2, [r3]	@ movhi
 107:Core/Src/ili9341.c ****         break;
 597              		.loc 1 107 9 is_stmt 1 view .LVU122
 107:Core/Src/ili9341.c ****         break;
 598              		.loc 1 107 21 is_stmt 0 view .LVU123
 599 0076 0B4B     		ldr	r3, .L37+4
 600 0078 4FF4A072 		mov	r2, #320
 601 007c 1A80     		strh	r2, [r3]	@ movhi
 108:Core/Src/ili9341.c ****     case SCREEN_HORIZONTAL_2:
 602              		.loc 1 108 9 is_stmt 1 view .LVU124
 603 007e DDE7     		b	.L29
 604              	.L31:
 110:Core/Src/ili9341.c ****         ili9341WriteData(&rot_code, 1);
 605              		.loc 1 110 9 view .LVU125
 110:Core/Src/ili9341.c ****         ili9341WriteData(&rot_code, 1);
 606              		.loc 1 110 18 is_stmt 0 view .LVU126
ARM GAS  /var/folders/9y/n02fl3g16gnf7ppy14xghdy80000gn/T//ccqd2uAD.s 			page 20


 607 0080 E823     		movs	r3, #232
 608 0082 8DF80730 		strb	r3, [sp, #7]
 111:Core/Src/ili9341.c ****         _lcd_width = 320;
 609              		.loc 1 111 9 is_stmt 1 view .LVU127
 610 0086 0121     		movs	r1, #1
 611 0088 0DF10700 		add	r0, sp, #7
 612 008c FFF7FEFF 		bl	ili9341WriteData
 613              	.LVL41:
 112:Core/Src/ili9341.c ****         _lcd_height = 240;
 614              		.loc 1 112 9 view .LVU128
 112:Core/Src/ili9341.c ****         _lcd_height = 240;
 615              		.loc 1 112 20 is_stmt 0 view .LVU129
 616 0090 034B     		ldr	r3, .L37
 617 0092 4FF4A072 		mov	r2, #320
 618 0096 1A80     		strh	r2, [r3]	@ movhi
 113:Core/Src/ili9341.c ****         break;
 619              		.loc 1 113 9 is_stmt 1 view .LVU130
 113:Core/Src/ili9341.c ****         break;
 620              		.loc 1 113 21 is_stmt 0 view .LVU131
 621 0098 024B     		ldr	r3, .L37+4
 622 009a F022     		movs	r2, #240
 623 009c 1A80     		strh	r2, [r3]	@ movhi
 114:Core/Src/ili9341.c ****     default:
 624              		.loc 1 114 9 is_stmt 1 view .LVU132
 119:Core/Src/ili9341.c **** 
 625              		.loc 1 119 1 is_stmt 0 view .LVU133
 626 009e CDE7     		b	.L29
 627              	.L38:
 628              		.align	2
 629              	.L37:
 630 00a0 00000000 		.word	.LANCHOR4
 631 00a4 00000000 		.word	.LANCHOR5
 632              		.cfi_endproc
 633              	.LFE1160:
 635              		.section	.rodata.ili9341Init.str1.4,"aMS",%progbits,1
 636              		.align	2
 637              	.LC3:
 638 0000 08822700 		.ascii	"\010\202'\000"
 639              		.align	2
 640              	.LC4:
 641 0004 0F312B0C 		.ascii	"\0171+\014\016\010N\3617\007\020\003\016\011\000"
 641      0E084EF1 
 641      37071003 
 641      0E0900
 642              		.section	.text.ili9341Init,"ax",%progbits
 643              		.align	1
 644              		.global	ili9341Init
 645              		.syntax unified
 646              		.thumb
 647              		.thumb_func
 648              		.fpu fpv4-sp-d16
 650              	ili9341Init:
 651              	.LFB1161:
 129:Core/Src/ili9341.c ****     ili9341_Reset();
 652              		.loc 1 129 1 is_stmt 1 view -0
 653              		.cfi_startproc
 654              		@ args = 0, pretend = 0, frame = 16
ARM GAS  /var/folders/9y/n02fl3g16gnf7ppy14xghdy80000gn/T//ccqd2uAD.s 			page 21


 655              		@ frame_needed = 0, uses_anonymous_args = 0
 656 0000 30B5     		push	{r4, r5, lr}
 657              		.cfi_def_cfa_offset 12
 658              		.cfi_offset 4, -12
 659              		.cfi_offset 5, -8
 660              		.cfi_offset 14, -4
 661 0002 85B0     		sub	sp, sp, #20
 662              		.cfi_def_cfa_offset 32
 130:Core/Src/ili9341.c ****     ILI9341_CS_SET;
 663              		.loc 1 130 5 view .LVU135
 664 0004 FFF7FEFF 		bl	ili9341_Reset
 665              	.LVL42:
 131:Core/Src/ili9341.c **** 
 666              		.loc 1 131 5 view .LVU136
 667 0008 4FF09042 		mov	r2, #1207959552
 668 000c 9369     		ldr	r3, [r2, #24]
 669 000e 43F01003 		orr	r3, r3, #16
 670 0012 9361     		str	r3, [r2, #24]
 134:Core/Src/ili9341.c ****     delay(1000);
 671              		.loc 1 134 5 view .LVU137
 672 0014 0120     		movs	r0, #1
 673 0016 FFF7FEFF 		bl	ili9341WriteCommand
 674              	.LVL43:
 135:Core/Src/ili9341.c **** 
 675              		.loc 1 135 5 view .LVU138
 676 001a 4FF47A70 		mov	r0, #1000
 677 001e FFF7FEFF 		bl	delay
 678              	.LVL44:
 138:Core/Src/ili9341.c ****     {
 679              		.loc 1 138 5 view .LVU139
 680 0022 CB20     		movs	r0, #203
 681 0024 FFF7FEFF 		bl	ili9341WriteCommand
 682              	.LVL45:
 683              	.LBB6:
 140:Core/Src/ili9341.c ****         ili9341WriteData(data, sizeof(data));
 684              		.loc 1 140 9 view .LVU140
 140:Core/Src/ili9341.c ****         ili9341WriteData(data, sizeof(data));
 685              		.loc 1 140 17 is_stmt 0 view .LVU141
 686 0028 6C4C     		ldr	r4, .L41
 687 002a 94E80300 		ldm	r4, {r0, r1}
 688 002e 0090     		str	r0, [sp]
 689 0030 8DF80410 		strb	r1, [sp, #4]
 141:Core/Src/ili9341.c ****     }
 690              		.loc 1 141 9 is_stmt 1 view .LVU142
 691 0034 0521     		movs	r1, #5
 692 0036 6846     		mov	r0, sp
 693 0038 FFF7FEFF 		bl	ili9341WriteData
 694              	.LVL46:
 695              	.LBE6:
 145:Core/Src/ili9341.c ****     {
 696              		.loc 1 145 5 view .LVU143
 697 003c CF20     		movs	r0, #207
 698 003e FFF7FEFF 		bl	ili9341WriteCommand
 699              	.LVL47:
 700              	.LBB7:
 147:Core/Src/ili9341.c ****         ili9341WriteData(data, sizeof(data));
 701              		.loc 1 147 9 view .LVU144
ARM GAS  /var/folders/9y/n02fl3g16gnf7ppy14xghdy80000gn/T//ccqd2uAD.s 			page 22


 147:Core/Src/ili9341.c ****         ili9341WriteData(data, sizeof(data));
 702              		.loc 1 147 17 is_stmt 0 view .LVU145
 703 0042 A368     		ldr	r3, [r4, #8]
 704 0044 ADF80030 		strh	r3, [sp]	@ movhi
 705 0048 1B0C     		lsrs	r3, r3, #16
 706 004a 8DF80230 		strb	r3, [sp, #2]
 148:Core/Src/ili9341.c ****     }
 707              		.loc 1 148 9 is_stmt 1 view .LVU146
 708 004e 0321     		movs	r1, #3
 709 0050 6846     		mov	r0, sp
 710 0052 FFF7FEFF 		bl	ili9341WriteData
 711              	.LVL48:
 712              	.LBE7:
 152:Core/Src/ili9341.c ****     {
 713              		.loc 1 152 5 view .LVU147
 714 0056 E820     		movs	r0, #232
 715 0058 FFF7FEFF 		bl	ili9341WriteCommand
 716              	.LVL49:
 717              	.LBB8:
 154:Core/Src/ili9341.c ****         ili9341WriteData(data, sizeof(data));
 718              		.loc 1 154 9 view .LVU148
 154:Core/Src/ili9341.c ****         ili9341WriteData(data, sizeof(data));
 719              		.loc 1 154 17 is_stmt 0 view .LVU149
 720 005c E368     		ldr	r3, [r4, #12]
 721 005e ADF80030 		strh	r3, [sp]	@ movhi
 722 0062 1B0C     		lsrs	r3, r3, #16
 723 0064 8DF80230 		strb	r3, [sp, #2]
 155:Core/Src/ili9341.c ****     }
 724              		.loc 1 155 9 is_stmt 1 view .LVU150
 725 0068 0321     		movs	r1, #3
 726 006a 6846     		mov	r0, sp
 727 006c FFF7FEFF 		bl	ili9341WriteData
 728              	.LVL50:
 729              	.LBE8:
 159:Core/Src/ili9341.c ****     {
 730              		.loc 1 159 5 view .LVU151
 731 0070 EA20     		movs	r0, #234
 732 0072 FFF7FEFF 		bl	ili9341WriteCommand
 733              	.LVL51:
 734              	.LBB9:
 161:Core/Src/ili9341.c ****         ili9341WriteData(data, sizeof(data));
 735              		.loc 1 161 9 view .LVU152
 161:Core/Src/ili9341.c ****         ili9341WriteData(data, sizeof(data));
 736              		.loc 1 161 17 is_stmt 0 view .LVU153
 737 0076 0025     		movs	r5, #0
 738 0078 ADF80050 		strh	r5, [sp]	@ movhi
 162:Core/Src/ili9341.c ****     }
 739              		.loc 1 162 9 is_stmt 1 view .LVU154
 740 007c 0221     		movs	r1, #2
 741 007e 6846     		mov	r0, sp
 742 0080 FFF7FEFF 		bl	ili9341WriteData
 743              	.LVL52:
 744              	.LBE9:
 166:Core/Src/ili9341.c ****     {
 745              		.loc 1 166 5 view .LVU155
 746 0084 ED20     		movs	r0, #237
 747 0086 FFF7FEFF 		bl	ili9341WriteCommand
ARM GAS  /var/folders/9y/n02fl3g16gnf7ppy14xghdy80000gn/T//ccqd2uAD.s 			page 23


 748              	.LVL53:
 749              	.LBB10:
 168:Core/Src/ili9341.c ****         ili9341WriteData(data, sizeof(data));
 750              		.loc 1 168 9 view .LVU156
 168:Core/Src/ili9341.c ****         ili9341WriteData(data, sizeof(data));
 751              		.loc 1 168 17 is_stmt 0 view .LVU157
 752 008a 554B     		ldr	r3, .L41+4
 753 008c 0093     		str	r3, [sp]
 169:Core/Src/ili9341.c ****     }
 754              		.loc 1 169 9 is_stmt 1 view .LVU158
 755 008e 0421     		movs	r1, #4
 756 0090 6846     		mov	r0, sp
 757 0092 FFF7FEFF 		bl	ili9341WriteData
 758              	.LVL54:
 759              	.LBE10:
 173:Core/Src/ili9341.c ****     {
 760              		.loc 1 173 5 view .LVU159
 761 0096 F720     		movs	r0, #247
 762 0098 FFF7FEFF 		bl	ili9341WriteCommand
 763              	.LVL55:
 764              	.LBB11:
 175:Core/Src/ili9341.c ****         ili9341WriteData(data, sizeof(data));
 765              		.loc 1 175 9 view .LVU160
 175:Core/Src/ili9341.c ****         ili9341WriteData(data, sizeof(data));
 766              		.loc 1 175 17 is_stmt 0 view .LVU161
 767 009c 2023     		movs	r3, #32
 768 009e 8DF80030 		strb	r3, [sp]
 176:Core/Src/ili9341.c ****     }
 769              		.loc 1 176 9 is_stmt 1 view .LVU162
 770 00a2 0121     		movs	r1, #1
 771 00a4 6846     		mov	r0, sp
 772 00a6 FFF7FEFF 		bl	ili9341WriteData
 773              	.LVL56:
 774              	.LBE11:
 180:Core/Src/ili9341.c ****     {
 775              		.loc 1 180 5 view .LVU163
 776 00aa C020     		movs	r0, #192
 777 00ac FFF7FEFF 		bl	ili9341WriteCommand
 778              	.LVL57:
 779              	.LBB12:
 182:Core/Src/ili9341.c ****         ili9341WriteData(data, sizeof(data));
 780              		.loc 1 182 9 view .LVU164
 182:Core/Src/ili9341.c ****         ili9341WriteData(data, sizeof(data));
 781              		.loc 1 182 17 is_stmt 0 view .LVU165
 782 00b0 2323     		movs	r3, #35
 783 00b2 8DF80030 		strb	r3, [sp]
 183:Core/Src/ili9341.c ****     }
 784              		.loc 1 183 9 is_stmt 1 view .LVU166
 785 00b6 0121     		movs	r1, #1
 786 00b8 6846     		mov	r0, sp
 787 00ba FFF7FEFF 		bl	ili9341WriteData
 788              	.LVL58:
 789              	.LBE12:
 187:Core/Src/ili9341.c ****     {
 790              		.loc 1 187 5 view .LVU167
 791 00be C120     		movs	r0, #193
 792 00c0 FFF7FEFF 		bl	ili9341WriteCommand
ARM GAS  /var/folders/9y/n02fl3g16gnf7ppy14xghdy80000gn/T//ccqd2uAD.s 			page 24


 793              	.LVL59:
 794              	.LBB13:
 189:Core/Src/ili9341.c ****         ili9341WriteData(data, sizeof(data));
 795              		.loc 1 189 9 view .LVU168
 189:Core/Src/ili9341.c ****         ili9341WriteData(data, sizeof(data));
 796              		.loc 1 189 17 is_stmt 0 view .LVU169
 797 00c4 1023     		movs	r3, #16
 798 00c6 8DF80030 		strb	r3, [sp]
 190:Core/Src/ili9341.c ****     }
 799              		.loc 1 190 9 is_stmt 1 view .LVU170
 800 00ca 0121     		movs	r1, #1
 801 00cc 6846     		mov	r0, sp
 802 00ce FFF7FEFF 		bl	ili9341WriteData
 803              	.LVL60:
 804              	.LBE13:
 194:Core/Src/ili9341.c ****     {
 805              		.loc 1 194 5 view .LVU171
 806 00d2 C520     		movs	r0, #197
 807 00d4 FFF7FEFF 		bl	ili9341WriteCommand
 808              	.LVL61:
 809              	.LBB14:
 196:Core/Src/ili9341.c ****         ili9341WriteData(data, sizeof(data));
 810              		.loc 1 196 9 view .LVU172
 196:Core/Src/ili9341.c ****         ili9341WriteData(data, sizeof(data));
 811              		.loc 1 196 17 is_stmt 0 view .LVU173
 812 00d8 42F63E03 		movw	r3, #10302
 813 00dc ADF80030 		strh	r3, [sp]	@ movhi
 197:Core/Src/ili9341.c ****     }
 814              		.loc 1 197 9 is_stmt 1 view .LVU174
 815 00e0 0221     		movs	r1, #2
 816 00e2 6846     		mov	r0, sp
 817 00e4 FFF7FEFF 		bl	ili9341WriteData
 818              	.LVL62:
 819              	.LBE14:
 201:Core/Src/ili9341.c ****     {
 820              		.loc 1 201 5 view .LVU175
 821 00e8 C720     		movs	r0, #199
 822 00ea FFF7FEFF 		bl	ili9341WriteCommand
 823              	.LVL63:
 824              	.LBB15:
 203:Core/Src/ili9341.c ****         ili9341WriteData(data, sizeof(data));
 825              		.loc 1 203 9 view .LVU176
 203:Core/Src/ili9341.c ****         ili9341WriteData(data, sizeof(data));
 826              		.loc 1 203 17 is_stmt 0 view .LVU177
 827 00ee 8623     		movs	r3, #134
 828 00f0 8DF80030 		strb	r3, [sp]
 204:Core/Src/ili9341.c ****     }
 829              		.loc 1 204 9 is_stmt 1 view .LVU178
 830 00f4 0121     		movs	r1, #1
 831 00f6 6846     		mov	r0, sp
 832 00f8 FFF7FEFF 		bl	ili9341WriteData
 833              	.LVL64:
 834              	.LBE15:
 208:Core/Src/ili9341.c ****     {
 835              		.loc 1 208 5 view .LVU179
 836 00fc 3620     		movs	r0, #54
 837 00fe FFF7FEFF 		bl	ili9341WriteCommand
ARM GAS  /var/folders/9y/n02fl3g16gnf7ppy14xghdy80000gn/T//ccqd2uAD.s 			page 25


 838              	.LVL65:
 839              	.LBB16:
 210:Core/Src/ili9341.c ****         ili9341WriteData(data, sizeof(data));
 840              		.loc 1 210 9 view .LVU180
 210:Core/Src/ili9341.c ****         ili9341WriteData(data, sizeof(data));
 841              		.loc 1 210 17 is_stmt 0 view .LVU181
 842 0102 4823     		movs	r3, #72
 843 0104 8DF80030 		strb	r3, [sp]
 211:Core/Src/ili9341.c ****     }
 844              		.loc 1 211 9 is_stmt 1 view .LVU182
 845 0108 0121     		movs	r1, #1
 846 010a 6846     		mov	r0, sp
 847 010c FFF7FEFF 		bl	ili9341WriteData
 848              	.LVL66:
 849              	.LBE16:
 215:Core/Src/ili9341.c ****     {
 850              		.loc 1 215 5 view .LVU183
 851 0110 3A20     		movs	r0, #58
 852 0112 FFF7FEFF 		bl	ili9341WriteCommand
 853              	.LVL67:
 854              	.LBB17:
 217:Core/Src/ili9341.c ****         ili9341WriteData(data, sizeof(data));
 855              		.loc 1 217 9 view .LVU184
 217:Core/Src/ili9341.c ****         ili9341WriteData(data, sizeof(data));
 856              		.loc 1 217 17 is_stmt 0 view .LVU185
 857 0116 5523     		movs	r3, #85
 858 0118 8DF80030 		strb	r3, [sp]
 218:Core/Src/ili9341.c ****     }
 859              		.loc 1 218 9 is_stmt 1 view .LVU186
 860 011c 0121     		movs	r1, #1
 861 011e 6846     		mov	r0, sp
 862 0120 FFF7FEFF 		bl	ili9341WriteData
 863              	.LVL68:
 864              	.LBE17:
 222:Core/Src/ili9341.c ****     {
 865              		.loc 1 222 5 view .LVU187
 866 0124 B120     		movs	r0, #177
 867 0126 FFF7FEFF 		bl	ili9341WriteCommand
 868              	.LVL69:
 869              	.LBB18:
 224:Core/Src/ili9341.c ****         ili9341WriteData(data, sizeof(data));
 870              		.loc 1 224 9 view .LVU188
 224:Core/Src/ili9341.c ****         ili9341WriteData(data, sizeof(data));
 871              		.loc 1 224 17 is_stmt 0 view .LVU189
 872 012a 4FF4C053 		mov	r3, #6144
 873 012e ADF80030 		strh	r3, [sp]	@ movhi
 225:Core/Src/ili9341.c ****     }
 874              		.loc 1 225 9 is_stmt 1 view .LVU190
 875 0132 0221     		movs	r1, #2
 876 0134 6846     		mov	r0, sp
 877 0136 FFF7FEFF 		bl	ili9341WriteData
 878              	.LVL70:
 879              	.LBE18:
 229:Core/Src/ili9341.c ****     {
 880              		.loc 1 229 5 view .LVU191
 881 013a B620     		movs	r0, #182
 882 013c FFF7FEFF 		bl	ili9341WriteCommand
ARM GAS  /var/folders/9y/n02fl3g16gnf7ppy14xghdy80000gn/T//ccqd2uAD.s 			page 26


 883              	.LVL71:
 884              	.LBB19:
 231:Core/Src/ili9341.c ****         ili9341WriteData(data, sizeof(data));
 885              		.loc 1 231 9 view .LVU192
 231:Core/Src/ili9341.c ****         ili9341WriteData(data, sizeof(data));
 886              		.loc 1 231 17 is_stmt 0 view .LVU193
 887 0140 284B     		ldr	r3, .L41+8
 888 0142 1B68     		ldr	r3, [r3]
 889 0144 ADF80030 		strh	r3, [sp]	@ movhi
 890 0148 1B0C     		lsrs	r3, r3, #16
 891 014a 8DF80230 		strb	r3, [sp, #2]
 232:Core/Src/ili9341.c ****     }
 892              		.loc 1 232 9 is_stmt 1 view .LVU194
 893 014e 0321     		movs	r1, #3
 894 0150 6846     		mov	r0, sp
 895 0152 FFF7FEFF 		bl	ili9341WriteData
 896              	.LVL72:
 897              	.LBE19:
 236:Core/Src/ili9341.c ****     {
 898              		.loc 1 236 5 view .LVU195
 899 0156 F220     		movs	r0, #242
 900 0158 FFF7FEFF 		bl	ili9341WriteCommand
 901              	.LVL73:
 902              	.LBB20:
 238:Core/Src/ili9341.c ****         ili9341WriteData(data, sizeof(data));
 903              		.loc 1 238 9 view .LVU196
 238:Core/Src/ili9341.c ****         ili9341WriteData(data, sizeof(data));
 904              		.loc 1 238 17 is_stmt 0 view .LVU197
 905 015c 8DF80050 		strb	r5, [sp]
 239:Core/Src/ili9341.c ****     }
 906              		.loc 1 239 9 is_stmt 1 view .LVU198
 907 0160 0121     		movs	r1, #1
 908 0162 6846     		mov	r0, sp
 909 0164 FFF7FEFF 		bl	ili9341WriteData
 910              	.LVL74:
 911              	.LBE20:
 243:Core/Src/ili9341.c ****     {
 912              		.loc 1 243 5 view .LVU199
 913 0168 2620     		movs	r0, #38
 914 016a FFF7FEFF 		bl	ili9341WriteCommand
 915              	.LVL75:
 916              	.LBB21:
 245:Core/Src/ili9341.c ****         ili9341WriteData(data, sizeof(data));
 917              		.loc 1 245 9 view .LVU200
 245:Core/Src/ili9341.c ****         ili9341WriteData(data, sizeof(data));
 918              		.loc 1 245 17 is_stmt 0 view .LVU201
 919 016e 0121     		movs	r1, #1
 920 0170 8DF80010 		strb	r1, [sp]
 246:Core/Src/ili9341.c ****     }
 921              		.loc 1 246 9 is_stmt 1 view .LVU202
 922 0174 6846     		mov	r0, sp
 923 0176 FFF7FEFF 		bl	ili9341WriteData
 924              	.LVL76:
 925              	.LBE21:
 250:Core/Src/ili9341.c ****     {
 926              		.loc 1 250 5 view .LVU203
 927 017a E020     		movs	r0, #224
ARM GAS  /var/folders/9y/n02fl3g16gnf7ppy14xghdy80000gn/T//ccqd2uAD.s 			page 27


 928 017c FFF7FEFF 		bl	ili9341WriteCommand
 929              	.LVL77:
 930              	.LBB22:
 252:Core/Src/ili9341.c ****                           0x37, 0x07, 0x10, 0x03, 0x0E, 0x09, 0x00};
 931              		.loc 1 252 9 view .LVU204
 252:Core/Src/ili9341.c ****                           0x37, 0x07, 0x10, 0x03, 0x0E, 0x09, 0x00};
 932              		.loc 1 252 17 is_stmt 0 view .LVU205
 933 0180 194B     		ldr	r3, .L41+12
 934 0182 EC46     		mov	ip, sp
 935 0184 0FCB     		ldm	r3, {r0, r1, r2, r3}
 936 0186 ACE80700 		stmia	ip!, {r0, r1, r2}
 937 018a 2CF8023B 		strh	r3, [ip], #2	@ movhi
 938 018e 1B0C     		lsrs	r3, r3, #16
 939 0190 8CF80030 		strb	r3, [ip]
 254:Core/Src/ili9341.c ****     }
 940              		.loc 1 254 9 is_stmt 1 view .LVU206
 941 0194 0F21     		movs	r1, #15
 942 0196 6846     		mov	r0, sp
 943 0198 FFF7FEFF 		bl	ili9341WriteData
 944              	.LVL78:
 945              	.LBE22:
 258:Core/Src/ili9341.c ****     {
 946              		.loc 1 258 5 view .LVU207
 947 019c E120     		movs	r0, #225
 948 019e FFF7FEFF 		bl	ili9341WriteCommand
 949              	.LVL79:
 950              	.LBB23:
 260:Core/Src/ili9341.c ****                           0x48, 0x08, 0x0F, 0x0C, 0x31, 0x36, 0x0F};
 951              		.loc 1 260 9 view .LVU208
 260:Core/Src/ili9341.c ****                           0x48, 0x08, 0x0F, 0x0C, 0x31, 0x36, 0x0F};
 952              		.loc 1 260 17 is_stmt 0 view .LVU209
 953 01a2 EC46     		mov	ip, sp
 954 01a4 1034     		adds	r4, r4, #16
 955 01a6 94E80F00 		ldm	r4, {r0, r1, r2, r3}
 956 01aa ACE80700 		stmia	ip!, {r0, r1, r2}
 957 01ae 2CF8023B 		strh	r3, [ip], #2	@ movhi
 958 01b2 1B0C     		lsrs	r3, r3, #16
 959 01b4 8CF80030 		strb	r3, [ip]
 262:Core/Src/ili9341.c ****     }
 960              		.loc 1 262 9 is_stmt 1 view .LVU210
 961 01b8 0F21     		movs	r1, #15
 962 01ba 6846     		mov	r0, sp
 963 01bc FFF7FEFF 		bl	ili9341WriteData
 964              	.LVL80:
 965              	.LBE23:
 266:Core/Src/ili9341.c ****     delay(120);
 966              		.loc 1 266 5 view .LVU211
 967 01c0 1120     		movs	r0, #17
 968 01c2 FFF7FEFF 		bl	ili9341WriteCommand
 969              	.LVL81:
 267:Core/Src/ili9341.c **** 
 970              		.loc 1 267 5 view .LVU212
 971 01c6 7820     		movs	r0, #120
 972 01c8 FFF7FEFF 		bl	delay
 973              	.LVL82:
 270:Core/Src/ili9341.c **** 
 974              		.loc 1 270 5 view .LVU213
ARM GAS  /var/folders/9y/n02fl3g16gnf7ppy14xghdy80000gn/T//ccqd2uAD.s 			page 28


 975 01cc 2920     		movs	r0, #41
 976 01ce FFF7FEFF 		bl	ili9341WriteCommand
 977              	.LVL83:
 273:Core/Src/ili9341.c **** }
 978              		.loc 1 273 5 view .LVU214
 979 01d2 0320     		movs	r0, #3
 980 01d4 FFF7FEFF 		bl	ili9341SetRotation
 981              	.LVL84:
 274:Core/Src/ili9341.c **** 
 982              		.loc 1 274 1 is_stmt 0 view .LVU215
 983 01d8 05B0     		add	sp, sp, #20
 984              		.cfi_def_cfa_offset 12
 985              		@ sp needed
 986 01da 30BD     		pop	{r4, r5, pc}
 987              	.L42:
 988              		.align	2
 989              	.L41:
 990 01dc 00000000 		.word	.LANCHOR6
 991 01e0 64031281 		.word	-2129525916
 992 01e4 00000000 		.word	.LC3
 993 01e8 04000000 		.word	.LC4
 994              		.cfi_endproc
 995              	.LFE1161:
 997              		.section	.text.ili9341DrawColor,"ax",%progbits
 998              		.align	1
 999              		.global	ili9341DrawColor
 1000              		.syntax unified
 1001              		.thumb
 1002              		.thumb_func
 1003              		.fpu fpv4-sp-d16
 1005              	ili9341DrawColor:
 1006              	.LVL85:
 1007              	.LFB1162:
 279:Core/Src/ili9341.c ****     // SENDS color
 1008              		.loc 1 279 1 is_stmt 1 view -0
 1009              		.cfi_startproc
 1010              		@ args = 0, pretend = 0, frame = 8
 1011              		@ frame_needed = 0, uses_anonymous_args = 0
 279:Core/Src/ili9341.c ****     // SENDS color
 1012              		.loc 1 279 1 is_stmt 0 view .LVU217
 1013 0000 10B5     		push	{r4, lr}
 1014              		.cfi_def_cfa_offset 8
 1015              		.cfi_offset 4, -8
 1016              		.cfi_offset 14, -4
 1017 0002 82B0     		sub	sp, sp, #8
 1018              		.cfi_def_cfa_offset 16
 281:Core/Src/ili9341.c ****     ILI9341_DATA;
 1019              		.loc 1 281 5 is_stmt 1 view .LVU218
 281:Core/Src/ili9341.c ****     ILI9341_DATA;
 1020              		.loc 1 281 19 is_stmt 0 view .LVU219
 1021 0004 030A     		lsrs	r3, r0, #8
 1022 0006 8DF80430 		strb	r3, [sp, #4]
 1023 000a 8DF80500 		strb	r0, [sp, #5]
 282:Core/Src/ili9341.c ****     ILI9341_CS_RESET;
 1024              		.loc 1 282 5 is_stmt 1 view .LVU220
 1025 000e 4FF09044 		mov	r4, #1207959552
 1026 0012 A369     		ldr	r3, [r4, #24]
ARM GAS  /var/folders/9y/n02fl3g16gnf7ppy14xghdy80000gn/T//ccqd2uAD.s 			page 29


 1027 0014 43F00803 		orr	r3, r3, #8
 1028 0018 A361     		str	r3, [r4, #24]
 283:Core/Src/ili9341.c ****     spi1Transfer((uint8_t *)tempBuffer, &rxBuf, 2);
 1029              		.loc 1 283 5 view .LVU221
 1030 001a A369     		ldr	r3, [r4, #24]
 1031 001c 43F48013 		orr	r3, r3, #1048576
 1032 0020 A361     		str	r3, [r4, #24]
 284:Core/Src/ili9341.c ****     ILI9341_CS_SET;
 1033              		.loc 1 284 5 view .LVU222
 1034 0022 0222     		movs	r2, #2
 1035 0024 0449     		ldr	r1, .L45
 1036 0026 01A8     		add	r0, sp, #4
 1037              	.LVL86:
 284:Core/Src/ili9341.c ****     ILI9341_CS_SET;
 1038              		.loc 1 284 5 is_stmt 0 view .LVU223
 1039 0028 FFF7FEFF 		bl	spi1Transfer
 1040              	.LVL87:
 285:Core/Src/ili9341.c **** }
 1041              		.loc 1 285 5 is_stmt 1 view .LVU224
 1042 002c A369     		ldr	r3, [r4, #24]
 1043 002e 43F01003 		orr	r3, r3, #16
 1044 0032 A361     		str	r3, [r4, #24]
 286:Core/Src/ili9341.c **** 
 1045              		.loc 1 286 1 is_stmt 0 view .LVU225
 1046 0034 02B0     		add	sp, sp, #8
 1047              		.cfi_def_cfa_offset 8
 1048              		@ sp needed
 1049 0036 10BD     		pop	{r4, pc}
 1050              	.L46:
 1051              		.align	2
 1052              	.L45:
 1053 0038 00000000 		.word	.LANCHOR2
 1054              		.cfi_endproc
 1055              	.LFE1162:
 1057              		.section	.text.ili9341DrawColorBurst,"ax",%progbits
 1058              		.align	1
 1059              		.global	ili9341DrawColorBurst
 1060              		.syntax unified
 1061              		.thumb
 1062              		.thumb_func
 1063              		.fpu fpv4-sp-d16
 1065              	ili9341DrawColorBurst:
 1066              	.LVL88:
 1067              	.LFB1163:
 291:Core/Src/ili9341.c ****     // SENDS color
 1068              		.loc 1 291 1 is_stmt 1 view -0
 1069              		.cfi_startproc
 1070              		@ args = 0, pretend = 0, frame = 0
 1071              		@ frame_needed = 1, uses_anonymous_args = 0
 291:Core/Src/ili9341.c ****     // SENDS color
 1072              		.loc 1 291 1 is_stmt 0 view .LVU227
 1073 0000 2DE9F843 		push	{r3, r4, r5, r6, r7, r8, r9, lr}
 1074              		.cfi_def_cfa_offset 32
 1075              		.cfi_offset 3, -32
 1076              		.cfi_offset 4, -28
 1077              		.cfi_offset 5, -24
 1078              		.cfi_offset 6, -20
ARM GAS  /var/folders/9y/n02fl3g16gnf7ppy14xghdy80000gn/T//ccqd2uAD.s 			page 30


 1079              		.cfi_offset 7, -16
 1080              		.cfi_offset 8, -12
 1081              		.cfi_offset 9, -8
 1082              		.cfi_offset 14, -4
 1083 0004 00AF     		add	r7, sp, #0
 1084              		.cfi_def_cfa_register 7
 293:Core/Src/ili9341.c ****     if ((size * 2) < BURST_MAX_SIZE)
 1085              		.loc 1 293 5 is_stmt 1 view .LVU228
 1086              	.LVL89:
 294:Core/Src/ili9341.c ****     {
 1087              		.loc 1 294 5 view .LVU229
 294:Core/Src/ili9341.c ****     {
 1088              		.loc 1 294 15 is_stmt 0 view .LVU230
 1089 0006 4E00     		lsls	r6, r1, #1
 294:Core/Src/ili9341.c ****     {
 1090              		.loc 1 294 8 view .LVU231
 1091 0008 47F22F53 		movw	r3, #29999
 1092 000c B3EB410F 		cmp	r3, r1, lsl #1
 1093 0010 0AD2     		bcs	.L55
 300:Core/Src/ili9341.c ****     }
 1094              		.loc 1 300 21 view .LVU232
 1095 0012 47F23055 		movw	r5, #30000
 1096              	.L48:
 1097              	.LVL90:
 303:Core/Src/ili9341.c **** 
 1098              		.loc 1 303 5 is_stmt 1 view .LVU233
 303:Core/Src/ili9341.c **** 
 1099              		.loc 1 303 19 is_stmt 0 view .LVU234
 1100 0016 010A     		lsrs	r1, r0, #8
 1101              	.LVL91:
 305:Core/Src/ili9341.c ****     for (uint32_t j = 0; j < buffer_size; j += 2)
 1102              		.loc 1 305 5 is_stmt 1 view .LVU235
 305:Core/Src/ili9341.c ****     for (uint32_t j = 0; j < buffer_size; j += 2)
 1103              		.loc 1 305 19 is_stmt 0 view .LVU236
 1104 0018 EB1D     		adds	r3, r5, #7
 1105 001a 23F00703 		bic	r3, r3, #7
 1106 001e ADEB030D 		sub	sp, sp, r3
 1107 0022 6C46     		mov	r4, sp
 1108              	.LVL92:
 306:Core/Src/ili9341.c ****     {
 1109              		.loc 1 306 5 is_stmt 1 view .LVU237
 1110              	.LBB24:
 306:Core/Src/ili9341.c ****     {
 1111              		.loc 1 306 10 view .LVU238
 306:Core/Src/ili9341.c ****     {
 1112              		.loc 1 306 19 is_stmt 0 view .LVU239
 1113 0024 0023     		movs	r3, #0
 306:Core/Src/ili9341.c ****     {
 1114              		.loc 1 306 5 view .LVU240
 1115 0026 05E0     		b	.L49
 1116              	.LVL93:
 1117              	.L55:
 306:Core/Src/ili9341.c ****     {
 1118              		.loc 1 306 5 view .LVU241
 1119              	.LBE24:
 296:Core/Src/ili9341.c ****     }
 1120              		.loc 1 296 21 view .LVU242
ARM GAS  /var/folders/9y/n02fl3g16gnf7ppy14xghdy80000gn/T//ccqd2uAD.s 			page 31


 1121 0028 3546     		mov	r5, r6
 1122 002a F4E7     		b	.L48
 1123              	.LVL94:
 1124              	.L50:
 1125              	.LBB25:
 308:Core/Src/ili9341.c ****         burst_buffer[j + 1] = color;
 1126              		.loc 1 308 9 is_stmt 1 discriminator 3 view .LVU243
 308:Core/Src/ili9341.c ****         burst_buffer[j + 1] = color;
 1127              		.loc 1 308 25 is_stmt 0 discriminator 3 view .LVU244
 1128 002c E154     		strb	r1, [r4, r3]
 309:Core/Src/ili9341.c ****     }
 1129              		.loc 1 309 9 is_stmt 1 discriminator 3 view .LVU245
 309:Core/Src/ili9341.c ****     }
 1130              		.loc 1 309 24 is_stmt 0 discriminator 3 view .LVU246
 1131 002e 5A1C     		adds	r2, r3, #1
 309:Core/Src/ili9341.c ****     }
 1132              		.loc 1 309 29 discriminator 3 view .LVU247
 1133 0030 A054     		strb	r0, [r4, r2]
 306:Core/Src/ili9341.c ****     {
 1134              		.loc 1 306 43 is_stmt 1 discriminator 3 view .LVU248
 306:Core/Src/ili9341.c ****     {
 1135              		.loc 1 306 45 is_stmt 0 discriminator 3 view .LVU249
 1136 0032 0233     		adds	r3, r3, #2
 1137              	.LVL95:
 1138              	.L49:
 306:Core/Src/ili9341.c ****     {
 1139              		.loc 1 306 26 is_stmt 1 discriminator 1 view .LVU250
 306:Core/Src/ili9341.c ****     {
 1140              		.loc 1 306 5 is_stmt 0 discriminator 1 view .LVU251
 1141 0034 AB42     		cmp	r3, r5
 1142 0036 F9D3     		bcc	.L50
 1143              	.LBE25:
 311:Core/Src/ili9341.c ****     uint32_t sending_in_block = sending_size / buffer_size;
 1144              		.loc 1 311 5 is_stmt 1 view .LVU252
 1145              	.LVL96:
 312:Core/Src/ili9341.c ****     uint32_t remainder_from_block = sending_size % buffer_size;
 1146              		.loc 1 312 5 view .LVU253
 312:Core/Src/ili9341.c ****     uint32_t remainder_from_block = sending_size % buffer_size;
 1147              		.loc 1 312 14 is_stmt 0 view .LVU254
 1148 0038 B6FBF5F8 		udiv	r8, r6, r5
 1149              	.LVL97:
 313:Core/Src/ili9341.c **** 
 1150              		.loc 1 313 5 is_stmt 1 view .LVU255
 313:Core/Src/ili9341.c **** 
 1151              		.loc 1 313 14 is_stmt 0 view .LVU256
 1152 003c 05FB1869 		mls	r9, r5, r8, r6
 1153              	.LVL98:
 315:Core/Src/ili9341.c ****     ILI9341_CS_RESET;
 1154              		.loc 1 315 5 is_stmt 1 view .LVU257
 1155 0040 4FF09043 		mov	r3, #1207959552
 1156              	.LVL99:
 315:Core/Src/ili9341.c ****     ILI9341_CS_RESET;
 1157              		.loc 1 315 5 is_stmt 0 view .LVU258
 1158 0044 9A69     		ldr	r2, [r3, #24]
 1159 0046 42F00802 		orr	r2, r2, #8
 1160 004a 9A61     		str	r2, [r3, #24]
 316:Core/Src/ili9341.c **** 
ARM GAS  /var/folders/9y/n02fl3g16gnf7ppy14xghdy80000gn/T//ccqd2uAD.s 			page 32


 1161              		.loc 1 316 5 is_stmt 1 view .LVU259
 1162 004c 9A69     		ldr	r2, [r3, #24]
 1163 004e 42F48012 		orr	r2, r2, #1048576
 1164 0052 9A61     		str	r2, [r3, #24]
 318:Core/Src/ili9341.c ****     {
 1165              		.loc 1 318 5 view .LVU260
 318:Core/Src/ili9341.c ****     {
 1166              		.loc 1 318 8 is_stmt 0 view .LVU261
 1167 0054 AE42     		cmp	r6, r5
 1168 0056 0BD2     		bcs	.L56
 1169              	.LVL100:
 1170              	.L52:
 327:Core/Src/ili9341.c ****         spi1Transfer((uint8_t *)burst_buffer, &rxBuf, remainder_from_block);
 1171              		.loc 1 327 5 is_stmt 1 view .LVU262
 327:Core/Src/ili9341.c ****         spi1Transfer((uint8_t *)burst_buffer, &rxBuf, remainder_from_block);
 1172              		.loc 1 327 8 is_stmt 0 view .LVU263
 1173 0058 B9F1000F 		cmp	r9, #0
 1174 005c 12D1     		bne	.L58
 1175              	.L54:
 330:Core/Src/ili9341.c **** }
 1176              		.loc 1 330 5 is_stmt 1 view .LVU264
 1177 005e 4FF09042 		mov	r2, #1207959552
 1178 0062 9369     		ldr	r3, [r2, #24]
 1179 0064 43F01003 		orr	r3, r3, #16
 1180 0068 9361     		str	r3, [r2, #24]
 331:Core/Src/ili9341.c **** 
 1181              		.loc 1 331 1 is_stmt 0 view .LVU265
 1182 006a BD46     		mov	sp, r7
 1183              		.cfi_remember_state
 1184              		.cfi_def_cfa_register 13
 1185              		@ sp needed
 1186 006c BDE8F883 		pop	{r3, r4, r5, r6, r7, r8, r9, pc}
 1187              	.LVL101:
 1188              	.L56:
 1189              		.cfi_restore_state
 1190              	.LBB26:
 320:Core/Src/ili9341.c ****         {
 1191              		.loc 1 320 23 view .LVU266
 1192 0070 0026     		movs	r6, #0
 1193              	.LVL102:
 1194              	.L51:
 320:Core/Src/ili9341.c ****         {
 1195              		.loc 1 320 30 is_stmt 1 discriminator 1 view .LVU267
 320:Core/Src/ili9341.c ****         {
 1196              		.loc 1 320 9 is_stmt 0 discriminator 1 view .LVU268
 1197 0072 4645     		cmp	r6, r8
 1198 0074 F0D2     		bcs	.L52
 322:Core/Src/ili9341.c ****         }
 1199              		.loc 1 322 13 is_stmt 1 discriminator 3 view .LVU269
 1200 0076 2A46     		mov	r2, r5
 1201 0078 0549     		ldr	r1, .L59
 1202 007a 2046     		mov	r0, r4
 1203 007c FFF7FEFF 		bl	spi1Transfer
 1204              	.LVL103:
 320:Core/Src/ili9341.c ****         {
 1205              		.loc 1 320 54 discriminator 3 view .LVU270
 320:Core/Src/ili9341.c ****         {
ARM GAS  /var/folders/9y/n02fl3g16gnf7ppy14xghdy80000gn/T//ccqd2uAD.s 			page 33


 1206              		.loc 1 320 55 is_stmt 0 discriminator 3 view .LVU271
 1207 0080 0136     		adds	r6, r6, #1
 1208              	.LVL104:
 320:Core/Src/ili9341.c ****         {
 1209              		.loc 1 320 55 discriminator 3 view .LVU272
 1210 0082 F6E7     		b	.L51
 1211              	.LVL105:
 1212              	.L58:
 320:Core/Src/ili9341.c ****         {
 1213              		.loc 1 320 55 discriminator 3 view .LVU273
 1214              	.LBE26:
 328:Core/Src/ili9341.c **** 
 1215              		.loc 1 328 9 is_stmt 1 view .LVU274
 1216 0084 4A46     		mov	r2, r9
 1217 0086 0249     		ldr	r1, .L59
 1218 0088 2046     		mov	r0, r4
 1219 008a FFF7FEFF 		bl	spi1Transfer
 1220              	.LVL106:
 1221 008e E6E7     		b	.L54
 1222              	.L60:
 1223              		.align	2
 1224              	.L59:
 1225 0090 00000000 		.word	.LANCHOR2
 1226              		.cfi_endproc
 1227              	.LFE1163:
 1229              		.section	.text.ili9341FillScreen,"ax",%progbits
 1230              		.align	1
 1231              		.global	ili9341FillScreen
 1232              		.syntax unified
 1233              		.thumb
 1234              		.thumb_func
 1235              		.fpu fpv4-sp-d16
 1237              	ili9341FillScreen:
 1238              	.LVL107:
 1239              	.LFB1164:
 336:Core/Src/ili9341.c ****     ili9341SetAddress(0, 0, _lcd_width, _lcd_height);
 1240              		.loc 1 336 1 view -0
 1241              		.cfi_startproc
 1242              		@ args = 0, pretend = 0, frame = 0
 1243              		@ frame_needed = 0, uses_anonymous_args = 0
 336:Core/Src/ili9341.c ****     ili9341SetAddress(0, 0, _lcd_width, _lcd_height);
 1244              		.loc 1 336 1 is_stmt 0 view .LVU276
 1245 0000 70B5     		push	{r4, r5, r6, lr}
 1246              		.cfi_def_cfa_offset 16
 1247              		.cfi_offset 4, -16
 1248              		.cfi_offset 5, -12
 1249              		.cfi_offset 6, -8
 1250              		.cfi_offset 14, -4
 1251 0002 0446     		mov	r4, r0
 337:Core/Src/ili9341.c ****     ili9341DrawColorBurst(color, (_lcd_width * _lcd_height));
 1252              		.loc 1 337 5 is_stmt 1 view .LVU277
 1253 0004 094E     		ldr	r6, .L63
 1254 0006 3288     		ldrh	r2, [r6]
 1255 0008 094D     		ldr	r5, .L63+4
 1256 000a 2B88     		ldrh	r3, [r5]
 1257 000c 9BB2     		uxth	r3, r3
 1258 000e 92B2     		uxth	r2, r2
ARM GAS  /var/folders/9y/n02fl3g16gnf7ppy14xghdy80000gn/T//ccqd2uAD.s 			page 34


 1259 0010 0021     		movs	r1, #0
 1260 0012 0846     		mov	r0, r1
 1261              	.LVL108:
 337:Core/Src/ili9341.c ****     ili9341DrawColorBurst(color, (_lcd_width * _lcd_height));
 1262              		.loc 1 337 5 is_stmt 0 view .LVU278
 1263 0014 FFF7FEFF 		bl	ili9341SetAddress
 1264              	.LVL109:
 338:Core/Src/ili9341.c **** }
 1265              		.loc 1 338 5 is_stmt 1 view .LVU279
 338:Core/Src/ili9341.c **** }
 1266              		.loc 1 338 46 is_stmt 0 view .LVU280
 1267 0018 3388     		ldrh	r3, [r6]
 1268 001a 9BB2     		uxth	r3, r3
 1269 001c 2988     		ldrh	r1, [r5]
 1270 001e 89B2     		uxth	r1, r1
 338:Core/Src/ili9341.c **** }
 1271              		.loc 1 338 5 view .LVU281
 1272 0020 03FB01F1 		mul	r1, r3, r1
 1273 0024 2046     		mov	r0, r4
 1274 0026 FFF7FEFF 		bl	ili9341DrawColorBurst
 1275              	.LVL110:
 339:Core/Src/ili9341.c **** 
 1276              		.loc 1 339 1 view .LVU282
 1277 002a 70BD     		pop	{r4, r5, r6, pc}
 1278              	.L64:
 1279              		.align	2
 1280              	.L63:
 1281 002c 00000000 		.word	.LANCHOR4
 1282 0030 00000000 		.word	.LANCHOR5
 1283              		.cfi_endproc
 1284              	.LFE1164:
 1286              		.section	.text.ili9341DrawPixel,"ax",%progbits
 1287              		.align	1
 1288              		.global	ili9341DrawPixel
 1289              		.syntax unified
 1290              		.thumb
 1291              		.thumb_func
 1292              		.fpu fpv4-sp-d16
 1294              	ili9341DrawPixel:
 1295              	.LVL111:
 1296              	.LFB1165:
 348:Core/Src/ili9341.c ****     if ((x >= _lcd_width) || (y >= _lcd_height))
 1297              		.loc 1 348 1 is_stmt 1 view -0
 1298              		.cfi_startproc
 1299              		@ args = 0, pretend = 0, frame = 16
 1300              		@ frame_needed = 0, uses_anonymous_args = 0
 349:Core/Src/ili9341.c ****         return; // OUT OF BOUNDS!
 1301              		.loc 1 349 5 view .LVU284
 349:Core/Src/ili9341.c ****         return; // OUT OF BOUNDS!
 1302              		.loc 1 349 12 is_stmt 0 view .LVU285
 1303 0000 234B     		ldr	r3, .L74
 1304 0002 1B88     		ldrh	r3, [r3]
 1305 0004 9BB2     		uxth	r3, r3
 349:Core/Src/ili9341.c ****         return; // OUT OF BOUNDS!
 1306              		.loc 1 349 8 view .LVU286
 1307 0006 8342     		cmp	r3, r0
 1308 0008 40D9     		bls	.L70
ARM GAS  /var/folders/9y/n02fl3g16gnf7ppy14xghdy80000gn/T//ccqd2uAD.s 			page 35


 348:Core/Src/ili9341.c ****     if ((x >= _lcd_width) || (y >= _lcd_height))
 1309              		.loc 1 348 1 discriminator 1 view .LVU287
 1310 000a 70B5     		push	{r4, r5, r6, lr}
 1311              		.cfi_def_cfa_offset 16
 1312              		.cfi_offset 4, -16
 1313              		.cfi_offset 5, -12
 1314              		.cfi_offset 6, -8
 1315              		.cfi_offset 14, -4
 1316 000c 84B0     		sub	sp, sp, #16
 1317              		.cfi_def_cfa_offset 32
 1318 000e 0446     		mov	r4, r0
 1319 0010 0D46     		mov	r5, r1
 1320 0012 1646     		mov	r6, r2
 349:Core/Src/ili9341.c ****         return; // OUT OF BOUNDS!
 1321              		.loc 1 349 33 discriminator 1 view .LVU288
 1322 0014 1F4B     		ldr	r3, .L74+4
 1323 0016 1B88     		ldrh	r3, [r3]
 1324 0018 9BB2     		uxth	r3, r3
 349:Core/Src/ili9341.c ****         return; // OUT OF BOUNDS!
 1325              		.loc 1 349 27 discriminator 1 view .LVU289
 1326 001a 8B42     		cmp	r3, r1
 1327 001c 01D8     		bhi	.L73
 1328              	.LVL112:
 1329              	.L65:
 372:Core/Src/ili9341.c **** 
 1330              		.loc 1 372 1 view .LVU290
 1331 001e 04B0     		add	sp, sp, #16
 1332              		.cfi_remember_state
 1333              		.cfi_def_cfa_offset 16
 1334              		@ sp needed
 1335 0020 70BD     		pop	{r4, r5, r6, pc}
 1336              	.LVL113:
 1337              	.L73:
 1338              		.cfi_restore_state
 353:Core/Src/ili9341.c **** 
 1339              		.loc 1 353 5 is_stmt 1 view .LVU291
 1340 0022 2A20     		movs	r0, #42
 1341              	.LVL114:
 353:Core/Src/ili9341.c **** 
 1342              		.loc 1 353 5 is_stmt 0 view .LVU292
 1343 0024 FFF7FEFF 		bl	ili9341WriteCommand
 1344              	.LVL115:
 356:Core/Src/ili9341.c ****     ili9341WriteData(temp_buffer, 4);
 1345              		.loc 1 356 5 is_stmt 1 view .LVU293
 356:Core/Src/ili9341.c ****     ili9341WriteData(temp_buffer, 4);
 1346              		.loc 1 356 13 is_stmt 0 view .LVU294
 1347 0028 230A     		lsrs	r3, r4, #8
 1348 002a 8DF80C30 		strb	r3, [sp, #12]
 1349 002e E3B2     		uxtb	r3, r4
 1350 0030 8DF80D30 		strb	r3, [sp, #13]
 356:Core/Src/ili9341.c ****     ili9341WriteData(temp_buffer, 4);
 1351              		.loc 1 356 45 view .LVU295
 1352 0034 0134     		adds	r4, r4, #1
 356:Core/Src/ili9341.c ****     ili9341WriteData(temp_buffer, 4);
 1353              		.loc 1 356 50 view .LVU296
 1354 0036 2412     		asrs	r4, r4, #8
 356:Core/Src/ili9341.c ****     ili9341WriteData(temp_buffer, 4);
ARM GAS  /var/folders/9y/n02fl3g16gnf7ppy14xghdy80000gn/T//ccqd2uAD.s 			page 36


 1355              		.loc 1 356 13 view .LVU297
 1356 0038 8DF80E40 		strb	r4, [sp, #14]
 356:Core/Src/ili9341.c ****     ili9341WriteData(temp_buffer, 4);
 1357              		.loc 1 356 59 view .LVU298
 1358 003c 0133     		adds	r3, r3, #1
 356:Core/Src/ili9341.c ****     ili9341WriteData(temp_buffer, 4);
 1359              		.loc 1 356 13 view .LVU299
 1360 003e 8DF80F30 		strb	r3, [sp, #15]
 357:Core/Src/ili9341.c **** 
 1361              		.loc 1 357 5 is_stmt 1 view .LVU300
 1362 0042 0421     		movs	r1, #4
 1363 0044 03A8     		add	r0, sp, #12
 1364 0046 FFF7FEFF 		bl	ili9341WriteData
 1365              	.LVL116:
 360:Core/Src/ili9341.c **** 
 1366              		.loc 1 360 5 view .LVU301
 1367 004a 2B20     		movs	r0, #43
 1368 004c FFF7FEFF 		bl	ili9341WriteCommand
 1369              	.LVL117:
 363:Core/Src/ili9341.c ****     ili9341WriteData(temp_buffer1, 4);
 1370              		.loc 1 363 5 view .LVU302
 363:Core/Src/ili9341.c ****     ili9341WriteData(temp_buffer1, 4);
 1371              		.loc 1 363 13 is_stmt 0 view .LVU303
 1372 0050 2B0A     		lsrs	r3, r5, #8
 1373 0052 8DF80830 		strb	r3, [sp, #8]
 1374 0056 EBB2     		uxtb	r3, r5
 1375 0058 8DF80930 		strb	r3, [sp, #9]
 363:Core/Src/ili9341.c ****     ili9341WriteData(temp_buffer1, 4);
 1376              		.loc 1 363 46 view .LVU304
 1377 005c 0135     		adds	r5, r5, #1
 363:Core/Src/ili9341.c ****     ili9341WriteData(temp_buffer1, 4);
 1378              		.loc 1 363 51 view .LVU305
 1379 005e 2D12     		asrs	r5, r5, #8
 363:Core/Src/ili9341.c ****     ili9341WriteData(temp_buffer1, 4);
 1380              		.loc 1 363 13 view .LVU306
 1381 0060 8DF80A50 		strb	r5, [sp, #10]
 363:Core/Src/ili9341.c ****     ili9341WriteData(temp_buffer1, 4);
 1382              		.loc 1 363 60 view .LVU307
 1383 0064 0133     		adds	r3, r3, #1
 363:Core/Src/ili9341.c ****     ili9341WriteData(temp_buffer1, 4);
 1384              		.loc 1 363 13 view .LVU308
 1385 0066 8DF80B30 		strb	r3, [sp, #11]
 364:Core/Src/ili9341.c **** 
 1386              		.loc 1 364 5 is_stmt 1 view .LVU309
 1387 006a 0421     		movs	r1, #4
 1388 006c 02A8     		add	r0, sp, #8
 1389 006e FFF7FEFF 		bl	ili9341WriteData
 1390              	.LVL118:
 367:Core/Src/ili9341.c **** 
 1391              		.loc 1 367 5 view .LVU310
 1392 0072 2C20     		movs	r0, #44
 1393 0074 FFF7FEFF 		bl	ili9341WriteCommand
 1394              	.LVL119:
 370:Core/Src/ili9341.c ****     ili9341WriteData(temp_buffer2, 2);
 1395              		.loc 1 370 5 view .LVU311
 370:Core/Src/ili9341.c ****     ili9341WriteData(temp_buffer2, 2);
 1396              		.loc 1 370 13 is_stmt 0 view .LVU312
ARM GAS  /var/folders/9y/n02fl3g16gnf7ppy14xghdy80000gn/T//ccqd2uAD.s 			page 37


 1397 0078 330A     		lsrs	r3, r6, #8
 1398 007a 8DF80430 		strb	r3, [sp, #4]
 1399 007e 8DF80560 		strb	r6, [sp, #5]
 371:Core/Src/ili9341.c **** }
 1400              		.loc 1 371 5 is_stmt 1 view .LVU313
 1401 0082 0221     		movs	r1, #2
 1402 0084 01A8     		add	r0, sp, #4
 1403 0086 FFF7FEFF 		bl	ili9341WriteData
 1404              	.LVL120:
 1405 008a C8E7     		b	.L65
 1406              	.LVL121:
 1407              	.L70:
 1408              		.cfi_def_cfa_offset 0
 1409              		.cfi_restore 4
 1410              		.cfi_restore 5
 1411              		.cfi_restore 6
 1412              		.cfi_restore 14
 371:Core/Src/ili9341.c **** }
 1413              		.loc 1 371 5 is_stmt 0 view .LVU314
 1414 008c 7047     		bx	lr
 1415              	.L75:
 1416 008e 00BF     		.align	2
 1417              	.L74:
 1418 0090 00000000 		.word	.LANCHOR4
 1419 0094 00000000 		.word	.LANCHOR5
 1420              		.cfi_endproc
 1421              	.LFE1165:
 1423              		.section	.text.ili9341DrawImage,"ax",%progbits
 1424              		.align	1
 1425              		.global	ili9341DrawImage
 1426              		.syntax unified
 1427              		.thumb
 1428              		.thumb_func
 1429              		.fpu fpv4-sp-d16
 1431              	ili9341DrawImage:
 1432              	.LVL122:
 1433              	.LFB1166:
 375:Core/Src/ili9341.c ****     if ((x >= ILI9341_SCREEN_WIDTH) || (y >= ILI9341_SCREEN_HEIGHT))
 1434              		.loc 1 375 1 is_stmt 1 view -0
 1435              		.cfi_startproc
 1436              		@ args = 4, pretend = 0, frame = 0
 1437              		@ frame_needed = 0, uses_anonymous_args = 0
 376:Core/Src/ili9341.c ****         return;
 1438              		.loc 1 376 5 view .LVU316
 376:Core/Src/ili9341.c ****         return;
 1439              		.loc 1 376 8 is_stmt 0 view .LVU317
 1440 0000 B0F5A07F 		cmp	r0, #320
 1441 0004 44D2     		bcs	.L82
 375:Core/Src/ili9341.c ****     if ((x >= ILI9341_SCREEN_WIDTH) || (y >= ILI9341_SCREEN_HEIGHT))
 1442              		.loc 1 375 1 discriminator 1 view .LVU318
 1443 0006 F8B5     		push	{r3, r4, r5, r6, r7, lr}
 1444              		.cfi_def_cfa_offset 24
 1445              		.cfi_offset 3, -24
 1446              		.cfi_offset 4, -20
 1447              		.cfi_offset 5, -16
 1448              		.cfi_offset 6, -12
 1449              		.cfi_offset 7, -8
ARM GAS  /var/folders/9y/n02fl3g16gnf7ppy14xghdy80000gn/T//ccqd2uAD.s 			page 38


 1450              		.cfi_offset 14, -4
 1451 0008 1546     		mov	r5, r2
 1452 000a 1C46     		mov	r4, r3
 376:Core/Src/ili9341.c ****         return;
 1453              		.loc 1 376 37 discriminator 1 view .LVU319
 1454 000c EF29     		cmp	r1, #239
 1455 000e 06D8     		bhi	.L76
 378:Core/Src/ili9341.c ****         return;
 1456              		.loc 1 378 5 is_stmt 1 view .LVU320
 378:Core/Src/ili9341.c ****         return;
 1457              		.loc 1 378 12 is_stmt 0 view .LVU321
 1458 0010 8318     		adds	r3, r0, r2
 1459              	.LVL123:
 378:Core/Src/ili9341.c ****         return;
 1460              		.loc 1 378 8 view .LVU322
 1461 0012 B3F5A07F 		cmp	r3, #320
 1462 0016 02DC     		bgt	.L76
 380:Core/Src/ili9341.c ****         return;
 1463              		.loc 1 380 5 is_stmt 1 view .LVU323
 380:Core/Src/ili9341.c ****         return;
 1464              		.loc 1 380 12 is_stmt 0 view .LVU324
 1465 0018 0B19     		adds	r3, r1, r4
 380:Core/Src/ili9341.c ****         return;
 1466              		.loc 1 380 8 view .LVU325
 1467 001a F02B     		cmp	r3, #240
 1468 001c 00DD     		ble	.L85
 1469              	.LVL124:
 1470              	.L76:
 400:Core/Src/ili9341.c **** 
 1471              		.loc 1 400 1 view .LVU326
 1472 001e F8BD     		pop	{r3, r4, r5, r6, r7, pc}
 1473              	.LVL125:
 1474              	.L85:
 383:Core/Src/ili9341.c **** 
 1475              		.loc 1 383 5 is_stmt 1 view .LVU327
 383:Core/Src/ili9341.c **** 
 1476              		.loc 1 383 31 is_stmt 0 view .LVU328
 1477 0020 8218     		adds	r2, r0, r2
 1478              	.LVL126:
 383:Core/Src/ili9341.c **** 
 1479              		.loc 1 383 31 view .LVU329
 1480 0022 92B2     		uxth	r2, r2
 383:Core/Src/ili9341.c **** 
 1481              		.loc 1 383 42 view .LVU330
 1482 0024 9BB2     		uxth	r3, r3
 383:Core/Src/ili9341.c **** 
 1483              		.loc 1 383 5 view .LVU331
 1484 0026 013B     		subs	r3, r3, #1
 1485 0028 013A     		subs	r2, r2, #1
 1486 002a 9BB2     		uxth	r3, r3
 1487 002c 92B2     		uxth	r2, r2
 1488 002e FFF7FEFF 		bl	ili9341SetAddress
 1489              	.LVL127:
 385:Core/Src/ili9341.c ****     uint8_t bursts_to_send;
 1490              		.loc 1 385 5 is_stmt 1 view .LVU332
 386:Core/Src/ili9341.c ****     uint16_t burst_remainder;
 1491              		.loc 1 386 5 view .LVU333
ARM GAS  /var/folders/9y/n02fl3g16gnf7ppy14xghdy80000gn/T//ccqd2uAD.s 			page 39


 387:Core/Src/ili9341.c **** 
 1492              		.loc 1 387 5 view .LVU334
 389:Core/Src/ili9341.c ****         ili9341WriteData((uint8_t *)image, sizeof(uint16_t) * w * h);
 1493              		.loc 1 389 5 view .LVU335
 389:Core/Src/ili9341.c ****         ili9341WriteData((uint8_t *)image, sizeof(uint16_t) * w * h);
 1494              		.loc 1 389 31 is_stmt 0 view .LVU336
 1495 0032 04FB05F3 		mul	r3, r4, r5
 1496 0036 5900     		lsls	r1, r3, #1
 389:Core/Src/ili9341.c ****         ili9341WriteData((uint8_t *)image, sizeof(uint16_t) * w * h);
 1497              		.loc 1 389 8 view .LVU337
 1498 0038 47F22F52 		movw	r2, #29999
 1499 003c B2EB430F 		cmp	r2, r3, lsl #1
 1500 0040 0CD2     		bcs	.L86
 393:Core/Src/ili9341.c ****         burst_remainder = (sizeof(uint16_t) * w * h) % BURST_MAX_SIZE;
 1501              		.loc 1 393 9 is_stmt 1 view .LVU338
 393:Core/Src/ili9341.c ****         burst_remainder = (sizeof(uint16_t) * w * h) % BURST_MAX_SIZE;
 1502              		.loc 1 393 53 is_stmt 0 view .LVU339
 1503 0042 144D     		ldr	r5, .L87
 1504 0044 A5FB0135 		umull	r3, r5, r5, r1
 1505 0048 6E0B     		lsrs	r6, r5, #13
 393:Core/Src/ili9341.c ****         burst_remainder = (sizeof(uint16_t) * w * h) % BURST_MAX_SIZE;
 1506              		.loc 1 393 24 view .LVU340
 1507 004a C5F34735 		ubfx	r5, r5, #13, #8
 1508              	.LVL128:
 394:Core/Src/ili9341.c ****         for (; burst_idx < bursts_to_send; burst_idx++)
 1509              		.loc 1 394 9 is_stmt 1 view .LVU341
 394:Core/Src/ili9341.c ****         for (; burst_idx < bursts_to_send; burst_idx++)
 1510              		.loc 1 394 54 is_stmt 0 view .LVU342
 1511 004e 47F23053 		movw	r3, #30000
 1512 0052 03FB1616 		mls	r6, r3, r6, r1
 394:Core/Src/ili9341.c ****         for (; burst_idx < bursts_to_send; burst_idx++)
 1513              		.loc 1 394 25 view .LVU343
 1514 0056 B7B2     		uxth	r7, r6
 1515              	.LVL129:
 395:Core/Src/ili9341.c ****             ili9341WriteData((uint8_t *)image + (BURST_MAX_SIZE * burst_idx), BURST_MAX_SIZE);
 1516              		.loc 1 395 9 is_stmt 1 view .LVU344
 385:Core/Src/ili9341.c ****     uint8_t bursts_to_send;
 1517              		.loc 1 385 13 is_stmt 0 view .LVU345
 1518 0058 0024     		movs	r4, #0
 395:Core/Src/ili9341.c ****             ili9341WriteData((uint8_t *)image + (BURST_MAX_SIZE * burst_idx), BURST_MAX_SIZE);
 1519              		.loc 1 395 9 view .LVU346
 1520 005a 0CE0     		b	.L79
 1521              	.LVL130:
 1522              	.L86:
 390:Core/Src/ili9341.c ****     else
 1523              		.loc 1 390 9 is_stmt 1 view .LVU347
 1524 005c 0698     		ldr	r0, [sp, #24]
 1525 005e FFF7FEFF 		bl	ili9341WriteData
 1526              	.LVL131:
 1527 0062 DCE7     		b	.L76
 1528              	.LVL132:
 1529              	.L80:
 396:Core/Src/ili9341.c ****         if (burst_remainder)
 1530              		.loc 1 396 13 discriminator 2 view .LVU348
 396:Core/Src/ili9341.c ****         if (burst_remainder)
 1531              		.loc 1 396 65 is_stmt 0 discriminator 2 view .LVU349
 1532 0064 47F23051 		movw	r1, #30000
ARM GAS  /var/folders/9y/n02fl3g16gnf7ppy14xghdy80000gn/T//ccqd2uAD.s 			page 40


 396:Core/Src/ili9341.c ****         if (burst_remainder)
 1533              		.loc 1 396 13 discriminator 2 view .LVU350
 1534 0068 069B     		ldr	r3, [sp, #24]
 1535 006a 01FB0430 		mla	r0, r1, r4, r3
 1536 006e FFF7FEFF 		bl	ili9341WriteData
 1537              	.LVL133:
 395:Core/Src/ili9341.c ****             ili9341WriteData((uint8_t *)image + (BURST_MAX_SIZE * burst_idx), BURST_MAX_SIZE);
 1538              		.loc 1 395 44 is_stmt 1 discriminator 2 view .LVU351
 395:Core/Src/ili9341.c ****             ili9341WriteData((uint8_t *)image + (BURST_MAX_SIZE * burst_idx), BURST_MAX_SIZE);
 1539              		.loc 1 395 53 is_stmt 0 discriminator 2 view .LVU352
 1540 0072 0134     		adds	r4, r4, #1
 1541              	.LVL134:
 395:Core/Src/ili9341.c ****             ili9341WriteData((uint8_t *)image + (BURST_MAX_SIZE * burst_idx), BURST_MAX_SIZE);
 1542              		.loc 1 395 53 discriminator 2 view .LVU353
 1543 0074 E4B2     		uxtb	r4, r4
 1544              	.LVL135:
 1545              	.L79:
 395:Core/Src/ili9341.c ****             ili9341WriteData((uint8_t *)image + (BURST_MAX_SIZE * burst_idx), BURST_MAX_SIZE);
 1546              		.loc 1 395 16 is_stmt 1 discriminator 1 view .LVU354
 395:Core/Src/ili9341.c ****             ili9341WriteData((uint8_t *)image + (BURST_MAX_SIZE * burst_idx), BURST_MAX_SIZE);
 1547              		.loc 1 395 9 is_stmt 0 discriminator 1 view .LVU355
 1548 0076 AC42     		cmp	r4, r5
 1549 0078 F4D3     		bcc	.L80
 397:Core/Src/ili9341.c ****             ili9341WriteData((uint8_t *)image + (BURST_MAX_SIZE * burst_idx), burst_remainder);
 1550              		.loc 1 397 9 is_stmt 1 view .LVU356
 397:Core/Src/ili9341.c ****             ili9341WriteData((uint8_t *)image + (BURST_MAX_SIZE * burst_idx), burst_remainder);
 1551              		.loc 1 397 12 is_stmt 0 view .LVU357
 1552 007a 002F     		cmp	r7, #0
 1553 007c CFD0     		beq	.L76
 398:Core/Src/ili9341.c ****     }
 1554              		.loc 1 398 13 is_stmt 1 view .LVU358
 1555 007e B1B2     		uxth	r1, r6
 1556 0080 47F23050 		movw	r0, #30000
 1557 0084 069B     		ldr	r3, [sp, #24]
 1558 0086 00FB0430 		mla	r0, r0, r4, r3
 1559 008a FFF7FEFF 		bl	ili9341WriteData
 1560              	.LVL136:
 1561 008e C6E7     		b	.L76
 1562              	.LVL137:
 1563              	.L82:
 1564              		.cfi_def_cfa_offset 0
 1565              		.cfi_restore 3
 1566              		.cfi_restore 4
 1567              		.cfi_restore 5
 1568              		.cfi_restore 6
 1569              		.cfi_restore 7
 1570              		.cfi_restore 14
 398:Core/Src/ili9341.c ****     }
 1571              		.loc 1 398 13 is_stmt 0 view .LVU359
 1572 0090 7047     		bx	lr
 1573              	.L88:
 1574 0092 00BF     		.align	2
 1575              	.L87:
 1576 0094 73B2E745 		.word	1172812403
 1577              		.cfi_endproc
 1578              	.LFE1166:
 1580              		.section	.text.ili9341WriteCharFromUART,"ax",%progbits
ARM GAS  /var/folders/9y/n02fl3g16gnf7ppy14xghdy80000gn/T//ccqd2uAD.s 			page 41


 1581              		.align	1
 1582              		.global	ili9341WriteCharFromUART
 1583              		.syntax unified
 1584              		.thumb
 1585              		.thumb_func
 1586              		.fpu fpv4-sp-d16
 1588              	ili9341WriteCharFromUART:
 1589              	.LVL138:
 1590              	.LFB1168:
 426:Core/Src/ili9341.c **** 
 427:Core/Src/ili9341.c **** void ili9341WriteCharFromUART(uint16_t startX, uint16_t startY, FontDef font, uint16_t color, uint1
 428:Core/Src/ili9341.c **** {
 1591              		.loc 1 428 1 is_stmt 1 view -0
 1592              		.cfi_startproc
 1593              		@ args = 8, pretend = 0, frame = 40
 1594              		@ frame_needed = 0, uses_anonymous_args = 0
 1595              		.loc 1 428 1 is_stmt 0 view .LVU361
 1596 0000 2DE9F04F 		push	{r4, r5, r6, r7, r8, r9, r10, fp, lr}
 1597              		.cfi_def_cfa_offset 36
 1598              		.cfi_offset 4, -36
 1599              		.cfi_offset 5, -32
 1600              		.cfi_offset 6, -28
 1601              		.cfi_offset 7, -24
 1602              		.cfi_offset 8, -20
 1603              		.cfi_offset 9, -16
 1604              		.cfi_offset 10, -12
 1605              		.cfi_offset 11, -8
 1606              		.cfi_offset 14, -4
 1607 0004 8FB0     		sub	sp, sp, #60
 1608              		.cfi_def_cfa_offset 96
 1609 0006 0690     		str	r0, [sp, #24]
 1610 0008 0791     		str	r1, [sp, #28]
 1611 000a 0EA9     		add	r1, sp, #56
 1612              	.LVL139:
 1613              		.loc 1 428 1 view .LVU362
 1614 000c 01E90C00 		stmdb	r1, {r2, r3}
 1615 0010 BDF860A0 		ldrh	r10, [sp, #96]
 1616 0014 BDF864B0 		ldrh	fp, [sp, #100]
 429:Core/Src/ili9341.c ****     char ch = '\0';
 1617              		.loc 1 429 5 is_stmt 1 view .LVU363
 1618              	.LVL140:
 430:Core/Src/ili9341.c ****     uint8_t locX = 0;
 1619              		.loc 1 430 5 view .LVU364
 431:Core/Src/ili9341.c ****     uint8_t locY = 0;
 1620              		.loc 1 431 5 view .LVU365
 432:Core/Src/ili9341.c ****     uint8_t maxLocX = ILI9341_SCREEN_WIDTH / font.width;
 1621              		.loc 1 432 5 view .LVU366
 1622              		.loc 1 432 50 is_stmt 0 view .LVU367
 1623 0018 9DF83080 		ldrb	r8, [sp, #48]	@ zero_extendqisi2
 1624              		.loc 1 432 44 view .LVU368
 1625 001c 4FF4A073 		mov	r3, #320
 1626 0020 93FBF8F3 		sdiv	r3, r3, r8
 1627 0024 0B93     		str	r3, [sp, #44]
 1628              		.loc 1 432 13 view .LVU369
 1629 0026 DBB2     		uxtb	r3, r3
 1630 0028 0A93     		str	r3, [sp, #40]
 1631              	.LVL141:
ARM GAS  /var/folders/9y/n02fl3g16gnf7ppy14xghdy80000gn/T//ccqd2uAD.s 			page 42


 433:Core/Src/ili9341.c ****     uint8_t maxLocY = ILI9341_SCREEN_HEIGHT / font.height;
 1632              		.loc 1 433 5 is_stmt 1 view .LVU370
 1633              		.loc 1 433 51 is_stmt 0 view .LVU371
 1634 002a 9DF83170 		ldrb	r7, [sp, #49]	@ zero_extendqisi2
 1635              		.loc 1 433 45 view .LVU372
 1636 002e F023     		movs	r3, #240
 1637 0030 93FBF7F3 		sdiv	r3, r3, r7
 1638 0034 0893     		str	r3, [sp, #32]
 1639              		.loc 1 433 13 view .LVU373
 1640 0036 DBB2     		uxtb	r3, r3
 1641 0038 0993     		str	r3, [sp, #36]
 1642              	.LVL142:
 434:Core/Src/ili9341.c **** 
 435:Core/Src/ili9341.c ****     ili9341DrawHorizontalLine(locX, locY + font.height, font.width, color);
 1643              		.loc 1 435 5 is_stmt 1 view .LVU374
 1644              		.loc 1 435 48 is_stmt 0 view .LVU375
 1645 003a BFB2     		uxth	r7, r7
 1646              		.loc 1 435 5 view .LVU376
 1647 003c 1FFA88F8 		uxth	r8, r8
 1648 0040 5346     		mov	r3, r10
 1649 0042 4246     		mov	r2, r8
 1650 0044 3946     		mov	r1, r7
 1651 0046 0020     		movs	r0, #0
 1652              	.LVL143:
 1653              		.loc 1 435 5 view .LVU377
 1654 0048 FFF7FEFF 		bl	ili9341DrawHorizontalLine
 1655              	.LVL144:
 431:Core/Src/ili9341.c ****     uint8_t maxLocX = ILI9341_SCREEN_WIDTH / font.width;
 1656              		.loc 1 431 13 view .LVU378
 1657 004c 0024     		movs	r4, #0
 430:Core/Src/ili9341.c ****     uint8_t locY = 0;
 1658              		.loc 1 430 13 view .LVU379
 1659 004e 2646     		mov	r6, r4
 1660 0050 2EE0     		b	.L97
 1661              	.LVL145:
 1662              	.L101:
 436:Core/Src/ili9341.c ****     while (1)
 437:Core/Src/ili9341.c ****     {
 438:Core/Src/ili9341.c ****         ch = serialRead();
 439:Core/Src/ili9341.c ****         ili9341DrawHorizontalLine(locX * font.width, (locY * font.height) + font.height, font.width
 440:Core/Src/ili9341.c ****         if (ch == 0x08) // delete key
 441:Core/Src/ili9341.c ****         {
 442:Core/Src/ili9341.c ****             ch = ' ';
 1663              		.loc 1 442 13 is_stmt 1 view .LVU380
 443:Core/Src/ili9341.c ****             if ((locX == 0) && (locY != 0)) // deleting at the beginning of a line
 1664              		.loc 1 443 13 view .LVU381
 1665              		.loc 1 443 16 is_stmt 0 view .LVU382
 1666 0052 36B9     		cbnz	r6, .L91
 1667              		.loc 1 443 29 discriminator 1 view .LVU383
 1668 0054 2CB1     		cbz	r4, .L91
 444:Core/Src/ili9341.c ****             {
 445:Core/Src/ili9341.c ****                 locY--;
 1669              		.loc 1 445 17 is_stmt 1 view .LVU384
 1670              		.loc 1 445 21 is_stmt 0 view .LVU385
 1671 0056 013C     		subs	r4, r4, #1
 1672              	.LVL146:
 1673              		.loc 1 445 21 view .LVU386
ARM GAS  /var/folders/9y/n02fl3g16gnf7ppy14xghdy80000gn/T//ccqd2uAD.s 			page 43


 1674 0058 E4B2     		uxtb	r4, r4
 1675              	.LVL147:
 446:Core/Src/ili9341.c ****                 locX = maxLocX - 2;
 1676              		.loc 1 446 17 is_stmt 1 view .LVU387
 1677              		.loc 1 446 22 is_stmt 0 view .LVU388
 1678 005a 0A9B     		ldr	r3, [sp, #40]
 1679 005c 9E1E     		subs	r6, r3, #2
 1680              	.LVL148:
 1681              		.loc 1 446 22 view .LVU389
 1682 005e F6B2     		uxtb	r6, r6
 1683              	.LVL149:
 1684              		.loc 1 446 22 view .LVU390
 1685 0060 0BE0     		b	.L92
 1686              	.L91:
 447:Core/Src/ili9341.c ****             }
 448:Core/Src/ili9341.c ****             else if ((locX == 0) && (locY == 0)) // very beginning
 1687              		.loc 1 448 18 is_stmt 1 view .LVU391
 1688              		.loc 1 448 21 is_stmt 0 view .LVU392
 1689 0062 3EB9     		cbnz	r6, .L93
 1690              		.loc 1 448 34 discriminator 1 view .LVU393
 1691 0064 34B9     		cbnz	r4, .L93
 449:Core/Src/ili9341.c ****             {
 450:Core/Src/ili9341.c ****                 locX = maxLocX - 2;
 1692              		.loc 1 450 17 is_stmt 1 view .LVU394
 1693              		.loc 1 450 22 is_stmt 0 view .LVU395
 1694 0066 0A9B     		ldr	r3, [sp, #40]
 1695 0068 9E1E     		subs	r6, r3, #2
 1696              	.LVL150:
 1697              		.loc 1 450 22 view .LVU396
 1698 006a F6B2     		uxtb	r6, r6
 1699              	.LVL151:
 451:Core/Src/ili9341.c ****                 locY = maxLocY - 1;
 1700              		.loc 1 451 17 is_stmt 1 view .LVU397
 1701              		.loc 1 451 22 is_stmt 0 view .LVU398
 1702 006c 099B     		ldr	r3, [sp, #36]
 1703 006e 5C1E     		subs	r4, r3, #1
 1704              	.LVL152:
 1705              		.loc 1 451 22 view .LVU399
 1706 0070 E4B2     		uxtb	r4, r4
 1707              	.LVL153:
 1708              		.loc 1 451 22 view .LVU400
 1709 0072 02E0     		b	.L92
 1710              	.L93:
 452:Core/Src/ili9341.c ****             }
 453:Core/Src/ili9341.c ****             else if (locX != 0) // normal case
 1711              		.loc 1 453 18 is_stmt 1 view .LVU401
 1712              		.loc 1 453 21 is_stmt 0 view .LVU402
 1713 0074 0EB1     		cbz	r6, .L92
 454:Core/Src/ili9341.c ****                 locX--;
 1714              		.loc 1 454 17 is_stmt 1 view .LVU403
 1715              		.loc 1 454 21 is_stmt 0 view .LVU404
 1716 0076 013E     		subs	r6, r6, #1
 1717              	.LVL154:
 1718              		.loc 1 454 21 view .LVU405
 1719 0078 F6B2     		uxtb	r6, r6
 1720              	.LVL155:
 1721              	.L92:
ARM GAS  /var/folders/9y/n02fl3g16gnf7ppy14xghdy80000gn/T//ccqd2uAD.s 			page 44


 455:Core/Src/ili9341.c ****             ili9341WriteChar(startX + (locX * font.width), startY + (locY * font.height), ch, font,
 1722              		.loc 1 455 13 is_stmt 1 view .LVU406
 1723 007a 079B     		ldr	r3, [sp, #28]
 1724 007c 04FB0731 		mla	r1, r4, r7, r3
 1725 0080 069B     		ldr	r3, [sp, #24]
 1726 0082 06FB0830 		mla	r0, r6, r8, r3
 1727 0086 CDF808B0 		str	fp, [sp, #8]
 1728 008a CDF804A0 		str	r10, [sp, #4]
 1729 008e 0D9B     		ldr	r3, [sp, #52]
 1730 0090 0093     		str	r3, [sp]
 1731 0092 0C9B     		ldr	r3, [sp, #48]
 1732 0094 2022     		movs	r2, #32
 1733 0096 89B2     		uxth	r1, r1
 1734 0098 80B2     		uxth	r0, r0
 1735 009a FFF7FEFF 		bl	ili9341WriteChar
 1736              	.LVL156:
 1737              	.L94:
 456:Core/Src/ili9341.c ****         }
 457:Core/Src/ili9341.c ****         else if (ch == 0x0D) // return key
 458:Core/Src/ili9341.c ****         {
 459:Core/Src/ili9341.c ****             if (locY + 1 == maxLocY)
 460:Core/Src/ili9341.c ****             {
 461:Core/Src/ili9341.c ****                 locX = 0;
 462:Core/Src/ili9341.c ****                 locY = 0;
 463:Core/Src/ili9341.c ****             }
 464:Core/Src/ili9341.c ****             else
 465:Core/Src/ili9341.c ****             {
 466:Core/Src/ili9341.c ****                 locX = 0;
 467:Core/Src/ili9341.c ****                 locY++;
 468:Core/Src/ili9341.c ****             }
 469:Core/Src/ili9341.c ****         }
 470:Core/Src/ili9341.c ****         else if (ch >= 0x20) // normal character
 471:Core/Src/ili9341.c ****         {
 472:Core/Src/ili9341.c ****             ili9341WriteChar(startX + (locX * font.width), startY + (locY * font.height), ch, font,
 473:Core/Src/ili9341.c ****             locX++;
 474:Core/Src/ili9341.c ****             if (locX + 1 == maxLocX)
 475:Core/Src/ili9341.c ****             {
 476:Core/Src/ili9341.c ****                 locX = 0;
 477:Core/Src/ili9341.c ****                 locY++;
 478:Core/Src/ili9341.c ****             }
 479:Core/Src/ili9341.c ****             if (locY == maxLocY)
 480:Core/Src/ili9341.c ****             {
 481:Core/Src/ili9341.c ****                 locY = 0;
 482:Core/Src/ili9341.c ****             }
 483:Core/Src/ili9341.c ****         }
 484:Core/Src/ili9341.c **** 
 485:Core/Src/ili9341.c ****         ili9341DrawHorizontalLine(locX * font.width, (locY * font.height) + font.height, font.width
 1738              		.loc 1 485 9 view .LVU407
 1739 009e 04FB0771 		mla	r1, r4, r7, r7
 1740 00a2 5346     		mov	r3, r10
 1741 00a4 4246     		mov	r2, r8
 1742 00a6 89B2     		uxth	r1, r1
 1743 00a8 06FB08F0 		mul	r0, r6, r8
 1744 00ac FFF7FEFF 		bl	ili9341DrawHorizontalLine
 1745              	.LVL157:
 436:Core/Src/ili9341.c ****     {
 1746              		.loc 1 436 11 view .LVU408
ARM GAS  /var/folders/9y/n02fl3g16gnf7ppy14xghdy80000gn/T//ccqd2uAD.s 			page 45


 1747              	.L97:
 436:Core/Src/ili9341.c ****     {
 1748              		.loc 1 436 5 view .LVU409
 438:Core/Src/ili9341.c ****         ili9341DrawHorizontalLine(locX * font.width, (locY * font.height) + font.height, font.width
 1749              		.loc 1 438 9 view .LVU410
 438:Core/Src/ili9341.c ****         ili9341DrawHorizontalLine(locX * font.width, (locY * font.height) + font.height, font.width
 1750              		.loc 1 438 14 is_stmt 0 view .LVU411
 1751 00b0 FFF7FEFF 		bl	serialRead
 1752              	.LVL158:
 1753 00b4 0546     		mov	r5, r0
 1754              	.LVL159:
 439:Core/Src/ili9341.c ****         if (ch == 0x08) // delete key
 1755              		.loc 1 439 9 is_stmt 1 view .LVU412
 1756 00b6 06FB08F9 		mul	r9, r6, r8
 439:Core/Src/ili9341.c ****         if (ch == 0x08) // delete key
 1757              		.loc 1 439 75 is_stmt 0 view .LVU413
 1758 00ba A3B2     		uxth	r3, r4
 1759 00bc 0593     		str	r3, [sp, #20]
 439:Core/Src/ili9341.c ****         if (ch == 0x08) // delete key
 1760              		.loc 1 439 9 view .LVU414
 1761 00be 04FB0771 		mla	r1, r4, r7, r7
 1762 00c2 5B46     		mov	r3, fp
 1763 00c4 4246     		mov	r2, r8
 1764 00c6 89B2     		uxth	r1, r1
 1765 00c8 4846     		mov	r0, r9
 1766 00ca FFF7FEFF 		bl	ili9341DrawHorizontalLine
 1767              	.LVL160:
 440:Core/Src/ili9341.c ****         {
 1768              		.loc 1 440 9 is_stmt 1 view .LVU415
 440:Core/Src/ili9341.c ****         {
 1769              		.loc 1 440 12 is_stmt 0 view .LVU416
 1770 00ce 082D     		cmp	r5, #8
 1771 00d0 BFD0     		beq	.L101
 457:Core/Src/ili9341.c ****         {
 1772              		.loc 1 457 14 is_stmt 1 view .LVU417
 457:Core/Src/ili9341.c ****         {
 1773              		.loc 1 457 17 is_stmt 0 view .LVU418
 1774 00d2 0D2D     		cmp	r5, #13
 1775 00d4 20D0     		beq	.L102
 470:Core/Src/ili9341.c ****         {
 1776              		.loc 1 470 14 is_stmt 1 view .LVU419
 470:Core/Src/ili9341.c ****         {
 1777              		.loc 1 470 17 is_stmt 0 view .LVU420
 1778 00d6 1F2D     		cmp	r5, #31
 1779 00d8 E1D9     		bls	.L94
 472:Core/Src/ili9341.c ****             locX++;
 1780              		.loc 1 472 13 is_stmt 1 view .LVU421
 1781 00da 079B     		ldr	r3, [sp, #28]
 1782 00dc 059A     		ldr	r2, [sp, #20]
 1783 00de 07FB0231 		mla	r1, r7, r2, r3
 1784 00e2 069B     		ldr	r3, [sp, #24]
 1785 00e4 09EB0300 		add	r0, r9, r3
 1786 00e8 CDF808B0 		str	fp, [sp, #8]
 1787 00ec CDF804A0 		str	r10, [sp, #4]
 1788 00f0 0D9B     		ldr	r3, [sp, #52]
 1789 00f2 0093     		str	r3, [sp]
 1790 00f4 0C9B     		ldr	r3, [sp, #48]
ARM GAS  /var/folders/9y/n02fl3g16gnf7ppy14xghdy80000gn/T//ccqd2uAD.s 			page 46


 1791 00f6 2A46     		mov	r2, r5
 1792 00f8 89B2     		uxth	r1, r1
 1793 00fa 80B2     		uxth	r0, r0
 1794 00fc FFF7FEFF 		bl	ili9341WriteChar
 1795              	.LVL161:
 473:Core/Src/ili9341.c ****             if (locX + 1 == maxLocX)
 1796              		.loc 1 473 13 view .LVU422
 473:Core/Src/ili9341.c ****             if (locX + 1 == maxLocX)
 1797              		.loc 1 473 17 is_stmt 0 view .LVU423
 1798 0100 0136     		adds	r6, r6, #1
 1799              	.LVL162:
 473:Core/Src/ili9341.c ****             if (locX + 1 == maxLocX)
 1800              		.loc 1 473 17 view .LVU424
 1801 0102 F6B2     		uxtb	r6, r6
 1802              	.LVL163:
 474:Core/Src/ili9341.c ****             {
 1803              		.loc 1 474 13 is_stmt 1 view .LVU425
 474:Core/Src/ili9341.c ****             {
 1804              		.loc 1 474 22 is_stmt 0 view .LVU426
 1805 0104 721C     		adds	r2, r6, #1
 474:Core/Src/ili9341.c ****             {
 1806              		.loc 1 474 16 view .LVU427
 1807 0106 9DF82C30 		ldrb	r3, [sp, #44]	@ zero_extendqisi2
 1808 010a 9A42     		cmp	r2, r3
 1809 010c 0CD0     		beq	.L103
 1810              	.LVL164:
 1811              	.L96:
 479:Core/Src/ili9341.c ****             {
 1812              		.loc 1 479 13 is_stmt 1 view .LVU428
 479:Core/Src/ili9341.c ****             {
 1813              		.loc 1 479 16 is_stmt 0 view .LVU429
 1814 010e 099B     		ldr	r3, [sp, #36]
 1815 0110 9C42     		cmp	r4, r3
 1816 0112 C4D1     		bne	.L94
 481:Core/Src/ili9341.c ****             }
 1817              		.loc 1 481 22 view .LVU430
 1818 0114 0024     		movs	r4, #0
 1819              	.LVL165:
 481:Core/Src/ili9341.c ****             }
 1820              		.loc 1 481 22 view .LVU431
 1821 0116 C2E7     		b	.L94
 1822              	.LVL166:
 1823              	.L102:
 459:Core/Src/ili9341.c ****             {
 1824              		.loc 1 459 13 is_stmt 1 view .LVU432
 459:Core/Src/ili9341.c ****             {
 1825              		.loc 1 459 22 is_stmt 0 view .LVU433
 1826 0118 631C     		adds	r3, r4, #1
 459:Core/Src/ili9341.c ****             {
 1827              		.loc 1 459 16 view .LVU434
 1828 011a 9DF82020 		ldrb	r2, [sp, #32]	@ zero_extendqisi2
 1829 011e 9342     		cmp	r3, r2
 1830 0120 06D0     		beq	.L98
 466:Core/Src/ili9341.c ****                 locY++;
 1831              		.loc 1 466 17 is_stmt 1 view .LVU435
 1832              	.LVL167:
 467:Core/Src/ili9341.c ****             }
ARM GAS  /var/folders/9y/n02fl3g16gnf7ppy14xghdy80000gn/T//ccqd2uAD.s 			page 47


 1833              		.loc 1 467 17 view .LVU436
 467:Core/Src/ili9341.c ****             }
 1834              		.loc 1 467 21 is_stmt 0 view .LVU437
 1835 0122 DCB2     		uxtb	r4, r3
 1836              	.LVL168:
 466:Core/Src/ili9341.c ****                 locY++;
 1837              		.loc 1 466 22 view .LVU438
 1838 0124 0026     		movs	r6, #0
 1839 0126 BAE7     		b	.L94
 1840              	.LVL169:
 1841              	.L103:
 476:Core/Src/ili9341.c ****                 locY++;
 1842              		.loc 1 476 17 is_stmt 1 view .LVU439
 477:Core/Src/ili9341.c ****             }
 1843              		.loc 1 477 17 view .LVU440
 477:Core/Src/ili9341.c ****             }
 1844              		.loc 1 477 21 is_stmt 0 view .LVU441
 1845 0128 0134     		adds	r4, r4, #1
 1846              	.LVL170:
 477:Core/Src/ili9341.c ****             }
 1847              		.loc 1 477 21 view .LVU442
 1848 012a E4B2     		uxtb	r4, r4
 1849              	.LVL171:
 476:Core/Src/ili9341.c ****                 locY++;
 1850              		.loc 1 476 22 view .LVU443
 1851 012c 0026     		movs	r6, #0
 1852 012e EEE7     		b	.L96
 1853              	.LVL172:
 1854              	.L98:
 462:Core/Src/ili9341.c ****             }
 1855              		.loc 1 462 22 view .LVU444
 1856 0130 0024     		movs	r4, #0
 1857              	.LVL173:
 461:Core/Src/ili9341.c ****                 locY = 0;
 1858              		.loc 1 461 22 view .LVU445
 1859 0132 2646     		mov	r6, r4
 1860              	.LVL174:
 461:Core/Src/ili9341.c ****                 locY = 0;
 1861              		.loc 1 461 22 view .LVU446
 1862 0134 B3E7     		b	.L94
 1863              		.cfi_endproc
 1864              	.LFE1168:
 1866              		.section	.text.ili9341WriteString,"ax",%progbits
 1867              		.align	1
 1868              		.global	ili9341WriteString
 1869              		.syntax unified
 1870              		.thumb
 1871              		.thumb_func
 1872              		.fpu fpv4-sp-d16
 1874              	ili9341WriteString:
 1875              	.LVL175:
 1876              	.LFB1169:
 486:Core/Src/ili9341.c ****     }
 487:Core/Src/ili9341.c **** }
 488:Core/Src/ili9341.c **** 
 489:Core/Src/ili9341.c **** void ili9341WriteString(uint16_t x, uint16_t y, const char *str, FontDef font, uint16_t color, uint
 490:Core/Src/ili9341.c **** {
ARM GAS  /var/folders/9y/n02fl3g16gnf7ppy14xghdy80000gn/T//ccqd2uAD.s 			page 48


 1877              		.loc 1 490 1 is_stmt 1 view -0
 1878              		.cfi_startproc
 1879              		@ args = 20, pretend = 8, frame = 0
 1880              		@ frame_needed = 0, uses_anonymous_args = 0
 1881              		.loc 1 490 1 is_stmt 0 view .LVU448
 1882 0000 82B0     		sub	sp, sp, #8
 1883              		.cfi_def_cfa_offset 8
 1884 0002 2DE9F043 		push	{r4, r5, r6, r7, r8, r9, lr}
 1885              		.cfi_def_cfa_offset 36
 1886              		.cfi_offset 4, -36
 1887              		.cfi_offset 5, -32
 1888              		.cfi_offset 6, -28
 1889              		.cfi_offset 7, -24
 1890              		.cfi_offset 8, -20
 1891              		.cfi_offset 9, -16
 1892              		.cfi_offset 14, -12
 1893 0006 85B0     		sub	sp, sp, #20
 1894              		.cfi_def_cfa_offset 56
 1895 0008 0646     		mov	r6, r0
 1896 000a 0D46     		mov	r5, r1
 1897 000c 1746     		mov	r7, r2
 1898 000e 0D93     		str	r3, [sp, #52]
 1899 0010 BDF83C90 		ldrh	r9, [sp, #60]
 1900 0014 BDF84080 		ldrh	r8, [sp, #64]
 491:Core/Src/ili9341.c ****     ILI9341_CS_RESET;
 1901              		.loc 1 491 5 is_stmt 1 view .LVU449
 1902 0018 4FF09042 		mov	r2, #1207959552
 1903              	.LVL176:
 1904              		.loc 1 491 5 is_stmt 0 view .LVU450
 1905 001c 9369     		ldr	r3, [r2, #24]
 1906 001e 43F48013 		orr	r3, r3, #1048576
 1907 0022 9361     		str	r3, [r2, #24]
 1908              	.LVL177:
 492:Core/Src/ili9341.c **** 
 493:Core/Src/ili9341.c ****     while (*str)
 1909              		.loc 1 493 5 is_stmt 1 view .LVU451
 1910              		.loc 1 493 11 is_stmt 0 view .LVU452
 1911 0024 10E0     		b	.L105
 1912              	.LVL178:
 1913              	.L112:
 494:Core/Src/ili9341.c ****     {
 495:Core/Src/ili9341.c ****         if (x + font.width >= ILI9341_SCREEN_WIDTH)
 496:Core/Src/ili9341.c ****         {
 497:Core/Src/ili9341.c ****             x = 0;
 498:Core/Src/ili9341.c ****             y += font.height;
 499:Core/Src/ili9341.c ****             if (y + font.height >= ILI9341_SCREEN_HEIGHT)
 500:Core/Src/ili9341.c ****             {
 501:Core/Src/ili9341.c ****                 break;
 502:Core/Src/ili9341.c ****             }
 503:Core/Src/ili9341.c **** 
 504:Core/Src/ili9341.c ****             if (*str == ' ')
 505:Core/Src/ili9341.c ****             {
 506:Core/Src/ili9341.c ****                 // skip spaces in the beginning of the new line
 507:Core/Src/ili9341.c ****                 str++;
 1914              		.loc 1 507 17 is_stmt 1 view .LVU453
 1915              		.loc 1 507 20 is_stmt 0 view .LVU454
 1916 0026 0137     		adds	r7, r7, #1
ARM GAS  /var/folders/9y/n02fl3g16gnf7ppy14xghdy80000gn/T//ccqd2uAD.s 			page 49


 1917              	.LVL179:
 508:Core/Src/ili9341.c ****                 continue;
 1918              		.loc 1 508 17 is_stmt 1 view .LVU455
 497:Core/Src/ili9341.c ****             y += font.height;
 1919              		.loc 1 497 15 is_stmt 0 view .LVU456
 1920 0028 0026     		movs	r6, #0
 1921              		.loc 1 508 17 view .LVU457
 1922 002a 0DE0     		b	.L105
 1923              	.LVL180:
 1924              	.L106:
 509:Core/Src/ili9341.c ****             }
 510:Core/Src/ili9341.c ****         }
 511:Core/Src/ili9341.c **** 
 512:Core/Src/ili9341.c ****         ili9341WriteChar(x, y, *str, font, color, bgcolor);
 1925              		.loc 1 512 9 is_stmt 1 view .LVU458
 1926 002c CDF80880 		str	r8, [sp, #8]
 1927 0030 CDF80490 		str	r9, [sp, #4]
 1928 0034 0E9B     		ldr	r3, [sp, #56]
 1929 0036 0093     		str	r3, [sp]
 1930 0038 0D9B     		ldr	r3, [sp, #52]
 1931 003a 2946     		mov	r1, r5
 1932 003c 3046     		mov	r0, r6
 1933 003e FFF7FEFF 		bl	ili9341WriteChar
 1934              	.LVL181:
 513:Core/Src/ili9341.c ****         x += font.width;
 1935              		.loc 1 513 9 view .LVU459
 1936              		.loc 1 513 11 is_stmt 0 view .LVU460
 1937 0042 3444     		add	r4, r4, r6
 1938 0044 A6B2     		uxth	r6, r4
 1939              	.LVL182:
 514:Core/Src/ili9341.c ****         str++;
 1940              		.loc 1 514 9 is_stmt 1 view .LVU461
 1941              		.loc 1 514 12 is_stmt 0 view .LVU462
 1942 0046 0137     		adds	r7, r7, #1
 1943              	.LVL183:
 1944              	.L105:
 493:Core/Src/ili9341.c ****     {
 1945              		.loc 1 493 11 is_stmt 1 view .LVU463
 493:Core/Src/ili9341.c ****     {
 1946              		.loc 1 493 12 is_stmt 0 view .LVU464
 1947 0048 3A78     		ldrb	r2, [r7]	@ zero_extendqisi2
 493:Core/Src/ili9341.c ****     {
 1948              		.loc 1 493 11 view .LVU465
 1949 004a 82B1     		cbz	r2, .L107
 495:Core/Src/ili9341.c ****         {
 1950              		.loc 1 495 9 is_stmt 1 view .LVU466
 495:Core/Src/ili9341.c ****         {
 1951              		.loc 1 495 21 is_stmt 0 view .LVU467
 1952 004c 9DF83440 		ldrb	r4, [sp, #52]	@ zero_extendqisi2
 495:Core/Src/ili9341.c ****         {
 1953              		.loc 1 495 15 view .LVU468
 1954 0050 3319     		adds	r3, r6, r4
 495:Core/Src/ili9341.c ****         {
 1955              		.loc 1 495 12 view .LVU469
 1956 0052 B3F5A07F 		cmp	r3, #320
 1957 0056 E9DB     		blt	.L106
 497:Core/Src/ili9341.c ****             y += font.height;
ARM GAS  /var/folders/9y/n02fl3g16gnf7ppy14xghdy80000gn/T//ccqd2uAD.s 			page 50


 1958              		.loc 1 497 13 is_stmt 1 view .LVU470
 1959              	.LVL184:
 498:Core/Src/ili9341.c ****             if (y + font.height >= ILI9341_SCREEN_HEIGHT)
 1960              		.loc 1 498 13 view .LVU471
 498:Core/Src/ili9341.c ****             if (y + font.height >= ILI9341_SCREEN_HEIGHT)
 1961              		.loc 1 498 22 is_stmt 0 view .LVU472
 1962 0058 9DF83530 		ldrb	r3, [sp, #53]	@ zero_extendqisi2
 498:Core/Src/ili9341.c ****             if (y + font.height >= ILI9341_SCREEN_HEIGHT)
 1963              		.loc 1 498 15 view .LVU473
 1964 005c 1D44     		add	r5, r5, r3
 1965              	.LVL185:
 498:Core/Src/ili9341.c ****             if (y + font.height >= ILI9341_SCREEN_HEIGHT)
 1966              		.loc 1 498 15 view .LVU474
 1967 005e ADB2     		uxth	r5, r5
 1968              	.LVL186:
 499:Core/Src/ili9341.c ****             {
 1969              		.loc 1 499 13 is_stmt 1 view .LVU475
 499:Core/Src/ili9341.c ****             {
 1970              		.loc 1 499 19 is_stmt 0 view .LVU476
 1971 0060 2B44     		add	r3, r3, r5
 499:Core/Src/ili9341.c ****             {
 1972              		.loc 1 499 16 view .LVU477
 1973 0062 EF2B     		cmp	r3, #239
 1974 0064 03DC     		bgt	.L107
 504:Core/Src/ili9341.c ****             {
 1975              		.loc 1 504 13 is_stmt 1 view .LVU478
 504:Core/Src/ili9341.c ****             {
 1976              		.loc 1 504 16 is_stmt 0 view .LVU479
 1977 0066 202A     		cmp	r2, #32
 1978 0068 DDD0     		beq	.L112
 497:Core/Src/ili9341.c ****             y += font.height;
 1979              		.loc 1 497 15 view .LVU480
 1980 006a 0026     		movs	r6, #0
 1981 006c DEE7     		b	.L106
 1982              	.LVL187:
 1983              	.L107:
 515:Core/Src/ili9341.c ****     }
 516:Core/Src/ili9341.c **** 
 517:Core/Src/ili9341.c ****     ILI9341_CS_SET;
 1984              		.loc 1 517 5 is_stmt 1 view .LVU481
 1985 006e 4FF09042 		mov	r2, #1207959552
 1986 0072 9369     		ldr	r3, [r2, #24]
 1987 0074 43F01003 		orr	r3, r3, #16
 1988 0078 9361     		str	r3, [r2, #24]
 518:Core/Src/ili9341.c **** }
 1989              		.loc 1 518 1 is_stmt 0 view .LVU482
 1990 007a 05B0     		add	sp, sp, #20
 1991              		.cfi_def_cfa_offset 36
 1992              		@ sp needed
 1993 007c BDE8F043 		pop	{r4, r5, r6, r7, r8, r9, lr}
 1994              		.cfi_restore 14
 1995              		.cfi_restore 9
 1996              		.cfi_restore 8
 1997              		.cfi_restore 7
 1998              		.cfi_restore 6
 1999              		.cfi_restore 5
 2000              		.cfi_restore 4
ARM GAS  /var/folders/9y/n02fl3g16gnf7ppy14xghdy80000gn/T//ccqd2uAD.s 			page 51


 2001              		.cfi_def_cfa_offset 8
 2002              	.LVL188:
 2003              		.loc 1 518 1 view .LVU483
 2004 0080 02B0     		add	sp, sp, #8
 2005              		.cfi_def_cfa_offset 0
 2006 0082 7047     		bx	lr
 2007              		.cfi_endproc
 2008              	.LFE1169:
 2010              		.section	.text.ili9341InvertColors,"ax",%progbits
 2011              		.align	1
 2012              		.global	ili9341InvertColors
 2013              		.syntax unified
 2014              		.thumb
 2015              		.thumb_func
 2016              		.fpu fpv4-sp-d16
 2018              	ili9341InvertColors:
 2019              	.LVL189:
 2020              	.LFB1170:
 519:Core/Src/ili9341.c **** 
 520:Core/Src/ili9341.c **** void ili9341InvertColors(bool invert)
 521:Core/Src/ili9341.c **** {
 2021              		.loc 1 521 1 is_stmt 1 view -0
 2022              		.cfi_startproc
 2023              		@ args = 0, pretend = 0, frame = 0
 2024              		@ frame_needed = 0, uses_anonymous_args = 0
 2025              		.loc 1 521 1 is_stmt 0 view .LVU485
 2026 0000 08B5     		push	{r3, lr}
 2027              		.cfi_def_cfa_offset 8
 2028              		.cfi_offset 3, -8
 2029              		.cfi_offset 14, -4
 522:Core/Src/ili9341.c ****     ili9341WriteCommand(invert ? 0x21 /* INVON */ : 0x20 /* INVOFF */);
 2030              		.loc 1 522 5 is_stmt 1 view .LVU486
 2031 0002 18B1     		cbz	r0, .L115
 2032 0004 2120     		movs	r0, #33
 2033              	.LVL190:
 2034              	.L114:
 2035              		.loc 1 522 5 is_stmt 0 discriminator 4 view .LVU487
 2036 0006 FFF7FEFF 		bl	ili9341WriteCommand
 2037              	.LVL191:
 523:Core/Src/ili9341.c **** }...
 2038              		.loc 1 523 1 discriminator 4 view .LVU488
 2039 000a 08BD     		pop	{r3, pc}
 2040              	.LVL192:
 2041              	.L115:
 522:Core/Src/ili9341.c ****     ili9341WriteCommand(invert ? 0x21 /* INVON */ : 0x20 /* INVOFF */);
 2042              		.loc 1 522 5 view .LVU489
 2043 000c 2020     		movs	r0, #32
 2044              	.LVL193:
 522:Core/Src/ili9341.c ****     ili9341WriteCommand(invert ? 0x21 /* INVON */ : 0x20 /* INVOFF */);
 2045              		.loc 1 522 5 view .LVU490
 2046 000e FAE7     		b	.L114
 2047              		.cfi_endproc
 2048              	.LFE1170:
 2050              		.global	txBuf
 2051              		.global	rxBuf
 2052              		.global	_lcd_width
 2053              		.global	_lcd_height
ARM GAS  /var/folders/9y/n02fl3g16gnf7ppy14xghdy80000gn/T//ccqd2uAD.s 			page 52


 2054              		.section	.rodata
 2055              		.align	2
 2056              		.set	.LANCHOR6,. + 0
 2057              	.LC0:
 2058 0000 392C0034 		.ascii	"9,\0004\002"
 2058      02
 2059 0005 000000   		.space	3
 2060              	.LC1:
 2061 0008 00C130   		.ascii	"\000\3010"
 2062 000b 00       		.space	1
 2063              	.LC2:
 2064 000c 850078   		.ascii	"\205\000x"
 2065 000f 00       		.space	1
 2066              	.LC5:
 2067 0010 000E1403 		.ascii	"\000\016\024\003\021\0071\301H\010\017\01416\017"
 2067      110731C1 
 2067      48080F0C 
 2067      31360F
 2068              		.section	.bss.dummy.0,"aw",%nobits
 2069              		.set	.LANCHOR1,. + 0
 2072              	dummy.0:
 2073 0000 00       		.space	1
 2074              		.section	.bss.dummy.1,"aw",%nobits
 2075              		.set	.LANCHOR0,. + 0
 2078              	dummy.1:
 2079 0000 00       		.space	1
 2080              		.section	.bss.rxBuf,"aw",%nobits
 2081              		.set	.LANCHOR2,. + 0
 2084              	rxBuf:
 2085 0000 00       		.space	1
 2086              		.section	.bss.txBuf,"aw",%nobits
 2087              		.set	.LANCHOR3,. + 0
 2090              	txBuf:
 2091 0000 00       		.space	1
 2092              		.section	.data._lcd_height,"aw"
 2093              		.align	1
 2094              		.set	.LANCHOR5,. + 0
 2097              	_lcd_height:
 2098 0000 F000     		.short	240
 2099              		.section	.data._lcd_width,"aw"
 2100              		.align	1
 2101              		.set	.LANCHOR4,. + 0
 2104              	_lcd_width:
 2105 0000 4001     		.short	320
 2106              		.text
 2107              	.Letext0:
 2108              		.file 2 "/opt/homebrew/Cellar/arm-none-eabi-gcc/10.3-2021.07/gcc/arm-none-eabi/include/machine/_de
 2109              		.file 3 "/opt/homebrew/Cellar/arm-none-eabi-gcc/10.3-2021.07/gcc/arm-none-eabi/include/sys/_stdint
 2110              		.file 4 "Drivers/CMSIS/Device/ST/STM32L4xx/Include/stm32l432xx.h"
 2111              		.file 5 "/opt/homebrew/Cellar/arm-none-eabi-gcc/10.3-2021.07/gcc/lib/gcc/arm-none-eabi/10.3.1/incl
 2112              		.file 6 "Core/Inc/fonts.h"
 2113              		.file 7 "Core/Inc/ili9341.h"
 2114              		.file 8 "Drivers/STM32L4xx_HAL_Driver/Inc/stm32l4xx_ll_dma.h"
 2115              		.file 9 "Core/Inc/usart.h"
 2116              		.file 10 "Core/Inc/spi.h"
 2117              		.file 11 "Core/Inc/dwt_system.h"
ARM GAS  /var/folders/9y/n02fl3g16gnf7ppy14xghdy80000gn/T//ccqd2uAD.s 			page 53


DEFINED SYMBOLS
                            *ABS*:0000000000000000 ili9341.c
/var/folders/9y/n02fl3g16gnf7ppy14xghdy80000gn/T//ccqd2uAD.s:18     .text.ili9341WriteCommand:0000000000000000 $t
/var/folders/9y/n02fl3g16gnf7ppy14xghdy80000gn/T//ccqd2uAD.s:26     .text.ili9341WriteCommand:0000000000000000 ili9341WriteCommand
/var/folders/9y/n02fl3g16gnf7ppy14xghdy80000gn/T//ccqd2uAD.s:72     .text.ili9341WriteCommand:0000000000000034 $d
/var/folders/9y/n02fl3g16gnf7ppy14xghdy80000gn/T//ccqd2uAD.s:77     .text.ili9341WriteData:0000000000000000 $t
/var/folders/9y/n02fl3g16gnf7ppy14xghdy80000gn/T//ccqd2uAD.s:84     .text.ili9341WriteData:0000000000000000 ili9341WriteData
/var/folders/9y/n02fl3g16gnf7ppy14xghdy80000gn/T//ccqd2uAD.s:122    .text.ili9341WriteData:0000000000000028 $d
/var/folders/9y/n02fl3g16gnf7ppy14xghdy80000gn/T//ccqd2uAD.s:127    .text.ili9341Read8:0000000000000000 $t
/var/folders/9y/n02fl3g16gnf7ppy14xghdy80000gn/T//ccqd2uAD.s:134    .text.ili9341Read8:0000000000000000 ili9341Read8
/var/folders/9y/n02fl3g16gnf7ppy14xghdy80000gn/T//ccqd2uAD.s:194    .text.ili9341Read8:0000000000000048 $d
/var/folders/9y/n02fl3g16gnf7ppy14xghdy80000gn/T//ccqd2uAD.s:200    .text.ili9341SetAddress:0000000000000000 $t
/var/folders/9y/n02fl3g16gnf7ppy14xghdy80000gn/T//ccqd2uAD.s:207    .text.ili9341SetAddress:0000000000000000 ili9341SetAddress
/var/folders/9y/n02fl3g16gnf7ppy14xghdy80000gn/T//ccqd2uAD.s:281    .text.ili9341WriteChar:0000000000000000 $t
/var/folders/9y/n02fl3g16gnf7ppy14xghdy80000gn/T//ccqd2uAD.s:287    .text.ili9341WriteChar:0000000000000000 ili9341WriteChar
/var/folders/9y/n02fl3g16gnf7ppy14xghdy80000gn/T//ccqd2uAD.s:434    .text.ili9341_Reset:0000000000000000 $t
/var/folders/9y/n02fl3g16gnf7ppy14xghdy80000gn/T//ccqd2uAD.s:441    .text.ili9341_Reset:0000000000000000 ili9341_Reset
/var/folders/9y/n02fl3g16gnf7ppy14xghdy80000gn/T//ccqd2uAD.s:480    .text.ili9341_Reset:0000000000000030 $d
/var/folders/9y/n02fl3g16gnf7ppy14xghdy80000gn/T//ccqd2uAD.s:485    .text.ili9341SetRotation:0000000000000000 $t
/var/folders/9y/n02fl3g16gnf7ppy14xghdy80000gn/T//ccqd2uAD.s:492    .text.ili9341SetRotation:0000000000000000 ili9341SetRotation
/var/folders/9y/n02fl3g16gnf7ppy14xghdy80000gn/T//ccqd2uAD.s:525    .text.ili9341SetRotation:000000000000001a $d
/var/folders/9y/n02fl3g16gnf7ppy14xghdy80000gn/T//ccqd2uAD.s:529    .text.ili9341SetRotation:000000000000001e $t
/var/folders/9y/n02fl3g16gnf7ppy14xghdy80000gn/T//ccqd2uAD.s:630    .text.ili9341SetRotation:00000000000000a0 $d
/var/folders/9y/n02fl3g16gnf7ppy14xghdy80000gn/T//ccqd2uAD.s:636    .rodata.ili9341Init.str1.4:0000000000000000 $d
/var/folders/9y/n02fl3g16gnf7ppy14xghdy80000gn/T//ccqd2uAD.s:643    .text.ili9341Init:0000000000000000 $t
/var/folders/9y/n02fl3g16gnf7ppy14xghdy80000gn/T//ccqd2uAD.s:650    .text.ili9341Init:0000000000000000 ili9341Init
/var/folders/9y/n02fl3g16gnf7ppy14xghdy80000gn/T//ccqd2uAD.s:990    .text.ili9341Init:00000000000001dc $d
/var/folders/9y/n02fl3g16gnf7ppy14xghdy80000gn/T//ccqd2uAD.s:998    .text.ili9341DrawColor:0000000000000000 $t
/var/folders/9y/n02fl3g16gnf7ppy14xghdy80000gn/T//ccqd2uAD.s:1005   .text.ili9341DrawColor:0000000000000000 ili9341DrawColor
/var/folders/9y/n02fl3g16gnf7ppy14xghdy80000gn/T//ccqd2uAD.s:1053   .text.ili9341DrawColor:0000000000000038 $d
/var/folders/9y/n02fl3g16gnf7ppy14xghdy80000gn/T//ccqd2uAD.s:1058   .text.ili9341DrawColorBurst:0000000000000000 $t
/var/folders/9y/n02fl3g16gnf7ppy14xghdy80000gn/T//ccqd2uAD.s:1065   .text.ili9341DrawColorBurst:0000000000000000 ili9341DrawColorBurst
/var/folders/9y/n02fl3g16gnf7ppy14xghdy80000gn/T//ccqd2uAD.s:1225   .text.ili9341DrawColorBurst:0000000000000090 $d
/var/folders/9y/n02fl3g16gnf7ppy14xghdy80000gn/T//ccqd2uAD.s:1230   .text.ili9341FillScreen:0000000000000000 $t
/var/folders/9y/n02fl3g16gnf7ppy14xghdy80000gn/T//ccqd2uAD.s:1237   .text.ili9341FillScreen:0000000000000000 ili9341FillScreen
/var/folders/9y/n02fl3g16gnf7ppy14xghdy80000gn/T//ccqd2uAD.s:1281   .text.ili9341FillScreen:000000000000002c $d
/var/folders/9y/n02fl3g16gnf7ppy14xghdy80000gn/T//ccqd2uAD.s:1287   .text.ili9341DrawPixel:0000000000000000 $t
/var/folders/9y/n02fl3g16gnf7ppy14xghdy80000gn/T//ccqd2uAD.s:1294   .text.ili9341DrawPixel:0000000000000000 ili9341DrawPixel
/var/folders/9y/n02fl3g16gnf7ppy14xghdy80000gn/T//ccqd2uAD.s:1418   .text.ili9341DrawPixel:0000000000000090 $d
/var/folders/9y/n02fl3g16gnf7ppy14xghdy80000gn/T//ccqd2uAD.s:1424   .text.ili9341DrawImage:0000000000000000 $t
/var/folders/9y/n02fl3g16gnf7ppy14xghdy80000gn/T//ccqd2uAD.s:1431   .text.ili9341DrawImage:0000000000000000 ili9341DrawImage
/var/folders/9y/n02fl3g16gnf7ppy14xghdy80000gn/T//ccqd2uAD.s:1576   .text.ili9341DrawImage:0000000000000094 $d
/var/folders/9y/n02fl3g16gnf7ppy14xghdy80000gn/T//ccqd2uAD.s:1581   .text.ili9341WriteCharFromUART:0000000000000000 $t
/var/folders/9y/n02fl3g16gnf7ppy14xghdy80000gn/T//ccqd2uAD.s:1588   .text.ili9341WriteCharFromUART:0000000000000000 ili9341WriteCharFromUART
/var/folders/9y/n02fl3g16gnf7ppy14xghdy80000gn/T//ccqd2uAD.s:1867   .text.ili9341WriteString:0000000000000000 $t
/var/folders/9y/n02fl3g16gnf7ppy14xghdy80000gn/T//ccqd2uAD.s:1874   .text.ili9341WriteString:0000000000000000 ili9341WriteString
/var/folders/9y/n02fl3g16gnf7ppy14xghdy80000gn/T//ccqd2uAD.s:2011   .text.ili9341InvertColors:0000000000000000 $t
/var/folders/9y/n02fl3g16gnf7ppy14xghdy80000gn/T//ccqd2uAD.s:2018   .text.ili9341InvertColors:0000000000000000 ili9341InvertColors
/var/folders/9y/n02fl3g16gnf7ppy14xghdy80000gn/T//ccqd2uAD.s:2090   .bss.txBuf:0000000000000000 txBuf
/var/folders/9y/n02fl3g16gnf7ppy14xghdy80000gn/T//ccqd2uAD.s:2084   .bss.rxBuf:0000000000000000 rxBuf
/var/folders/9y/n02fl3g16gnf7ppy14xghdy80000gn/T//ccqd2uAD.s:2104   .data._lcd_width:0000000000000000 _lcd_width
/var/folders/9y/n02fl3g16gnf7ppy14xghdy80000gn/T//ccqd2uAD.s:2097   .data._lcd_height:0000000000000000 _lcd_height
/var/folders/9y/n02fl3g16gnf7ppy14xghdy80000gn/T//ccqd2uAD.s:2055   .rodata:0000000000000000 $d
/var/folders/9y/n02fl3g16gnf7ppy14xghdy80000gn/T//ccqd2uAD.s:2072   .bss.dummy.0:0000000000000000 dummy.0
/var/folders/9y/n02fl3g16gnf7ppy14xghdy80000gn/T//ccqd2uAD.s:2073   .bss.dummy.0:0000000000000000 $d
/var/folders/9y/n02fl3g16gnf7ppy14xghdy80000gn/T//ccqd2uAD.s:2078   .bss.dummy.1:0000000000000000 dummy.1
/var/folders/9y/n02fl3g16gnf7ppy14xghdy80000gn/T//ccqd2uAD.s:2079   .bss.dummy.1:0000000000000000 $d
ARM GAS  /var/folders/9y/n02fl3g16gnf7ppy14xghdy80000gn/T//ccqd2uAD.s 			page 54


/var/folders/9y/n02fl3g16gnf7ppy14xghdy80000gn/T//ccqd2uAD.s:2085   .bss.rxBuf:0000000000000000 $d
/var/folders/9y/n02fl3g16gnf7ppy14xghdy80000gn/T//ccqd2uAD.s:2091   .bss.txBuf:0000000000000000 $d
/var/folders/9y/n02fl3g16gnf7ppy14xghdy80000gn/T//ccqd2uAD.s:2093   .data._lcd_height:0000000000000000 $d
/var/folders/9y/n02fl3g16gnf7ppy14xghdy80000gn/T//ccqd2uAD.s:2100   .data._lcd_width:0000000000000000 $d

UNDEFINED SYMBOLS
spi1Transfer
delay
ili9341DrawHorizontalLine
serialRead
