ARM GAS  /var/folders/9y/n02fl3g16gnf7ppy14xghdy80000gn/T//cckLwYqR.s 			page 1


   1              		.cpu cortex-m4
   2              		.eabi_attribute 27, 1
   3              		.eabi_attribute 28, 1
   4              		.eabi_attribute 20, 1
   5              		.eabi_attribute 21, 1
   6              		.eabi_attribute 23, 3
   7              		.eabi_attribute 24, 1
   8              		.eabi_attribute 25, 1
   9              		.eabi_attribute 26, 1
  10              		.eabi_attribute 30, 1
  11              		.eabi_attribute 34, 1
  12              		.eabi_attribute 18, 4
  13              		.file	"utilities.c"
  14              		.text
  15              	.Ltext0:
  16              		.cfi_sections	.debug_frame
  17              		.section	.rodata.coords2string.str1.4,"aMS",%progbits,1
  18              		.align	2
  19              	.LC0:
  20 0000 25753B25 		.ascii	"%u;%u \000"
  20      752000
  21 0007 00       		.align	2
  22              	.LC1:
  23 0008 25753B25 		.ascii	"%u;%u\000"
  23      7500
  24 000e 0000     		.align	2
  25              	.LC2:
  26 0010 2200     		.ascii	"\"\000"
  27              		.section	.text.coords2string,"ax",%progbits
  28              		.align	1
  29              		.global	coords2string
  30              		.arch armv7e-m
  31              		.syntax unified
  32              		.thumb
  33              		.thumb_func
  34              		.fpu fpv4-sp-d16
  36              	coords2string:
  37              	.LVL0:
  38              	.LFB1155:
  39              		.file 1 "Core/Src/utilities.c"
   1:Core/Src/utilities.c **** #include "utilities.h"
   2:Core/Src/utilities.c **** 
   3:Core/Src/utilities.c **** void coords2string(uint16_t xCoords[100], uint16_t yCoords[100], size_t coords_size, char* output_s
   4:Core/Src/utilities.c **** {
  40              		.loc 1 4 1 view -0
  41              		.cfi_startproc
  42              		@ args = 0, pretend = 0, frame = 16
  43              		@ frame_needed = 0, uses_anonymous_args = 0
  44              		.loc 1 4 1 is_stmt 0 view .LVU1
  45 0000 2DE9F043 		push	{r4, r5, r6, r7, r8, r9, lr}
  46              		.cfi_def_cfa_offset 28
  47              		.cfi_offset 4, -28
  48              		.cfi_offset 5, -24
  49              		.cfi_offset 6, -20
  50              		.cfi_offset 7, -16
  51              		.cfi_offset 8, -12
  52              		.cfi_offset 9, -8
ARM GAS  /var/folders/9y/n02fl3g16gnf7ppy14xghdy80000gn/T//cckLwYqR.s 			page 2


  53              		.cfi_offset 14, -4
  54 0004 85B0     		sub	sp, sp, #20
  55              		.cfi_def_cfa_offset 48
  56 0006 8146     		mov	r9, r0
  57 0008 8846     		mov	r8, r1
  58 000a 1646     		mov	r6, r2
  59 000c 1F46     		mov	r7, r3
   5:Core/Src/utilities.c ****     // char *strBuff = calloc(_MQTT_TX_SIZE, sizeof(uint8_t)); // allocate and clear memory
   6:Core/Src/utilities.c ****     uint8_t coord_idx = 0;
  60              		.loc 1 6 5 is_stmt 1 view .LVU2
  61              	.LVL1:
   7:Core/Src/utilities.c ****     uint16_t xCoord = 0;
  62              		.loc 1 7 5 view .LVU3
   8:Core/Src/utilities.c ****     uint16_t yCoord = 0;
  63              		.loc 1 8 5 view .LVU4
   9:Core/Src/utilities.c ****     uint8_t str_size = 0;
  64              		.loc 1 9 5 view .LVU5
  10:Core/Src/utilities.c ****     uint8_t str_idx = 1;
  65              		.loc 1 10 5 view .LVU6
  11:Core/Src/utilities.c ****     *output_str = '\"';
  66              		.loc 1 11 5 view .LVU7
  67              		.loc 1 11 17 is_stmt 0 view .LVU8
  68 000e 2223     		movs	r3, #34
  69              	.LVL2:
  70              		.loc 1 11 17 view .LVU9
  71 0010 3B70     		strb	r3, [r7]
  12:Core/Src/utilities.c ****     while (coord_idx < coords_size)
  72              		.loc 1 12 5 is_stmt 1 view .LVU10
  10:Core/Src/utilities.c ****     uint8_t str_idx = 1;
  73              		.loc 1 10 13 is_stmt 0 view .LVU11
  74 0012 0125     		movs	r5, #1
   6:Core/Src/utilities.c ****     uint16_t xCoord = 0;
  75              		.loc 1 6 13 view .LVU12
  76 0014 0024     		movs	r4, #0
  77              		.loc 1 12 11 view .LVU13
  78 0016 0CE0     		b	.L2
  79              	.LVL3:
  80              	.L3:
  81              	.LBB2:
  13:Core/Src/utilities.c ****     {
  14:Core/Src/utilities.c ****         xCoord = xCoords[coord_idx];
  15:Core/Src/utilities.c ****         yCoord = yCoords[coord_idx];
  16:Core/Src/utilities.c ****         str_size = 0;
  17:Core/Src/utilities.c ****         str_idx = 1;
  18:Core/Src/utilities.c ****         char temp_str[16];
  19:Core/Src/utilities.c **** 
  20:Core/Src/utilities.c ****         if (coord_idx < (coords_size - 1))
  21:Core/Src/utilities.c ****             str_size = sprintf(temp_str, "%u;%u ", xCoord, yCoord);
  22:Core/Src/utilities.c ****         else
  23:Core/Src/utilities.c ****         {
  24:Core/Src/utilities.c ****             str_size = sprintf(temp_str, "%u;%u", xCoord, yCoord);
  82              		.loc 1 24 13 is_stmt 1 view .LVU14
  83              		.loc 1 24 24 is_stmt 0 view .LVU15
  84 0018 1249     		ldr	r1, .L8
  85 001a 6846     		mov	r0, sp
  86 001c FFF7FEFF 		bl	sprintf
  87              	.LVL4:
ARM GAS  /var/folders/9y/n02fl3g16gnf7ppy14xghdy80000gn/T//cckLwYqR.s 			page 3


  88              		.loc 1 24 22 view .LVU16
  89 0020 C5B2     		uxtb	r5, r0
  90              	.LVL5:
  91              	.L4:
  25:Core/Src/utilities.c ****         }
  26:Core/Src/utilities.c ****         strcat(&output_str[str_idx], temp_str);
  92              		.loc 1 26 9 is_stmt 1 view .LVU17
  93 0022 6946     		mov	r1, sp
  94 0024 781C     		adds	r0, r7, #1
  95 0026 FFF7FEFF 		bl	strcat
  96              	.LVL6:
  27:Core/Src/utilities.c ****         str_idx += str_size;
  97              		.loc 1 27 9 view .LVU18
  98              		.loc 1 27 17 is_stmt 0 view .LVU19
  99 002a 0135     		adds	r5, r5, #1
 100              	.LVL7:
 101              		.loc 1 27 17 view .LVU20
 102 002c EDB2     		uxtb	r5, r5
 103              	.LVL8:
  28:Core/Src/utilities.c **** 
  29:Core/Src/utilities.c ****         coord_idx++;
 104              		.loc 1 29 9 is_stmt 1 view .LVU21
 105              		.loc 1 29 18 is_stmt 0 view .LVU22
 106 002e 0134     		adds	r4, r4, #1
 107              	.LVL9:
 108              		.loc 1 29 18 view .LVU23
 109 0030 E4B2     		uxtb	r4, r4
 110              	.LVL10:
 111              	.L2:
 112              		.loc 1 29 18 view .LVU24
 113              	.LBE2:
  12:Core/Src/utilities.c ****     {
 114              		.loc 1 12 11 is_stmt 1 view .LVU25
 115 0032 B442     		cmp	r4, r6
 116 0034 0CD2     		bcs	.L7
 117              	.LBB3:
  14:Core/Src/utilities.c ****         yCoord = yCoords[coord_idx];
 118              		.loc 1 14 9 view .LVU26
  14:Core/Src/utilities.c ****         yCoord = yCoords[coord_idx];
 119              		.loc 1 14 16 is_stmt 0 view .LVU27
 120 0036 39F81420 		ldrh	r2, [r9, r4, lsl #1]
 121              	.LVL11:
  15:Core/Src/utilities.c ****         str_size = 0;
 122              		.loc 1 15 9 is_stmt 1 view .LVU28
  15:Core/Src/utilities.c ****         str_size = 0;
 123              		.loc 1 15 16 is_stmt 0 view .LVU29
 124 003a 38F81430 		ldrh	r3, [r8, r4, lsl #1]
 125              	.LVL12:
  16:Core/Src/utilities.c ****         str_idx = 1;
 126              		.loc 1 16 9 is_stmt 1 view .LVU30
  17:Core/Src/utilities.c ****         char temp_str[16];
 127              		.loc 1 17 9 view .LVU31
  18:Core/Src/utilities.c **** 
 128              		.loc 1 18 9 view .LVU32
  20:Core/Src/utilities.c ****             str_size = sprintf(temp_str, "%u;%u ", xCoord, yCoord);
 129              		.loc 1 20 9 view .LVU33
  20:Core/Src/utilities.c ****             str_size = sprintf(temp_str, "%u;%u ", xCoord, yCoord);
ARM GAS  /var/folders/9y/n02fl3g16gnf7ppy14xghdy80000gn/T//cckLwYqR.s 			page 4


 130              		.loc 1 20 38 is_stmt 0 view .LVU34
 131 003e 711E     		subs	r1, r6, #1
  20:Core/Src/utilities.c ****             str_size = sprintf(temp_str, "%u;%u ", xCoord, yCoord);
 132              		.loc 1 20 12 view .LVU35
 133 0040 A142     		cmp	r1, r4
 134 0042 E9D9     		bls	.L3
  21:Core/Src/utilities.c ****         else
 135              		.loc 1 21 13 is_stmt 1 view .LVU36
  21:Core/Src/utilities.c ****         else
 136              		.loc 1 21 24 is_stmt 0 view .LVU37
 137 0044 0849     		ldr	r1, .L8+4
 138 0046 6846     		mov	r0, sp
 139 0048 FFF7FEFF 		bl	sprintf
 140              	.LVL13:
  21:Core/Src/utilities.c ****         else
 141              		.loc 1 21 22 view .LVU38
 142 004c C5B2     		uxtb	r5, r0
 143              	.LVL14:
  21:Core/Src/utilities.c ****         else
 144              		.loc 1 21 22 view .LVU39
 145 004e E8E7     		b	.L4
 146              	.LVL15:
 147              	.L7:
  21:Core/Src/utilities.c ****         else
 148              		.loc 1 21 22 view .LVU40
 149              	.LBE3:
  30:Core/Src/utilities.c ****     }
  31:Core/Src/utilities.c ****     strcat(&output_str[str_idx], "\"");
 150              		.loc 1 31 5 is_stmt 1 view .LVU41
 151 0050 3D44     		add	r5, r5, r7
 152              	.LVL16:
 153              		.loc 1 31 5 is_stmt 0 view .LVU42
 154 0052 2846     		mov	r0, r5
 155 0054 FFF7FEFF 		bl	strlen
 156              	.LVL17:
 157 0058 044B     		ldr	r3, .L8+8
 158 005a 1B88     		ldrh	r3, [r3]	@ unaligned
 159 005c 2B52     		strh	r3, [r5, r0]	@ unaligned
  32:Core/Src/utilities.c **** }
 160              		.loc 1 32 1 view .LVU43
 161 005e 05B0     		add	sp, sp, #20
 162              		.cfi_def_cfa_offset 28
 163              		@ sp needed
 164 0060 BDE8F083 		pop	{r4, r5, r6, r7, r8, r9, pc}
 165              	.LVL18:
 166              	.L9:
 167              		.loc 1 32 1 view .LVU44
 168              		.align	2
 169              	.L8:
 170 0064 08000000 		.word	.LC1
 171 0068 00000000 		.word	.LC0
 172 006c 10000000 		.word	.LC2
 173              		.cfi_endproc
 174              	.LFE1155:
 176              		.section	.rodata.stringToCoord.str1.4,"aMS",%progbits,1
 177              		.align	2
 178              	.LC3:
ARM GAS  /var/folders/9y/n02fl3g16gnf7ppy14xghdy80000gn/T//cckLwYqR.s 			page 5


 179 0000 3B2000   		.ascii	"; \000"
 180              		.section	.text.stringToCoord,"ax",%progbits
 181              		.align	1
 182              		.global	stringToCoord
 183              		.syntax unified
 184              		.thumb
 185              		.thumb_func
 186              		.fpu fpv4-sp-d16
 188              	stringToCoord:
 189              	.LVL19:
 190              	.LFB1156:
  33:Core/Src/utilities.c **** 
  34:Core/Src/utilities.c **** uint8_t stringToCoord(const char *str, uint16_t* xCoords, uint16_t* yCoords)
  35:Core/Src/utilities.c **** {
 191              		.loc 1 35 1 is_stmt 1 view -0
 192              		.cfi_startproc
 193              		@ args = 0, pretend = 0, frame = 0
 194              		@ frame_needed = 0, uses_anonymous_args = 0
 195              		.loc 1 35 1 is_stmt 0 view .LVU46
 196 0000 F8B5     		push	{r3, r4, r5, r6, r7, lr}
 197              		.cfi_def_cfa_offset 24
 198              		.cfi_offset 3, -24
 199              		.cfi_offset 4, -20
 200              		.cfi_offset 5, -16
 201              		.cfi_offset 6, -12
 202              		.cfi_offset 7, -8
 203              		.cfi_offset 14, -4
 204 0002 0F46     		mov	r7, r1
 205 0004 1646     		mov	r6, r2
  36:Core/Src/utilities.c ****     uint8_t numCoords = 0;
 206              		.loc 1 36 5 is_stmt 1 view .LVU47
 207              	.LVL20:
  37:Core/Src/utilities.c ****     char *str_c = strdup(str);
 208              		.loc 1 37 5 view .LVU48
 209              		.loc 1 37 19 is_stmt 0 view .LVU49
 210 0006 FFF7FEFF 		bl	strdup
 211              	.LVL21:
  38:Core/Src/utilities.c **** 
  39:Core/Src/utilities.c ****     char *pch = strtok(str_c, "; ");
 212              		.loc 1 39 5 is_stmt 1 view .LVU50
 213              		.loc 1 39 17 is_stmt 0 view .LVU51
 214 000a 0E49     		ldr	r1, .L14
 215 000c FFF7FEFF 		bl	strtok
 216              	.LVL22:
  40:Core/Src/utilities.c ****     while (pch != NULL)
 217              		.loc 1 40 5 is_stmt 1 view .LVU52
  36:Core/Src/utilities.c ****     char *str_c = strdup(str);
 218              		.loc 1 36 13 is_stmt 0 view .LVU53
 219 0010 0024     		movs	r4, #0
 220              		.loc 1 40 11 view .LVU54
 221 0012 12E0     		b	.L11
 222              	.LVL23:
 223              	.L12:
  41:Core/Src/utilities.c ****     {
  42:Core/Src/utilities.c ****         xCoords[numCoords] = atoi(pch);
 224              		.loc 1 42 9 is_stmt 1 view .LVU55
 225              		.loc 1 42 30 is_stmt 0 view .LVU56
ARM GAS  /var/folders/9y/n02fl3g16gnf7ppy14xghdy80000gn/T//cckLwYqR.s 			page 6


 226 0014 FFF7FEFF 		bl	atoi
 227              	.LVL24:
 228              		.loc 1 42 28 view .LVU57
 229 0018 27F81400 		strh	r0, [r7, r4, lsl #1]	@ movhi
  43:Core/Src/utilities.c ****         pch = strtok(NULL, "; ");
 230              		.loc 1 43 9 is_stmt 1 view .LVU58
 231              		.loc 1 43 15 is_stmt 0 view .LVU59
 232 001c 094D     		ldr	r5, .L14
 233 001e 2946     		mov	r1, r5
 234 0020 0020     		movs	r0, #0
 235 0022 FFF7FEFF 		bl	strtok
 236              	.LVL25:
  44:Core/Src/utilities.c ****         yCoords[numCoords] = atoi(pch);
 237              		.loc 1 44 9 is_stmt 1 view .LVU60
 238              		.loc 1 44 30 is_stmt 0 view .LVU61
 239 0026 FFF7FEFF 		bl	atoi
 240              	.LVL26:
 241              		.loc 1 44 28 view .LVU62
 242 002a 26F81400 		strh	r0, [r6, r4, lsl #1]	@ movhi
  45:Core/Src/utilities.c ****         pch = strtok(NULL, "; ");
 243              		.loc 1 45 9 is_stmt 1 view .LVU63
 244              		.loc 1 45 15 is_stmt 0 view .LVU64
 245 002e 2946     		mov	r1, r5
 246 0030 0020     		movs	r0, #0
 247 0032 FFF7FEFF 		bl	strtok
 248              	.LVL27:
  46:Core/Src/utilities.c ****         numCoords++;
 249              		.loc 1 46 9 is_stmt 1 view .LVU65
 250              		.loc 1 46 18 is_stmt 0 view .LVU66
 251 0036 0134     		adds	r4, r4, #1
 252              	.LVL28:
 253              		.loc 1 46 18 view .LVU67
 254 0038 E4B2     		uxtb	r4, r4
 255              	.LVL29:
 256              	.L11:
  40:Core/Src/utilities.c ****     {
 257              		.loc 1 40 11 is_stmt 1 view .LVU68
 258 003a 0028     		cmp	r0, #0
 259 003c EAD1     		bne	.L12
  47:Core/Src/utilities.c ****     }
  48:Core/Src/utilities.c ****     return numCoords;
 260              		.loc 1 48 5 view .LVU69
  49:Core/Src/utilities.c **** }
 261              		.loc 1 49 1 is_stmt 0 view .LVU70
 262 003e 2046     		mov	r0, r4
 263              	.LVL30:
 264              		.loc 1 49 1 view .LVU71
 265 0040 F8BD     		pop	{r3, r4, r5, r6, r7, pc}
 266              	.LVL31:
 267              	.L15:
 268              		.loc 1 49 1 view .LVU72
 269 0042 00BF     		.align	2
 270              	.L14:
 271 0044 00000000 		.word	.LC3
 272              		.cfi_endproc
 273              	.LFE1156:
 275              		.section	.text.num2digits,"ax",%progbits
ARM GAS  /var/folders/9y/n02fl3g16gnf7ppy14xghdy80000gn/T//cckLwYqR.s 			page 7


 276              		.align	1
 277              		.global	num2digits
 278              		.syntax unified
 279              		.thumb
 280              		.thumb_func
 281              		.fpu fpv4-sp-d16
 283              	num2digits:
 284              	.LVL32:
 285              	.LFB1157:
  50:Core/Src/utilities.c **** 
  51:Core/Src/utilities.c **** int num2digits(int num)
  52:Core/Src/utilities.c **** {
 286              		.loc 1 52 1 is_stmt 1 view -0
 287              		.cfi_startproc
 288              		@ args = 0, pretend = 0, frame = 0
 289              		@ frame_needed = 0, uses_anonymous_args = 0
 290              		@ link register save eliminated.
 291              		.loc 1 52 1 is_stmt 0 view .LVU74
 292 0000 0146     		mov	r1, r0
  53:Core/Src/utilities.c ****     int digits = 1;
 293              		.loc 1 53 5 is_stmt 1 view .LVU75
 294              	.LVL33:
  54:Core/Src/utilities.c ****     int divisor = 10;
 295              		.loc 1 54 5 view .LVU76
 296              		.loc 1 54 9 is_stmt 0 view .LVU77
 297 0002 0A23     		movs	r3, #10
  53:Core/Src/utilities.c ****     int digits = 1;
 298              		.loc 1 53 9 view .LVU78
 299 0004 0120     		movs	r0, #1
 300              	.LVL34:
  53:Core/Src/utilities.c ****     int digits = 1;
 301              		.loc 1 53 9 view .LVU79
 302 0006 03E0     		b	.L18
 303              	.LVL35:
 304              	.L20:
  55:Core/Src/utilities.c **** 
  56:Core/Src/utilities.c ****     while (1)
  57:Core/Src/utilities.c ****     {
  58:Core/Src/utilities.c ****         if ((num / divisor) == 0)
  59:Core/Src/utilities.c ****             return digits;
  60:Core/Src/utilities.c ****         else
  61:Core/Src/utilities.c ****         {
  62:Core/Src/utilities.c ****             divisor *= 10;
 305              		.loc 1 62 13 is_stmt 1 view .LVU80
 306              		.loc 1 62 21 is_stmt 0 view .LVU81
 307 0008 03EB8303 		add	r3, r3, r3, lsl #2
 308              	.LVL36:
 309              		.loc 1 62 21 view .LVU82
 310 000c 5B00     		lsls	r3, r3, #1
 311              	.LVL37:
  63:Core/Src/utilities.c ****             digits++;
 312              		.loc 1 63 13 is_stmt 1 view .LVU83
 313              		.loc 1 63 19 is_stmt 0 view .LVU84
 314 000e 0130     		adds	r0, r0, #1
 315              	.LVL38:
  56:Core/Src/utilities.c ****     {
 316              		.loc 1 56 11 is_stmt 1 view .LVU85
ARM GAS  /var/folders/9y/n02fl3g16gnf7ppy14xghdy80000gn/T//cckLwYqR.s 			page 8


 317              	.L18:
  56:Core/Src/utilities.c ****     {
 318              		.loc 1 56 5 view .LVU86
  58:Core/Src/utilities.c ****             return digits;
 319              		.loc 1 58 9 view .LVU87
  58:Core/Src/utilities.c ****             return digits;
 320              		.loc 1 58 18 is_stmt 0 view .LVU88
 321 0010 91FBF3F2 		sdiv	r2, r1, r3
  58:Core/Src/utilities.c ****             return digits;
 322              		.loc 1 58 12 view .LVU89
 323 0014 002A     		cmp	r2, #0
 324 0016 F7D1     		bne	.L20
  64:Core/Src/utilities.c ****         }
  65:Core/Src/utilities.c ****     }
  66:Core/Src/utilities.c **** }
 325              		.loc 1 66 1 view .LVU90
 326 0018 7047     		bx	lr
 327              		.cfi_endproc
 328              	.LFE1157:
 330              		.section	.rodata.split_string.str1.4,"aMS",%progbits,1
 331              		.align	2
 332              	.LC4:
 333 0000 2C00     		.ascii	",\000"
 334 0002 0000     		.align	2
 335              	.LC5:
 336 0004 22255B5E 		.ascii	"\"%[^\"]\"\000"
 336      225D2200 
 337              		.section	.text.split_string,"ax",%progbits
 338              		.align	1
 339              		.global	split_string
 340              		.syntax unified
 341              		.thumb
 342              		.thumb_func
 343              		.fpu fpv4-sp-d16
 345              	split_string:
 346              	.LVL39:
 347              	.LFB1158:
  67:Core/Src/utilities.c **** 
  68:Core/Src/utilities.c **** bool split_string(char* input_string, char* output_array[], uint8_t* output_size)
  69:Core/Src/utilities.c **** {
 348              		.loc 1 69 1 is_stmt 1 view -0
 349              		.cfi_startproc
 350              		@ args = 0, pretend = 0, frame = 0
 351              		@ frame_needed = 0, uses_anonymous_args = 0
 352              		.loc 1 69 1 is_stmt 0 view .LVU92
 353 0000 F8B5     		push	{r3, r4, r5, r6, r7, lr}
 354              		.cfi_def_cfa_offset 24
 355              		.cfi_offset 3, -24
 356              		.cfi_offset 4, -20
 357              		.cfi_offset 5, -16
 358              		.cfi_offset 6, -12
 359              		.cfi_offset 7, -8
 360              		.cfi_offset 14, -4
 361 0002 0E46     		mov	r6, r1
 362 0004 1746     		mov	r7, r2
  70:Core/Src/utilities.c ****     char *token;
 363              		.loc 1 70 5 is_stmt 1 view .LVU93
ARM GAS  /var/folders/9y/n02fl3g16gnf7ppy14xghdy80000gn/T//cckLwYqR.s 			page 9


  71:Core/Src/utilities.c ****     int i = 0;
 364              		.loc 1 71 5 view .LVU94
 365              	.LVL40:
  72:Core/Src/utilities.c **** 
  73:Core/Src/utilities.c ****     // Get the first token
  74:Core/Src/utilities.c ****     token = strtok(input_string, ",");
 366              		.loc 1 74 5 view .LVU95
 367              		.loc 1 74 13 is_stmt 0 view .LVU96
 368 0006 134C     		ldr	r4, .L29
 369 0008 2146     		mov	r1, r4
 370              	.LVL41:
 371              		.loc 1 74 13 view .LVU97
 372 000a FFF7FEFF 		bl	strtok
 373              	.LVL42:
  75:Core/Src/utilities.c ****     token = strtok(NULL, ","); // disregard header string
 374              		.loc 1 75 5 is_stmt 1 view .LVU98
 375              		.loc 1 75 13 is_stmt 0 view .LVU99
 376 000e 2146     		mov	r1, r4
 377 0010 0020     		movs	r0, #0
 378 0012 FFF7FEFF 		bl	strtok
 379              	.LVL43:
 380 0016 0446     		mov	r4, r0
 381              	.LVL44:
  76:Core/Src/utilities.c **** 
  77:Core/Src/utilities.c ****     // Loop through the input string and split it by delimiter
  78:Core/Src/utilities.c ****     while (token != NULL)
 382              		.loc 1 78 5 is_stmt 1 view .LVU100
  71:Core/Src/utilities.c **** 
 383              		.loc 1 71 9 is_stmt 0 view .LVU101
 384 0018 0025     		movs	r5, #0
 385              		.loc 1 78 11 view .LVU102
 386 001a 0CE0     		b	.L22
 387              	.LVL45:
 388              	.L28:
  79:Core/Src/utilities.c ****     {
  80:Core/Src/utilities.c ****         if (*token == '\"') // strip "" from string
  81:Core/Src/utilities.c ****         {
  82:Core/Src/utilities.c ****             if (*(token + 1) == '\"')
  83:Core/Src/utilities.c ****                 token = NULL;
  84:Core/Src/utilities.c ****             else
  85:Core/Src/utilities.c ****                 sscanf(token, "\"%[^\"]\"", token);
 389              		.loc 1 85 17 is_stmt 1 view .LVU103
 390 001c 2246     		mov	r2, r4
 391 001e 0E49     		ldr	r1, .L29+4
 392 0020 2046     		mov	r0, r4
 393              	.LVL46:
 394              		.loc 1 85 17 is_stmt 0 view .LVU104
 395 0022 FFF7FEFF 		bl	sscanf
 396              	.LVL47:
 397              	.L23:
  86:Core/Src/utilities.c ****         }
  87:Core/Src/utilities.c ****         output_array[i] = token;
 398              		.loc 1 87 9 is_stmt 1 view .LVU105
 399              		.loc 1 87 25 is_stmt 0 view .LVU106
 400 0026 46F82540 		str	r4, [r6, r5, lsl #2]
  88:Core/Src/utilities.c ****         i++;
 401              		.loc 1 88 9 is_stmt 1 view .LVU107
ARM GAS  /var/folders/9y/n02fl3g16gnf7ppy14xghdy80000gn/T//cckLwYqR.s 			page 10


 402              		.loc 1 88 10 is_stmt 0 view .LVU108
 403 002a 0135     		adds	r5, r5, #1
 404              	.LVL48:
  89:Core/Src/utilities.c ****         token = strtok(NULL, ",");
 405              		.loc 1 89 9 is_stmt 1 view .LVU109
 406              		.loc 1 89 17 is_stmt 0 view .LVU110
 407 002c 0949     		ldr	r1, .L29
 408 002e 0020     		movs	r0, #0
 409 0030 FFF7FEFF 		bl	strtok
 410              	.LVL49:
 411 0034 0446     		mov	r4, r0
 412              	.LVL50:
 413              	.L22:
  78:Core/Src/utilities.c ****     {
 414              		.loc 1 78 11 is_stmt 1 view .LVU111
 415 0036 3CB1     		cbz	r4, .L27
  80:Core/Src/utilities.c ****         {
 416              		.loc 1 80 9 view .LVU112
  80:Core/Src/utilities.c ****         {
 417              		.loc 1 80 13 is_stmt 0 view .LVU113
 418 0038 2378     		ldrb	r3, [r4]	@ zero_extendqisi2
  80:Core/Src/utilities.c ****         {
 419              		.loc 1 80 12 view .LVU114
 420 003a 222B     		cmp	r3, #34
 421 003c F3D1     		bne	.L23
  82:Core/Src/utilities.c ****                 token = NULL;
 422              		.loc 1 82 13 is_stmt 1 view .LVU115
  82:Core/Src/utilities.c ****                 token = NULL;
 423              		.loc 1 82 17 is_stmt 0 view .LVU116
 424 003e 6378     		ldrb	r3, [r4, #1]	@ zero_extendqisi2
  82:Core/Src/utilities.c ****                 token = NULL;
 425              		.loc 1 82 16 view .LVU117
 426 0040 222B     		cmp	r3, #34
 427 0042 EBD1     		bne	.L28
  83:Core/Src/utilities.c ****             else
 428              		.loc 1 83 23 view .LVU118
 429 0044 0024     		movs	r4, #0
 430 0046 EEE7     		b	.L23
 431              	.L27:
  90:Core/Src/utilities.c ****     }
  91:Core/Src/utilities.c **** 
  92:Core/Src/utilities.c ****     *output_size = i;
 432              		.loc 1 92 5 is_stmt 1 view .LVU119
 433              		.loc 1 92 18 is_stmt 0 view .LVU120
 434 0048 3D70     		strb	r5, [r7]
  93:Core/Src/utilities.c **** 
  94:Core/Src/utilities.c ****     // Return true if string is successfully split, false otherwise
  95:Core/Src/utilities.c ****     return i > 0;
 435              		.loc 1 95 5 is_stmt 1 view .LVU121
  96:Core/Src/utilities.c **** }...
 436              		.loc 1 96 1 is_stmt 0 view .LVU122
 437 004a 002D     		cmp	r5, #0
 438 004c D4BF     		ite	le
 439 004e 0020     		movle	r0, #0
 440              	.LVL51:
 441              		.loc 1 96 1 view .LVU123
 442 0050 0120     		movgt	r0, #1
ARM GAS  /var/folders/9y/n02fl3g16gnf7ppy14xghdy80000gn/T//cckLwYqR.s 			page 11


 443 0052 F8BD     		pop	{r3, r4, r5, r6, r7, pc}
 444              	.LVL52:
 445              	.L30:
 446              		.loc 1 96 1 view .LVU124
 447              		.align	2
 448              	.L29:
 449 0054 00000000 		.word	.LC4
 450 0058 04000000 		.word	.LC5
 451              		.cfi_endproc
 452              	.LFE1158:
 454              		.text
 455              	.Letext0:
 456              		.file 2 "/opt/homebrew/Cellar/arm-none-eabi-gcc/10.3-2021.07/gcc/arm-none-eabi/include/machine/_de
 457              		.file 3 "/opt/homebrew/Cellar/arm-none-eabi-gcc/10.3-2021.07/gcc/arm-none-eabi/include/sys/_stdint
 458              		.file 4 "/opt/homebrew/Cellar/arm-none-eabi-gcc/10.3-2021.07/gcc/lib/gcc/arm-none-eabi/10.3.1/incl
 459              		.file 5 "Drivers/STM32L4xx_HAL_Driver/Inc/stm32l4xx_ll_dma.h"
 460              		.file 6 "/opt/homebrew/Cellar/arm-none-eabi-gcc/10.3-2021.07/gcc/arm-none-eabi/include/string.h"
 461              		.file 7 "/opt/homebrew/Cellar/arm-none-eabi-gcc/10.3-2021.07/gcc/arm-none-eabi/include/stdio.h"
 462              		.file 8 "/opt/homebrew/Cellar/arm-none-eabi-gcc/10.3-2021.07/gcc/arm-none-eabi/include/stdlib.h"
 463              		.file 9 "<built-in>"
ARM GAS  /var/folders/9y/n02fl3g16gnf7ppy14xghdy80000gn/T//cckLwYqR.s 			page 12

