ARM GAS  /var/folders/9y/n02fl3g16gnf7ppy14xghdy80000gn/T//ccgF15Jx.s 			page 1


   1              		.cpu cortex-m4
   2              		.eabi_attribute 27, 1
   3              		.eabi_attribute 28, 1
   4              		.eabi_attribute 20, 1
   5              		.eabi_attribute 21, 1
   6              		.eabi_attribute 23, 3
   7              		.eabi_attribute 24, 1
   8              		.eabi_attribute 25, 1
   9              		.eabi_attribute 26, 1
  10              		.eabi_attribute 30, 1
  11              		.eabi_attribute 34, 1
  12              		.eabi_attribute 18, 4
  13              		.file	"utilities.c"
  14              		.text
  15              	.Ltext0:
  16              		.cfi_sections	.debug_frame
  17              		.section	.rodata.coords2string.str1.4,"aMS",%progbits,1
  18              		.align	2
  19              	.LC0:
  20 0000 25753B25 		.ascii	"%u;%u \000"
  20      752000
  21 0007 00       		.align	2
  22              	.LC1:
  23 0008 25753B25 		.ascii	"%u;%u\000"
  23      7500
  24              		.section	.text.coords2string,"ax",%progbits
  25              		.align	1
  26              		.global	coords2string
  27              		.arch armv7e-m
  28              		.syntax unified
  29              		.thumb
  30              		.thumb_func
  31              		.fpu fpv4-sp-d16
  33              	coords2string:
  34              	.LVL0:
  35              	.LFB1155:
  36              		.file 1 "Core/Src/utilities.c"
   1:Core/Src/utilities.c **** #include "utilities.h"
   2:Core/Src/utilities.c **** 
   3:Core/Src/utilities.c **** void coords2string(TouchData_t txTouchData[100], size_t coords_size, char* output_str)
   4:Core/Src/utilities.c **** {
  37              		.loc 1 4 1 view -0
  38              		.cfi_startproc
  39              		@ args = 0, pretend = 0, frame = 16
  40              		@ frame_needed = 0, uses_anonymous_args = 0
  41              		.loc 1 4 1 is_stmt 0 view .LVU1
  42 0000 F0B5     		push	{r4, r5, r6, r7, lr}
  43              		.cfi_def_cfa_offset 20
  44              		.cfi_offset 4, -20
  45              		.cfi_offset 5, -16
  46              		.cfi_offset 6, -12
  47              		.cfi_offset 7, -8
  48              		.cfi_offset 14, -4
  49 0002 85B0     		sub	sp, sp, #20
  50              		.cfi_def_cfa_offset 40
  51 0004 0746     		mov	r7, r0
  52 0006 0D46     		mov	r5, r1
ARM GAS  /var/folders/9y/n02fl3g16gnf7ppy14xghdy80000gn/T//ccgF15Jx.s 			page 2


  53 0008 1646     		mov	r6, r2
   5:Core/Src/utilities.c ****     // char *strBuff = calloc(_MQTT_TX_SIZE, sizeof(uint8_t)); // allocate and clear memory
   6:Core/Src/utilities.c ****     uint8_t coord_idx = 0;
  54              		.loc 1 6 5 is_stmt 1 view .LVU2
  55              	.LVL1:
   7:Core/Src/utilities.c ****     while (coord_idx < coords_size)
  56              		.loc 1 7 5 view .LVU3
   6:Core/Src/utilities.c ****     while (coord_idx < coords_size)
  57              		.loc 1 6 13 is_stmt 0 view .LVU4
  58 000a 0024     		movs	r4, #0
  59              		.loc 1 7 11 view .LVU5
  60 000c 09E0     		b	.L2
  61              	.LVL2:
  62              	.L3:
  63              	.LBB2:
   8:Core/Src/utilities.c ****     {
   9:Core/Src/utilities.c ****         uint16_t xCoord = txTouchData[coord_idx].xPos;
  10:Core/Src/utilities.c ****         uint16_t yCoord = txTouchData[coord_idx].yPos;
  11:Core/Src/utilities.c ****         uint8_t str_size = 0;
  12:Core/Src/utilities.c ****         uint8_t str_idx = 0;
  13:Core/Src/utilities.c ****         char temp_str[16];
  14:Core/Src/utilities.c **** 
  15:Core/Src/utilities.c ****         if (coord_idx < (coords_size - 1))
  16:Core/Src/utilities.c ****             str_size = sprintf(temp_str, "%u;%u ", xCoord, yCoord);
  17:Core/Src/utilities.c ****         else
  18:Core/Src/utilities.c ****         {
  19:Core/Src/utilities.c ****             str_size = sprintf(temp_str, "%u;%u", xCoord, yCoord);
  64              		.loc 1 19 13 is_stmt 1 view .LVU6
  65              		.loc 1 19 24 is_stmt 0 view .LVU7
  66 000e 0D49     		ldr	r1, .L8
  67 0010 6846     		mov	r0, sp
  68 0012 FFF7FEFF 		bl	sprintf
  69              	.LVL3:
  70              	.L4:
  20:Core/Src/utilities.c ****         }
  21:Core/Src/utilities.c ****         strcat(&output_str[str_idx], temp_str);
  71              		.loc 1 21 9 is_stmt 1 view .LVU8
  72 0016 6946     		mov	r1, sp
  73 0018 3046     		mov	r0, r6
  74 001a FFF7FEFF 		bl	strcat
  75              	.LVL4:
  22:Core/Src/utilities.c ****         str_idx += str_size;
  76              		.loc 1 22 9 view .LVU9
  23:Core/Src/utilities.c **** 
  24:Core/Src/utilities.c ****         coord_idx++;
  77              		.loc 1 24 9 view .LVU10
  78              		.loc 1 24 18 is_stmt 0 view .LVU11
  79 001e 0134     		adds	r4, r4, #1
  80              	.LVL5:
  81              		.loc 1 24 18 view .LVU12
  82 0020 E4B2     		uxtb	r4, r4
  83              	.LVL6:
  84              	.L2:
  85              		.loc 1 24 18 view .LVU13
  86              	.LBE2:
   7:Core/Src/utilities.c ****     {
  87              		.loc 1 7 11 is_stmt 1 view .LVU14
ARM GAS  /var/folders/9y/n02fl3g16gnf7ppy14xghdy80000gn/T//ccgF15Jx.s 			page 3


  88 0022 AC42     		cmp	r4, r5
  89 0024 0BD2     		bcs	.L7
  90              	.LBB3:
   9:Core/Src/utilities.c ****         uint16_t yCoord = txTouchData[coord_idx].yPos;
  91              		.loc 1 9 9 view .LVU15
   9:Core/Src/utilities.c ****         uint16_t yCoord = txTouchData[coord_idx].yPos;
  92              		.loc 1 9 38 is_stmt 0 view .LVU16
  93 0026 07EBC403 		add	r3, r7, r4, lsl #3
   9:Core/Src/utilities.c ****         uint16_t yCoord = txTouchData[coord_idx].yPos;
  94              		.loc 1 9 18 view .LVU17
  95 002a 9A88     		ldrh	r2, [r3, #4]
  96              	.LVL7:
  10:Core/Src/utilities.c ****         uint8_t str_size = 0;
  97              		.loc 1 10 9 is_stmt 1 view .LVU18
  10:Core/Src/utilities.c ****         uint8_t str_size = 0;
  98              		.loc 1 10 18 is_stmt 0 view .LVU19
  99 002c DB88     		ldrh	r3, [r3, #6]
 100              	.LVL8:
  11:Core/Src/utilities.c ****         uint8_t str_idx = 0;
 101              		.loc 1 11 9 is_stmt 1 view .LVU20
  12:Core/Src/utilities.c ****         char temp_str[16];
 102              		.loc 1 12 9 view .LVU21
  13:Core/Src/utilities.c **** 
 103              		.loc 1 13 9 view .LVU22
  15:Core/Src/utilities.c ****             str_size = sprintf(temp_str, "%u;%u ", xCoord, yCoord);
 104              		.loc 1 15 9 view .LVU23
  15:Core/Src/utilities.c ****             str_size = sprintf(temp_str, "%u;%u ", xCoord, yCoord);
 105              		.loc 1 15 38 is_stmt 0 view .LVU24
 106 002e 691E     		subs	r1, r5, #1
  15:Core/Src/utilities.c ****             str_size = sprintf(temp_str, "%u;%u ", xCoord, yCoord);
 107              		.loc 1 15 12 view .LVU25
 108 0030 A142     		cmp	r1, r4
 109 0032 ECD9     		bls	.L3
  16:Core/Src/utilities.c ****         else
 110              		.loc 1 16 13 is_stmt 1 view .LVU26
  16:Core/Src/utilities.c ****         else
 111              		.loc 1 16 24 is_stmt 0 view .LVU27
 112 0034 0449     		ldr	r1, .L8+4
 113 0036 6846     		mov	r0, sp
 114 0038 FFF7FEFF 		bl	sprintf
 115              	.LVL9:
  16:Core/Src/utilities.c ****         else
 116              		.loc 1 16 24 view .LVU28
 117 003c EBE7     		b	.L4
 118              	.LVL10:
 119              	.L7:
  16:Core/Src/utilities.c ****         else
 120              		.loc 1 16 24 view .LVU29
 121              	.LBE3:
  25:Core/Src/utilities.c ****     }
  26:Core/Src/utilities.c ****     // return strBuff;
  27:Core/Src/utilities.c **** }
 122              		.loc 1 27 1 view .LVU30
 123 003e 05B0     		add	sp, sp, #20
 124              		.cfi_def_cfa_offset 20
 125              		@ sp needed
 126 0040 F0BD     		pop	{r4, r5, r6, r7, pc}
ARM GAS  /var/folders/9y/n02fl3g16gnf7ppy14xghdy80000gn/T//ccgF15Jx.s 			page 4


 127              	.LVL11:
 128              	.L9:
 129              		.loc 1 27 1 view .LVU31
 130 0042 00BF     		.align	2
 131              	.L8:
 132 0044 08000000 		.word	.LC1
 133 0048 00000000 		.word	.LC0
 134              		.cfi_endproc
 135              	.LFE1155:
 137              		.section	.text.num2digits,"ax",%progbits
 138              		.align	1
 139              		.global	num2digits
 140              		.syntax unified
 141              		.thumb
 142              		.thumb_func
 143              		.fpu fpv4-sp-d16
 145              	num2digits:
 146              	.LVL12:
 147              	.LFB1156:
  28:Core/Src/utilities.c **** 
  29:Core/Src/utilities.c **** int num2digits(int num)
  30:Core/Src/utilities.c **** {
 148              		.loc 1 30 1 is_stmt 1 view -0
 149              		.cfi_startproc
 150              		@ args = 0, pretend = 0, frame = 0
 151              		@ frame_needed = 0, uses_anonymous_args = 0
 152              		@ link register save eliminated.
 153              		.loc 1 30 1 is_stmt 0 view .LVU33
 154 0000 0146     		mov	r1, r0
  31:Core/Src/utilities.c ****     int digits = 1;
 155              		.loc 1 31 5 is_stmt 1 view .LVU34
 156              	.LVL13:
  32:Core/Src/utilities.c ****     int divisor = 10;
 157              		.loc 1 32 5 view .LVU35
 158              		.loc 1 32 9 is_stmt 0 view .LVU36
 159 0002 0A23     		movs	r3, #10
  31:Core/Src/utilities.c ****     int digits = 1;
 160              		.loc 1 31 9 view .LVU37
 161 0004 0120     		movs	r0, #1
 162              	.LVL14:
  31:Core/Src/utilities.c ****     int digits = 1;
 163              		.loc 1 31 9 view .LVU38
 164 0006 03E0     		b	.L12
 165              	.LVL15:
 166              	.L14:
  33:Core/Src/utilities.c **** 
  34:Core/Src/utilities.c ****     while (1)
  35:Core/Src/utilities.c ****     {
  36:Core/Src/utilities.c ****         if ((num / divisor) == 0)
  37:Core/Src/utilities.c ****             return digits;
  38:Core/Src/utilities.c ****         else
  39:Core/Src/utilities.c ****         {
  40:Core/Src/utilities.c ****             divisor *= 10;
 167              		.loc 1 40 13 is_stmt 1 view .LVU39
 168              		.loc 1 40 21 is_stmt 0 view .LVU40
 169 0008 03EB8303 		add	r3, r3, r3, lsl #2
 170              	.LVL16:
ARM GAS  /var/folders/9y/n02fl3g16gnf7ppy14xghdy80000gn/T//ccgF15Jx.s 			page 5


 171              		.loc 1 40 21 view .LVU41
 172 000c 5B00     		lsls	r3, r3, #1
 173              	.LVL17:
  41:Core/Src/utilities.c ****             digits++;
 174              		.loc 1 41 13 is_stmt 1 view .LVU42
 175              		.loc 1 41 19 is_stmt 0 view .LVU43
 176 000e 0130     		adds	r0, r0, #1
 177              	.LVL18:
  34:Core/Src/utilities.c ****     {
 178              		.loc 1 34 11 is_stmt 1 view .LVU44
 179              	.L12:
  34:Core/Src/utilities.c ****     {
 180              		.loc 1 34 5 view .LVU45
  36:Core/Src/utilities.c ****             return digits;
 181              		.loc 1 36 9 view .LVU46
  36:Core/Src/utilities.c ****             return digits;
 182              		.loc 1 36 18 is_stmt 0 view .LVU47
 183 0010 91FBF3F2 		sdiv	r2, r1, r3
  36:Core/Src/utilities.c ****             return digits;
 184              		.loc 1 36 12 view .LVU48
 185 0014 002A     		cmp	r2, #0
 186 0016 F7D1     		bne	.L14
  42:Core/Src/utilities.c ****         }
  43:Core/Src/utilities.c ****     }
  44:Core/Src/utilities.c **** }...
 187              		.loc 1 44 1 view .LVU49
 188 0018 7047     		bx	lr
 189              		.cfi_endproc
 190              	.LFE1156:
 192              		.text
 193              	.Letext0:
 194              		.file 2 "/opt/homebrew/Cellar/arm-none-eabi-gcc/10.3-2021.07/gcc/arm-none-eabi/include/machine/_de
 195              		.file 3 "/opt/homebrew/Cellar/arm-none-eabi-gcc/10.3-2021.07/gcc/arm-none-eabi/include/sys/_stdint
 196              		.file 4 "/opt/homebrew/Cellar/arm-none-eabi-gcc/10.3-2021.07/gcc/lib/gcc/arm-none-eabi/10.3.1/incl
 197              		.file 5 "Core/Inc/ft6206.h"
 198              		.file 6 "Drivers/STM32L4xx_HAL_Driver/Inc/stm32l4xx_ll_dma.h"
 199              		.file 7 "/opt/homebrew/Cellar/arm-none-eabi-gcc/10.3-2021.07/gcc/arm-none-eabi/include/stdio.h"
 200              		.file 8 "/opt/homebrew/Cellar/arm-none-eabi-gcc/10.3-2021.07/gcc/arm-none-eabi/include/string.h"
ARM GAS  /var/folders/9y/n02fl3g16gnf7ppy14xghdy80000gn/T//ccgF15Jx.s 			page 6

